Archive member included to satisfy reference by file (symbol)

rtthread.arm.lib(startup.o)   startup_RV32M1_cm0.o (arm_entry)
rtthread.arm.lib(board.o)     rtthread.arm.lib(startup.o) (arm_rt_hw_cpu_id)
rtthread.arm.lib(drv_uart.o)  rtthread.arm.lib(board.o) (arm_rt_hw_uart_init)
rtthread.arm.lib(fsl_lpuart.o)
                              rtthread.arm.lib(drv_uart.o) (arm_LPUART_Init)
rtthread.arm.lib(fsl_clock.o)
                              rtthread.arm.lib(board.o) (arm_CLOCK_GetIpFreq)
rtthread.arm.lib(system_RV32M1_cm0plus.o)
                              startup_RV32M1_cm0.o (arm_SystemInit)
rtthread.arm.lib(fsl_sema42.o)
                              rtthread.arm.lib(board.o) (arm_SEMA42_Lock)
rtthread.arm.lib(fsl_mu.o)    rtthread.arm.lib(board.o) (arm_MU_Init)
rtthread.arm.lib(idle.o)      rtthread.arm.lib(startup.o) (arm_rt_thread_idle_init)
rtthread.arm.lib(cpu.o)       rtthread.arm.lib(startup.o) (_cpus_lock)
rtthread.arm.lib(timer.o)     rtthread.arm.lib(startup.o) (arm_rt_system_timer_init)
rtthread.arm.lib(object.o)    rtthread.arm.lib(timer.o) (arm_rt_object_take_hook)
rtthread.arm.lib(clock.o)     rtthread.arm.lib(board.o) (arm_rt_tick_get)
rtthread.arm.lib(kservice.o)  rtthread.arm.lib(board.o) (arm_rt_kprintf)
rtthread.arm.lib(ipc.o)       rtthread.arm.lib(idle.o) (arm_rt_sem_init)
rtthread.arm.lib(device.o)    rtthread.arm.lib(kservice.o) (arm_rt_device_find)
rtthread.arm.lib(scheduler.o)
                              rtthread.arm.lib(startup.o) (arm_rt_system_scheduler_init)
rtthread.arm.lib(thread.o)    rtthread.arm.lib(cpu.o) (arm_rt_thread_self)
rtthread.arm.lib(irq.o)       rtthread.arm.lib(kservice.o) (arm_rt_interrupt_get_nest)
rtthread.arm.lib(cpuport.o)   rtthread.arm.lib(thread.o) (arm_rt_hw_stack_init)
rtthread.arm.lib(context_gcc.o)
                              rtthread.arm.lib(cpu.o) (arm_rt_hw_local_irq_disable)
rtthread.arm.lib(serial.o)    rtthread.arm.lib(drv_uart.o) (arm_rt_hw_serial_register)
rtthread.arm.lib(shell.o)     rtthread.arm.lib(serial.o) (arm_finsh_getchar)
rtthread.arm.lib(msh.o)       rtthread.arm.lib(shell.o) (arm_msh_exec)
rtthread.arm.lib(cmd.o)       rtthread.arm.lib(cpuport.o) (arm_list_thread)
rtthread.arm.lib(ulog.o)      rtthread.arm.lib(serial.o) (arm_ulog_output)
rtthread.arm.lib(main.o)      rtthread.arm.lib(startup.o) (arm_main)
rtthread.arm.lib(pin_mux.o)   rtthread.arm.lib(board.o) (arm_BOARD_InitPins_Core1)
rtthread.arm.lib(mem.o)       rtthread.arm.lib(kservice.o) (arm_rt_smem_init)
rtthread.arm.lib(dfs_posix.o)
                              rtthread.arm.lib(shell.o) (arm_read)
rtthread.arm.lib(dfs_fs.o)    rtthread.arm.lib(dfs_posix.o) (arm_dfs_statfs)
rtthread.arm.lib(dfs.o)       rtthread.arm.lib(dfs_fs.o) (filesystem_operation_table)
rtthread.arm.lib(dfs_file.o)  rtthread.arm.lib(dfs_posix.o) (arm_dfs_file_open)
rtthread.arm.lib(devfs.o)     rtthread.arm.lib(dfs.o) (arm_devfs_init)
rtthread.arm.lib(completion.o)
                              rtthread.arm.lib(serial.o) (arm_rt_completion_init)
rtthread.arm.lib(waitqueue.o)
                              rtthread.arm.lib(serial.o) (arm_rt_wqueue_wakeup)
rtthread.arm.lib(msh_file.o)  rtthread.arm.lib(msh.o) (arm_msh_exec_script)
rtthread.arm.lib(delay.o)     rtthread.arm.lib(main.o) (arm_mdelay)
rtthread.arm.lib(libc.o)      rtthread.arm.lib(dfs.o) (arm_libc_stdio_get_console)
rtthread.arm.lib(semaphore.o)
                              rtthread.arm.lib(main.o) (arm_sem_init)
rtthread.arm.lib(pthread.o)   rtthread.arm.lib(main.o) (arm_pthread_create)
rtthread.arm.lib(pthread_tls.o)
                              rtthread.arm.lib(pthread.o) (arm__thread_keys)
rtthread.arm.lib(console_be.o)
                              rtthread.arm.lib(ulog.o) (arm_ulog_console_backend_output)
rtthread.arm.lib(time.o)      rtthread.arm.lib(semaphore.o) (arm_rt_timespec_to_tick)
rtthread.arm.lib(pthread_attr.o)
                              rtthread.arm.lib(pthread.o) (arm_pthread_attr_init)
rtthread.risc-v.lib(main.o)   rtthread.arm.lib(main.o) (global_cipher_sem)
rtthread.risc-v.lib(board.o)  rtthread.risc-v.lib(main.o) (riscv_rt_hw_usec_get)
rtthread.risc-v.lib(mnt.o)    rtthread.risc-v.lib(main.o) (riscv_mnt_init)
rtthread.risc-v.lib(clock_config.o)
                              rtthread.risc-v.lib(board.o) (riscv_BOARD_BootClockRUN)
rtthread.risc-v.lib(pin_mux.o)
                              rtthread.risc-v.lib(board.o) (riscv_BOARD_InitPins)
rtthread.risc-v.lib(startup.o)
                              startup_RV32M1_ri5cy.o (riscv_entry)
rtthread.risc-v.lib(drv_uart.o)
                              rtthread.risc-v.lib(board.o) (riscv_rt_hw_uart_init)
rtthread.risc-v.lib(drv_sdcard.o)
                              rtthread.risc-v.lib(board.o) (riscv_rt_hw_sdcard_init)
rtthread.risc-v.lib(system_RV32M1_ri5cy.o)
                              rtthread.risc-v.lib(clock_config.o) (riscv_SystemCoreClock)
rtthread.risc-v.lib(fsl_lpuart.o)
                              rtthread.risc-v.lib(drv_uart.o) (riscv_LPUART_Init)
rtthread.risc-v.lib(fsl_msmc.o)
                              rtthread.risc-v.lib(clock_config.o) (riscv_SMC_SetPowerModeHsrun)
rtthread.risc-v.lib(fsl_xrdc.o)
                              rtthread.risc-v.lib(board.o) (riscv_XRDC_Init)
rtthread.risc-v.lib(fsl_common.o)
                              rtthread.risc-v.lib(board.o) (riscv___assert_func)
rtthread.risc-v.lib(fsl_clock.o)
                              rtthread.risc-v.lib(board.o) (riscv_CLOCK_GetIpFreq)
rtthread.risc-v.lib(fsl_gpio.o)
                              rtthread.risc-v.lib(board.o) (riscv_GPIO_PinInit)
rtthread.risc-v.lib(fsl_sema42.o)
                              rtthread.risc-v.lib(board.o) (riscv_SEMA42_Init)
rtthread.risc-v.lib(fsl_mu.o)
                              rtthread.risc-v.lib(board.o) (riscv_MU_Init)
rtthread.risc-v.lib(fsl_sd.o)
                              rtthread.risc-v.lib(drv_sdcard.o) (riscv_SD_Init)
rtthread.risc-v.lib(fsl_sdmmc.o)
                              rtthread.risc-v.lib(fsl_sd.o) (riscv_g_sdmmc)
rtthread.risc-v.lib(idle.o)   rtthread.risc-v.lib(startup.o) (riscv_rt_thread_idle_init)
rtthread.risc-v.lib(scheduler.o)
                              rtthread.risc-v.lib(board.o) (riscv_rt_system_scheduler_init)
rtthread.risc-v.lib(ipc.o)    rtthread.risc-v.lib(idle.o) (riscv_rt_sem_init)
rtthread.risc-v.lib(components.o)
                              rtthread.risc-v.lib(board.o) (riscv_rt_components_board_init)
rtthread.risc-v.lib(clock.o)  rtthread.risc-v.lib(main.o) (riscv_rt_tick_get)
rtthread.risc-v.lib(cpu.o)    rtthread.risc-v.lib(scheduler.o) (riscv_rt_cpu_self)
rtthread.risc-v.lib(kservice.o)
                              rtthread.risc-v.lib(board.o) (riscv_rt_kprintf)
rtthread.risc-v.lib(thread.o)
                              rtthread.risc-v.lib(ipc.o) (riscv_rt_thread_self)
rtthread.risc-v.lib(mem.o)    rtthread.risc-v.lib(kservice.o) (riscv_rt_smem_init)
rtthread.risc-v.lib(device.o)
                              rtthread.risc-v.lib(drv_sdcard.o) (riscv_rt_device_register)
rtthread.risc-v.lib(timer.o)  rtthread.risc-v.lib(thread.o) (riscv_rt_timer_init)
rtthread.risc-v.lib(object.o)
                              rtthread.risc-v.lib(ipc.o) (riscv_rt_object_trytake_hook)
rtthread.risc-v.lib(cpuport.o)
                              rtthread.risc-v.lib(thread.o) (riscv_rt_hw_stack_init)
rtthread.risc-v.lib(context_gcc.o)
                              rtthread.risc-v.lib(scheduler.o) (riscv_rt_hw_local_irq_disable)
rtthread.risc-v.lib(dfs_fs.o)
                              rtthread.risc-v.lib(drv_sdcard.o) (riscv_dfs_filesystem_get_partition)
rtthread.risc-v.lib(dfs.o)    rtthread.risc-v.lib(dfs_fs.o) (riscv_dfs_lock)
rtthread.risc-v.lib(dfs_file.o)
                              rtthread.risc-v.lib(dfs_fs.o) (riscv_dfs_file_open)
rtthread.risc-v.lib(devfs.o)  rtthread.risc-v.lib(dfs.o) (riscv_devfs_init)
rtthread.risc-v.lib(dfs_elm.o)
                              rtthread.risc-v.lib(mnt.o) (riscv_disk_initialize)
rtthread.risc-v.lib(serial.o)
                              rtthread.risc-v.lib(drv_uart.o) (riscv_rt_hw_serial_register)
rtthread.risc-v.lib(shell.o)  rtthread.risc-v.lib(serial.o) (riscv_finsh_getchar)
rtthread.risc-v.lib(msh.o)    rtthread.risc-v.lib(shell.o) (riscv_msh_exec)
rtthread.risc-v.lib(cmd.o)    rtthread.risc-v.lib(msh.o) (riscv_list_thread)
rtthread.risc-v.lib(time.o)   rtthread.risc-v.lib(dfs_elm.o) (riscv_gmtime)
rtthread.risc-v.lib(delay.o)  rtthread.risc-v.lib(main.o) (riscv_mdelay)
rtthread.risc-v.lib(libc.o)   rtthread.risc-v.lib(dfs.o) (riscv_libc_stdio_get_console)
rtthread.risc-v.lib(semaphore.o)
                              rtthread.risc-v.lib(main.o) (riscv_sem_init)
rtthread.risc-v.lib(pthread.o)
                              rtthread.risc-v.lib(main.o) (riscv_pthread_create)
rtthread.risc-v.lib(pthread_attr.o)
                              rtthread.risc-v.lib(pthread.o) (riscv_pthread_attr_init)
rtthread.risc-v.lib(ulog.o)   rtthread.risc-v.lib(dfs_fs.o) (riscv_ulog_output)
rtthread.risc-v.lib(fsl_host.o)
                              rtthread.risc-v.lib(fsl_sd.o) (riscv_CardInsertDetect)
rtthread.risc-v.lib(fsl_usdhc.o)
                              rtthread.risc-v.lib(fsl_host.o) (riscv_USDHC_Init)
rtthread.risc-v.lib(irq.o)    rtthread.risc-v.lib(kservice.o) (riscv_rt_interrupt_get_nest)
rtthread.risc-v.lib(dfs_posix.o)
                              rtthread.risc-v.lib(shell.o) (riscv_read)
rtthread.risc-v.lib(ff.o)     rtthread.risc-v.lib(dfs_elm.o) (riscv_f_mount)
rtthread.risc-v.lib(ffunicode.o)
                              rtthread.risc-v.lib(ff.o) (riscv_ff_uni2oem)
rtthread.risc-v.lib(completion.o)
                              rtthread.risc-v.lib(serial.o) (riscv_rt_completion_init)
rtthread.risc-v.lib(waitqueue.o)
                              rtthread.risc-v.lib(serial.o) (riscv_rt_wqueue_wakeup)
rtthread.risc-v.lib(msh_file.o)
                              rtthread.risc-v.lib(msh.o) (riscv_msh_exec_script)
rtthread.risc-v.lib(pthread_tls.o)
                              rtthread.risc-v.lib(pthread.o) (riscv__thread_keys)
rtthread.risc-v.lib(console_be.o)
                              rtthread.risc-v.lib(ulog.o) (riscv_ulog_console_backend_output)
build/arm/libc.a(lib_a-atoi.o)
                              rtthread.arm.lib(serial.o) (arm_atoi)
build/arm/libc.a(lib_a-fclose.o)
                              rtthread.arm.lib(libc.o) (arm_fclose)
build/arm/libc.a(lib_a-fflush.o)
                              build/arm/libc.a(lib_a-fclose.o) (arm___sflush_r)
build/arm/libc.a(lib_a-fileno.o)
                              rtthread.arm.lib(libc.o) (arm_fileno)
build/arm/libc.a(lib_a-findfp.o)
                              build/arm/libc.a(lib_a-fclose.o) (arm___sinit)
build/arm/libc.a(lib_a-fopen.o)
                              rtthread.arm.lib(libc.o) (arm_fopen)
build/arm/libc.a(lib_a-fseek.o)
                              build/arm/libc.a(lib_a-fopen.o) (arm__fseek_r)
build/arm/libc.a(lib_a-fseeko.o)
                              build/arm/libc.a(lib_a-fseek.o) (arm__fseeko_r)
build/arm/libc.a(lib_a-fstatr.o)
                              build/arm/libc.a(lib_a-fseeko.o) (arm__fstat_r)
build/arm/libc.a(lib_a-ftello.o)
                              build/arm/libc.a(lib_a-fseeko.o) (arm__ftello_r)
build/arm/libc.a(lib_a-fwalk.o)
                              build/arm/libc.a(lib_a-findfp.o) (arm__fwalk)
build/arm/libc.a(lib_a-impure.o)
                              rtthread.arm.lib(libc.o) (arm__global_impure_ptr)
build/arm/libc.a(lib_a-lock.o)
                              build/arm/libc.a(lib_a-findfp.o) (arm___retarget_lock_init_recursive)
build/arm/libc.a(lib_a-makebuf.o)
                              build/arm/libc.a(lib_a-fseeko.o) (arm___smakebuf_r)
build/arm/libc.a(lib_a-memcmp.o)
                              rtthread.arm.lib(shell.o) (arm_memcmp)
build/arm/libc.a(lib_a-memcpy-stub.o)
                              rtthread.arm.lib(shell.o) (arm_memcpy)
build/arm/libc.a(lib_a-memset.o)
                              rtthread.arm.lib(fsl_lpuart.o) (arm_memset)
build/arm/libc.a(lib_a-reent.o)
                              build/arm/libc.a(lib_a-fstatr.o) (arm_errno)
build/arm/libc.a(lib_a-refill.o)
                              build/arm/libc.a(lib_a-fseeko.o) (arm___srefill_r)
build/arm/libc.a(lib_a-setvbuf.o)
                              rtthread.arm.lib(libc.o) (arm_setvbuf)
build/arm/libc.a(lib_a-snprintf.o)
                              rtthread.arm.lib(libc.o) (arm_snprintf)
build/arm/libc.a(lib_a-stdio.o)
                              build/arm/libc.a(lib_a-findfp.o) (arm___sread)
build/arm/libc.a(lib_a-strcmp.o)
                              rtthread.arm.lib(dfs_fs.o) (arm_strcmp)
build/arm/libc.a(lib_a-strcpy.o)
                              rtthread.arm.lib(shell.o) (arm_strcpy)
build/arm/libc.a(lib_a-strlen-stub.o)
                              rtthread.arm.lib(shell.o) (arm_strlen)
build/arm/libc.a(lib_a-strncmp.o)
                              rtthread.arm.lib(msh.o) (arm_strncmp)
build/arm/libc.a(lib_a-strncpy.o)
                              rtthread.arm.lib(shell.o) (arm_strncpy)
build/arm/libc.a(lib_a-strrchr.o)
                              rtthread.arm.lib(dfs_file.o) (arm_strrchr)
build/arm/libc.a(lib_a-strstr.o)
                              rtthread.arm.lib(msh_file.o) (arm_strstr)
build/arm/libc.a(lib_a-strtol.o)
                              build/arm/libc.a(lib_a-atoi.o) (arm__strtol_r)
build/arm/libc.a(lib_a-svfprintf.o)
                              build/arm/libc.a(lib_a-snprintf.o) (arm__svfprintf_r)
build/arm/libc.a(lib_a-closer.o)
                              build/arm/libc.a(lib_a-stdio.o) (arm__close_r)
build/arm/libc.a(lib_a-ctype_.o)
                              build/arm/libc.a(lib_a-strtol.o) (arm__ctype_)
build/arm/libc.a(lib_a-dtoa.o)
                              build/arm/libc.a(lib_a-svfprintf.o) (arm__dtoa_r)
build/arm/libc.a(lib_a-errno.o)
                              build/arm/libc.a(lib_a-strtol.o) (arm___errno)
build/arm/libc.a(lib_a-flags.o)
                              build/arm/libc.a(lib_a-fopen.o) (arm___sflags)
build/arm/libc.a(lib_a-isattyr.o)
                              build/arm/libc.a(lib_a-makebuf.o) (arm__isatty_r)
build/arm/libc.a(lib_a-localeconv.o)
                              build/arm/libc.a(lib_a-svfprintf.o) (arm__localeconv_r)
build/arm/libc.a(lib_a-malloc.o)
                              build/arm/libc.a(lib_a-setvbuf.o) (arm_malloc)
build/arm/libc.a(lib_a-memchr-stub.o)
                              build/arm/libc.a(lib_a-svfprintf.o) (arm_memchr)
build/arm/libc.a(lib_a-mprec.o)
                              build/arm/libc.a(lib_a-dtoa.o) (arm__Balloc)
build/arm/libc.a(lib_a-s_frexp.o)
                              build/arm/libc.a(lib_a-svfprintf.o) (arm_frexp)
build/arm/libc.a(lib_a-strchr.o)
                              build/arm/libc.a(lib_a-strrchr.o) (arm_strchr)
build/arm/libc.a(lib_a-strnlen.o)
                              build/arm/libc.a(lib_a-strstr.o) (arm_strnlen)
build/arm/libc.a(lib_a-svfiprintf.o)
                              build/arm/libc.a(lib_a-svfprintf.o) (arm___ssprint_r)
build/arm/libc.a(lib_a-assert.o)
                              build/arm/libc.a(lib_a-dtoa.o) (arm___assert_func)
build/arm/libc.a(lib_a-callocr.o)
                              build/arm/libc.a(lib_a-mprec.o) (arm__calloc_r)
build/arm/libc.a(lib_a-fiprintf.o)
                              build/arm/libc.a(lib_a-assert.o) (arm_fiprintf)
build/arm/libc.a(lib_a-locale.o)
                              build/arm/libc.a(lib_a-localeconv.o) (arm___global_locale)
build/arm/libc.a(lib_a-mbtowc_r.o)
                              build/arm/libc.a(lib_a-locale.o) (arm___ascii_mbtowc)
build/arm/libc.a(lib_a-memmove.o)
                              build/arm/libc.a(lib_a-svfiprintf.o) (arm_memmove)
build/arm/libc.a(lib_a-vfiprintf.o)
                              build/arm/libc.a(lib_a-fiprintf.o) (arm__vfiprintf_r)
build/arm/libc.a(lib_a-wctomb_r.o)
                              build/arm/libc.a(lib_a-locale.o) (arm___ascii_wctomb)
build/arm/libc.a(lib_a-wsetup.o)
                              build/arm/libc.a(lib_a-vfiprintf.o) (arm___swsetup_r)
build/arm/libc.a(lib_a-abort.o)
                              build/arm/libc.a(lib_a-assert.o) (arm_abort)
build/arm/libc.a(lib_a-fputwc.o)
                              build/arm/libc.a(lib_a-vfiprintf.o) (arm__fputwc_r)
build/arm/libc.a(lib_a-fvwrite.o)
                              build/arm/libc.a(lib_a-vfiprintf.o) (arm___sfvwrite_r)
build/arm/libc.a(lib_a-signal.o)
                              build/arm/libc.a(lib_a-abort.o) (arm_raise)
build/arm/libc.a(lib_a-signalr.o)
                              build/arm/libc.a(lib_a-signal.o) (arm__kill_r)
build/arm/libc.a(lib_a-wbuf.o)
                              build/arm/libc.a(lib_a-fputwc.o) (arm___swbuf_r)
build/arm/libc.a(lib_a-wcrtomb.o)
                              build/arm/libc.a(lib_a-fputwc.o) (arm__wcrtomb_r)
build/arm/libgcc.a(_udivsi3.o)
                              rtthread.arm.lib(board.o) (arm___aeabi_uidiv)
build/arm/libgcc.a(_divsi3.o)
                              rtthread.arm.lib(board.o) (arm___aeabi_idiv)
build/arm/libgcc.a(_dvmd_tls.o)
                              build/arm/libgcc.a(_udivsi3.o) (arm___aeabi_idiv0)
build/arm/libgcc.a(_arm_cmpdf2.o)
                              build/arm/libc.a(lib_a-svfprintf.o) (arm___aeabi_dcmpeq)
build/arm/libgcc.a(_aeabi_ldivmod.o)
                              rtthread.arm.lib(time.o) (arm___aeabi_ldivmod)
build/arm/libgcc.a(_aeabi_uldivmod.o)
                              build/arm/libc.a(lib_a-svfprintf.o) (arm___aeabi_uldivmod)
build/arm/libgcc.a(_muldi3.o)
                              rtthread.arm.lib(dfs_fs.o) (arm___aeabi_lmul)
build/arm/libgcc.a(_floatdidf.o)
                              rtthread.arm.lib(time.o) (arm___aeabi_l2d)
build/arm/libgcc.a(_udivmoddi4.o)
                              build/arm/libgcc.a(_aeabi_uldivmod.o) (arm___udivmoddi4)
build/arm/libgcc.a(bpabi.o)   build/arm/libgcc.a(_aeabi_ldivmod.o) (arm___gnu_ldivmod_helper)
build/arm/libgcc.a(adddf3.o)  build/arm/libc.a(lib_a-dtoa.o) (arm___aeabi_dadd)
build/arm/libgcc.a(divdf3.o)  build/arm/libc.a(lib_a-dtoa.o) (arm___aeabi_ddiv)
build/arm/libgcc.a(eqdf2.o)   build/arm/libgcc.a(_arm_cmpdf2.o) (arm___eqdf2)
build/arm/libgcc.a(gedf2.o)   build/arm/libgcc.a(_arm_cmpdf2.o) (arm___gedf2)
build/arm/libgcc.a(ledf2.o)   build/arm/libgcc.a(_arm_cmpdf2.o) (arm___ledf2)
build/arm/libgcc.a(muldf3.o)  build/arm/libc.a(lib_a-svfprintf.o) (arm___aeabi_dmul)
build/arm/libgcc.a(subdf3.o)  build/arm/libc.a(lib_a-svfprintf.o) (arm___aeabi_dsub)
build/arm/libgcc.a(unorddf2.o)
                              build/arm/libc.a(lib_a-svfprintf.o) (arm___aeabi_dcmpun)
build/arm/libgcc.a(fixdfsi.o)
                              build/arm/libc.a(lib_a-svfprintf.o) (arm___aeabi_d2iz)
build/arm/libgcc.a(floatsidf.o)
                              build/arm/libc.a(lib_a-svfprintf.o) (arm___aeabi_i2d)
build/arm/libgcc.a(floatunsidf.o)
                              build/arm/libc.a(lib_a-dtoa.o) (arm___aeabi_ui2d)
build/arm/libgcc.a(_clzsi2.o)
                              build/arm/libgcc.a(adddf3.o) (arm___clzsi2)
build/arm/libgcc.a(_clzdi2.o)
                              build/arm/libgcc.a(_udivmoddi4.o) (arm___clzdi2)
build/arm/libgcc.a(_divdi3.o)
                              build/arm/libgcc.a(bpabi.o) (arm___divdi3)
build/arm/libnosys.a(close.o)
                              build/arm/libc.a(lib_a-closer.o) (arm__close)
build/arm/libnosys.a(fstat.o)
                              build/arm/libc.a(lib_a-fstatr.o) (arm__fstat)
build/arm/libnosys.a(getpid.o)
                              build/arm/libc.a(lib_a-signalr.o) (arm__getpid)
build/arm/libnosys.a(isatty.o)
                              build/arm/libc.a(lib_a-isattyr.o) (arm__isatty)
build/arm/libnosys.a(kill.o)  build/arm/libc.a(lib_a-signalr.o) (arm__kill)
build/arm/libnosys.a(_exit.o)
                              build/arm/libc.a(lib_a-abort.o) (arm__exit)
build/risc-v/libc.a(lib_a-atoi.o)
                              rtthread.risc-v.lib(serial.o) (riscv_atoi)
build/risc-v/libc.a(lib_a-fclose.o)
                              rtthread.risc-v.lib(main.o) (riscv_fclose)
build/risc-v/libc.a(lib_a-fflush.o)
                              build/risc-v/libc.a(lib_a-fclose.o) (riscv___sflush_r)
build/risc-v/libc.a(lib_a-fileno.o)
                              rtthread.risc-v.lib(libc.o) (riscv_fileno)
build/risc-v/libc.a(lib_a-findfp.o)
                              build/risc-v/libc.a(lib_a-fclose.o) (riscv___sinit)
build/risc-v/libc.a(lib_a-fopen.o)
                              rtthread.risc-v.lib(main.o) (riscv_fopen)
build/risc-v/libc.a(lib_a-fread.o)
                              rtthread.risc-v.lib(main.o) (riscv_fread)
build/risc-v/libc.a(lib_a-fseek.o)
                              build/risc-v/libc.a(lib_a-fopen.o) (riscv__fseek_r)
build/risc-v/libc.a(lib_a-fseeko.o)
                              build/risc-v/libc.a(lib_a-fseek.o) (riscv__fseeko_r)
build/risc-v/libc.a(lib_a-fstatr.o)
                              build/risc-v/libc.a(lib_a-fseeko.o) (riscv__fstat_r)
build/risc-v/libc.a(lib_a-fwalk.o)
                              build/risc-v/libc.a(lib_a-findfp.o) (riscv__fwalk)
build/risc-v/libc.a(lib_a-fwrite.o)
                              rtthread.risc-v.lib(main.o) (riscv_fwrite)
build/risc-v/libc.a(lib_a-impure.o)
                              rtthread.risc-v.lib(libc.o) (riscv__global_impure_ptr)
build/risc-v/libc.a(lib_a-makebuf.o)
                              build/risc-v/libc.a(lib_a-fseeko.o) (riscv___smakebuf_r)
build/risc-v/libc.a(lib_a-malloc.o)
                              rtthread.risc-v.lib(main.o) (riscv_malloc)
build/risc-v/libc.a(lib_a-memcmp.o)
                              rtthread.risc-v.lib(shell.o) (riscv_memcmp)
build/risc-v/libc.a(lib_a-memcpy.o)
                              rtthread.risc-v.lib(board.o) (riscv_memcpy)
build/risc-v/libc.a(lib_a-memset.o)
                              rtthread.risc-v.lib(main.o) (riscv_memset)
build/risc-v/libc.a(lib_a-printf.o)
                              rtthread.risc-v.lib(main.o) (riscv_printf)
build/risc-v/libc.a(lib_a-reent.o)
                              build/risc-v/libc.a(lib_a-fstatr.o) (riscv_errno)
build/risc-v/libc.a(lib_a-refill.o)
                              build/risc-v/libc.a(lib_a-fread.o) (riscv___srefill_r)
build/risc-v/libc.a(lib_a-setvbuf.o)
                              rtthread.risc-v.lib(libc.o) (riscv_setvbuf)
build/risc-v/libc.a(lib_a-snprintf.o)
                              rtthread.risc-v.lib(libc.o) (riscv_snprintf)
build/risc-v/libc.a(lib_a-stdio.o)
                              build/risc-v/libc.a(lib_a-findfp.o) (riscv___sread)
build/risc-v/libc.a(lib_a-strcat.o)
                              rtthread.risc-v.lib(shell.o) (riscv_strcat)
build/risc-v/libc.a(lib_a-strchr.o)
                              rtthread.risc-v.lib(ff.o) (riscv_strchr)
build/risc-v/libc.a(lib_a-strcmp.o)
                              rtthread.risc-v.lib(dfs_fs.o) (riscv_strcmp)
build/risc-v/libc.a(lib_a-strcpy.o)
                              rtthread.risc-v.lib(shell.o) (riscv_strcpy)
build/risc-v/libc.a(lib_a-strlen.o)
                              rtthread.risc-v.lib(dfs_fs.o) (riscv_strlen)
build/risc-v/libc.a(lib_a-strncmp.o)
                              rtthread.risc-v.lib(dfs_fs.o) (riscv_strncmp)
build/risc-v/libc.a(lib_a-strncpy.o)
                              rtthread.risc-v.lib(shell.o) (riscv_strncpy)
build/risc-v/libc.a(lib_a-strrchr.o)
                              rtthread.risc-v.lib(dfs_file.o) (riscv_strrchr)
build/risc-v/libc.a(lib_a-strstr.o)
                              rtthread.risc-v.lib(msh_file.o) (riscv_strstr)
build/risc-v/libc.a(lib_a-strtol.o)
                              build/risc-v/libc.a(lib_a-atoi.o) (riscv__strtol_r)
build/risc-v/libc.a(lib_a-closer.o)
                              build/risc-v/libc.a(lib_a-stdio.o) (riscv__close_r)
build/risc-v/libc.a(lib_a-flags.o)
                              build/risc-v/libc.a(lib_a-fopen.o) (riscv___sflags)
build/risc-v/libc.a(lib_a-fvwrite.o)
                              build/risc-v/libc.a(lib_a-fwrite.o) (riscv___sfvwrite_r)
build/risc-v/libc.a(lib_a-isattyr.o)
                              build/risc-v/libc.a(lib_a-makebuf.o) (riscv__isatty_r)
build/risc-v/libc.a(lib_a-locale.o)
                              build/risc-v/libc.a(lib_a-strtol.o) (riscv___locale_ctype_ptr_l)
build/risc-v/libc.a(lib_a-mbtowc_r.o)
                              build/risc-v/libc.a(lib_a-locale.o) (riscv___ascii_mbtowc)
build/risc-v/libc.a(lib_a-memchr.o)
                              build/risc-v/libc.a(lib_a-fvwrite.o) (riscv_memchr)
build/risc-v/libc.a(lib_a-memmove.o)
                              build/risc-v/libc.a(lib_a-fvwrite.o) (riscv_memmove)
build/risc-v/libc.a(lib_a-nano-svfprintf.o)
                              build/risc-v/libc.a(lib_a-snprintf.o) (riscv__svfprintf_r)
build/risc-v/libc.a(lib_a-nano-vfprintf_i.o)
                              build/risc-v/libc.a(lib_a-nano-svfprintf.o) (riscv__printf_i)
build/risc-v/libc.a(lib_a-nano-vfprintf.o)
                              build/risc-v/libc.a(lib_a-printf.o) (riscv__vfprintf_r)
build/risc-v/libc.a(lib_a-wbuf.o)
                              build/risc-v/libc.a(lib_a-nano-vfprintf.o) (riscv___swbuf_r)
build/risc-v/libc.a(lib_a-wctomb_r.o)
                              build/risc-v/libc.a(lib_a-locale.o) (riscv___ascii_wctomb)
build/risc-v/libc.a(lib_a-wsetup.o)
                              build/risc-v/libc.a(lib_a-fvwrite.o) (riscv___swsetup_r)
build/risc-v/libc.a(lib_a-ctype_.o)
                              build/risc-v/libc.a(lib_a-locale.o) (riscv__ctype_)
build/risc-v/libc.a(lib_a-fputwc.o)
                              build/risc-v/libc.a(lib_a-nano-vfprintf.o) (riscv__fputwc_r)
build/risc-v/libc.a(lib_a-wcrtomb.o)
                              build/risc-v/libc.a(lib_a-fputwc.o) (riscv__wcrtomb_r)
build/risc-v/libgcc.a(_bswapsi2.o)
                              rtthread.risc-v.lib(fsl_sd.o) (riscv___bswapsi2)
build/risc-v/libgcc.a(floatsidf.o)
                              rtthread.risc-v.lib(time.o) (riscv___floatsidf)
build/risc-v/libgcc.a(_clzsi2.o)
                              build/risc-v/libgcc.a(floatsidf.o) (riscv___clzsi2)
build/risc-v/libgcc.a(_clz.o)
                              build/risc-v/libgcc.a(_clzsi2.o) (riscv___clz_tab)
rtthread.arm.lib(syscalls.o)  build/arm/libc.a(lib_a-findfp.o) (arm__malloc_r)
rtthread.arm.lib(stdlib.o)    rtthread.arm.lib(syscalls.o) (arm___rt_libc_exit)
rtthread.risc-v.lib(syscalls.o)
                              build/risc-v/libc.a(lib_a-findfp.o) (riscv__malloc_r)
rtthread.risc-v.lib(stdlib.o)
                              rtthread.risc-v.lib(syscalls.o) (riscv___rt_libc_exit)

Allocating common symbols
Common symbol       size              file

fslock              0x24              rtthread.arm.lib(dfs.o)
arm_rt_assert_hook  0x4               rtthread.arm.lib(kservice.o)
arm_rt_object_put_hook
                    0x4               rtthread.arm.lib(object.o)
arm_rt_current_thread
                    0x4               rtthread.arm.lib(board.o)
arm_rt_interrupt_to_thread
                    0x4               rtthread.arm.lib(cpuport.o)
_lock               0x24              rtthread.arm.lib(kservice.o)
riscv_g_sdmmc       0x100             rtthread.risc-v.lib(fsl_sdmmc.o)
arm___lock___sfp_recursive_mutex
                    0x1               build/arm/libc.a(lib_a-lock.o)
arm___lock___dd_hash_mutex
                    0x1               build/arm/libc.a(lib_a-lock.o)
arm_errno           0x4               build/arm/libc.a(lib_a-reent.o)
arm_rt_interrupt_from_thread
                    0x4               rtthread.arm.lib(cpuport.o)
arm_serial0         0x64              rtthread.arm.lib(drv_uart.o)
lfree               0x4               rtthread.arm.lib(mem.o)
arm___lock___sinit_recursive_mutex
                    0x1               build/arm/libc.a(lib_a-lock.o)
arm_rt_thread_switch_interrupt_flag
                    0x4               rtthread.arm.lib(cpuport.o)
_cpus_lock          0x4               rtthread.arm.lib(cpu.o)
global_read_sem     0xc               rtthread.risc-v.lib(main.o)
heap_ptr            0x4               rtthread.arm.lib(mem.o)
riscv_rt_object_put_hook
                    0x4               rtthread.risc-v.lib(object.o)
riscv_serial0       0x68              rtthread.risc-v.lib(drv_uart.o)
_fdtab              0x8               rtthread.arm.lib(dfs.o)
riscv__thread_keys  0x40              rtthread.risc-v.lib(pthread_tls.o)
posix_sem_lock      0x24              rtthread.arm.lib(semaphore.o)
global_write_sem    0xc               rtthread.risc-v.lib(main.o)
rt_thread_priority_table
                    0x100             rtthread.arm.lib(scheduler.o)
heap_sem            0x24              rtthread.arm.lib(mem.o)
arm___lock___atexit_recursive_mutex
                    0x1               build/arm/libc.a(lib_a-lock.o)
filesystem_table    0x40              rtthread.arm.lib(dfs.o)
riscv_rt_assert_hook
                    0x4               rtthread.risc-v.lib(kservice.o)
riscv_shell         0x4               rtthread.risc-v.lib(shell.o)
global_cipher_sem   0xc               rtthread.risc-v.lib(main.o)
arm___lock___arc4random_mutex
                    0x1               build/arm/libc.a(lib_a-lock.o)
arm__thread_keys    0x40              rtthread.arm.lib(pthread_tls.o)
arm_g_xtal0Freq     0x4               rtthread.arm.lib(fsl_clock.o)
arm___lock___tz_mutex
                    0x1               build/arm/libc.a(lib_a-lock.o)
arm_shell           0x4               rtthread.arm.lib(shell.o)
heap_end            0x4               rtthread.arm.lib(mem.o)
arm_rt_object_trytake_hook
                    0x4               rtthread.arm.lib(object.o)
rt_thread_ready_priority_group
                    0x4               rtthread.arm.lib(scheduler.o)
riscv_errno         0x4               build/risc-v/libc.a(lib_a-reent.o)
arm___lock___env_recursive_mutex
                    0x1               build/arm/libc.a(lib_a-lock.o)
global_bsize        0x4               rtthread.risc-v.lib(main.o)
arm___lock___at_quick_exit_mutex
                    0x1               build/arm/libc.a(lib_a-lock.o)
arm_g_xtal32Freq    0x4               rtthread.arm.lib(fsl_clock.o)
riscv_g_xtal32Freq  0x4               rtthread.risc-v.lib(fsl_clock.o)
riscv_rt_object_trytake_hook
                    0x4               rtthread.risc-v.lib(object.o)
riscv_g_usdhcAdma2Table
                    0x20              rtthread.risc-v.lib(fsl_host.o)
global_queue        0x40              rtthread.risc-v.lib(main.o)
arm___lock___malloc_recursive_mutex
                    0x1               build/arm/libc.a(lib_a-lock.o)
filesystem_operation_table
                    0x10              rtthread.arm.lib(dfs.o)
riscv_rt_object_take_hook
                    0x4               rtthread.risc-v.lib(object.o)
rt_cpus             0x228             rtthread.arm.lib(cpu.o)
riscv_g_xtal0Freq   0x4               rtthread.risc-v.lib(fsl_clock.o)
global_nblocks      0x4               rtthread.risc-v.lib(main.o)
arm_rt_object_take_hook
                    0x4               rtthread.arm.lib(object.o)
global_preemptive   0x4               rtthread.risc-v.lib(board.o)

Discarded input sections

 .data          0x0000000000000000        0x0 startup_RV32M1_cm0.o
 .bss           0x0000000000000000        0x0 startup_RV32M1_cm0.o
 .text          0x0000000000000000        0x0 rtthread.arm.lib(startup.o)
 .data          0x0000000000000000        0x0 rtthread.arm.lib(startup.o)
 .bss           0x0000000000000000        0x0 rtthread.arm.lib(startup.o)
 .text          0x0000000000000000        0x0 rtthread.arm.lib(board.o)
 .data          0x0000000000000000        0x0 rtthread.arm.lib(board.o)
 .text.rt_hw_spin_lock_init
                0x0000000000000000       0x16 rtthread.arm.lib(board.o)
 .text.rt_hw_cpu_shutdown
                0x0000000000000000       0x40 rtthread.arm.lib(board.o)
 .text          0x0000000000000000        0x0 rtthread.arm.lib(drv_uart.o)
 .data          0x0000000000000000        0x0 rtthread.arm.lib(drv_uart.o)
 .bss           0x0000000000000000        0x0 rtthread.arm.lib(drv_uart.o)
 .text          0x0000000000000000        0x0 rtthread.arm.lib(fsl_lpuart.o)
 .data          0x0000000000000000        0x0 rtthread.arm.lib(fsl_lpuart.o)
 .text.__NVIC_EnableIRQ
                0x0000000000000000       0x34 rtthread.arm.lib(fsl_lpuart.o)
 .text.CLOCK_DisableClock
                0x0000000000000000       0x20 rtthread.arm.lib(fsl_lpuart.o)
 .text.EnableIRQ
                0x0000000000000000       0x3e rtthread.arm.lib(fsl_lpuart.o)
 .text.LPUART_TransferGetRxRingBufferLength
                0x0000000000000000       0x50 rtthread.arm.lib(fsl_lpuart.o)
 .text.LPUART_TransferIsRxRingBufferFull
                0x0000000000000000       0x42 rtthread.arm.lib(fsl_lpuart.o)
 .text.LPUART_WriteNonBlocking
                0x0000000000000000       0x38 rtthread.arm.lib(fsl_lpuart.o)
 .text.LPUART_ReadNonBlocking
                0x0000000000000000       0x96 rtthread.arm.lib(fsl_lpuart.o)
 .text.LPUART_Deinit
                0x0000000000000000       0x78 rtthread.arm.lib(fsl_lpuart.o)
 .text.LPUART_SetBaudRate
                0x0000000000000000      0x178 rtthread.arm.lib(fsl_lpuart.o)
 .text.LPUART_DisableInterrupts
                0x0000000000000000       0x5c rtthread.arm.lib(fsl_lpuart.o)
 .text.LPUART_GetEnabledInterrupts
                0x0000000000000000       0x40 rtthread.arm.lib(fsl_lpuart.o)
 .text.LPUART_ClearStatusFlags
                0x0000000000000000       0xb0 rtthread.arm.lib(fsl_lpuart.o)
 .text.LPUART_WriteBlocking
                0x0000000000000000       0x3e rtthread.arm.lib(fsl_lpuart.o)
 .text.LPUART_ReadBlocking
                0x0000000000000000      0x124 rtthread.arm.lib(fsl_lpuart.o)
 .text.LPUART_TransferCreateHandle
                0x0000000000000000       0xc4 rtthread.arm.lib(fsl_lpuart.o)
 .text.LPUART_TransferStartRingBuffer
                0x0000000000000000       0x3c rtthread.arm.lib(fsl_lpuart.o)
 .text.LPUART_TransferStopRingBuffer
                0x0000000000000000       0x44 rtthread.arm.lib(fsl_lpuart.o)
 .text.LPUART_TransferSendNonBlocking
                0x0000000000000000       0x60 rtthread.arm.lib(fsl_lpuart.o)
 .text.LPUART_TransferAbortSend
                0x0000000000000000       0x2e rtthread.arm.lib(fsl_lpuart.o)
 .text.LPUART_TransferGetSendCount
                0x0000000000000000       0x34 rtthread.arm.lib(fsl_lpuart.o)
 .text.LPUART_TransferReceiveNonBlocking
                0x0000000000000000      0x16c rtthread.arm.lib(fsl_lpuart.o)
 .text.LPUART_TransferAbortReceive
                0x0000000000000000       0x36 rtthread.arm.lib(fsl_lpuart.o)
 .text.LPUART_TransferGetReceiveCount
                0x0000000000000000       0x34 rtthread.arm.lib(fsl_lpuart.o)
 .text.LPUART_TransferHandleIRQ
                0x0000000000000000      0x418 rtthread.arm.lib(fsl_lpuart.o)
 .text.LPUART_TransferHandleErrorIRQ
                0x0000000000000000       0x12 rtthread.arm.lib(fsl_lpuart.o)
 .text          0x0000000000000000        0x0 rtthread.arm.lib(fsl_clock.o)
 .data          0x0000000000000000        0x0 rtthread.arm.lib(fsl_clock.o)
 .bss           0x0000000000000000        0x0 rtthread.arm.lib(fsl_clock.o)
 .text.CLOCK_EnableClock
                0x0000000000000000       0x1e rtthread.arm.lib(fsl_clock.o)
 .text.CLOCK_SetIpSrc
                0x0000000000000000       0x4c rtthread.arm.lib(fsl_clock.o)
 .text.CLOCK_GetFlashClkFreq
                0x0000000000000000       0x12 rtthread.arm.lib(fsl_clock.o)
 .text.CLOCK_GetBusClkFreq
                0x0000000000000000       0x12 rtthread.arm.lib(fsl_clock.o)
 .text.CLOCK_GetPlatClkFreq
                0x0000000000000000       0x12 rtthread.arm.lib(fsl_clock.o)
 .text.CLOCK_GetCoreSysClkFreq
                0x0000000000000000       0x12 rtthread.arm.lib(fsl_clock.o)
 .text.CLOCK_GetExtClkFreq
                0x0000000000000000       0x12 rtthread.arm.lib(fsl_clock.o)
 .text.CLOCK_EnableUsbfs0Clock
                0x0000000000000000       0x98 rtthread.arm.lib(fsl_clock.o)
 .text.CLOCK_InitSysOsc
                0x0000000000000000       0xa0 rtthread.arm.lib(fsl_clock.o)
 .text.CLOCK_DeinitSysOsc
                0x0000000000000000       0x4c rtthread.arm.lib(fsl_clock.o)
 .text.CLOCK_InitSirc
                0x0000000000000000       0x8c rtthread.arm.lib(fsl_clock.o)
 .text.CLOCK_DeinitSirc
                0x0000000000000000       0x48 rtthread.arm.lib(fsl_clock.o)
 .text.CLOCK_InitFirc
                0x0000000000000000      0x118 rtthread.arm.lib(fsl_clock.o)
 .text.CLOCK_DeinitFirc
                0x0000000000000000       0x4c rtthread.arm.lib(fsl_clock.o)
 .text.CLOCK_InitLpFll
                0x0000000000000000      0x144 rtthread.arm.lib(fsl_clock.o)
 .text.CLOCK_DeinitLpFll
                0x0000000000000000       0x4c rtthread.arm.lib(fsl_clock.o)
 .text          0x0000000000000000        0x0 rtthread.arm.lib(system_RV32M1_cm0plus.o)
 .data          0x0000000000000000        0x4 rtthread.arm.lib(system_RV32M1_cm0plus.o)
 .bss           0x0000000000000000        0x0 rtthread.arm.lib(system_RV32M1_cm0plus.o)
 .text.SystemCoreClockUpdate
                0x0000000000000000       0xd0 rtthread.arm.lib(system_RV32M1_cm0plus.o)
 .text.SystemInitHook
                0x0000000000000000        0xa rtthread.arm.lib(system_RV32M1_cm0plus.o)
 .text          0x0000000000000000        0x0 rtthread.arm.lib(fsl_sema42.o)
 .data          0x0000000000000000        0x0 rtthread.arm.lib(fsl_sema42.o)
 .bss           0x0000000000000000        0x0 rtthread.arm.lib(fsl_sema42.o)
 .text.CLOCK_EnableClock
                0x0000000000000000       0x1e rtthread.arm.lib(fsl_sema42.o)
 .text.CLOCK_DisableClock
                0x0000000000000000       0x20 rtthread.arm.lib(fsl_sema42.o)
 .rodata        0x0000000000000000       0x10 rtthread.arm.lib(fsl_sema42.o)
 .text.SEMA42_GetInstance
                0x0000000000000000       0x3c rtthread.arm.lib(fsl_sema42.o)
 .text.SEMA42_Init
                0x0000000000000000       0x2c rtthread.arm.lib(fsl_sema42.o)
 .text.SEMA42_Deinit
                0x0000000000000000       0x2c rtthread.arm.lib(fsl_sema42.o)
 .text.SEMA42_TryLock
                0x0000000000000000       0x60 rtthread.arm.lib(fsl_sema42.o)
 .text.SEMA42_ResetGate
                0x0000000000000000       0x54 rtthread.arm.lib(fsl_sema42.o)
 .text          0x0000000000000000        0x0 rtthread.arm.lib(fsl_mu.o)
 .data          0x0000000000000000        0x0 rtthread.arm.lib(fsl_mu.o)
 .bss           0x0000000000000000        0x0 rtthread.arm.lib(fsl_mu.o)
 .text.CLOCK_DisableClock
                0x0000000000000000       0x20 rtthread.arm.lib(fsl_mu.o)
 .rodata        0x0000000000000000        0x8 rtthread.arm.lib(fsl_mu.o)
 .text.MU_Deinit
                0x0000000000000000       0x24 rtthread.arm.lib(fsl_mu.o)
 .text.MU_SendMsg
                0x0000000000000000       0x34 rtthread.arm.lib(fsl_mu.o)
 .text.MU_ReceiveMsg
                0x0000000000000000       0x30 rtthread.arm.lib(fsl_mu.o)
 .text.MU_BootCoreB
                0x0000000000000000       0x50 rtthread.arm.lib(fsl_mu.o)
 .text.MU_BootOtherCore
                0x0000000000000000       0x24 rtthread.arm.lib(fsl_mu.o)
 .text.MU_HardwareResetOtherCore
                0x0000000000000000       0xac rtthread.arm.lib(fsl_mu.o)
 .text          0x0000000000000000        0x0 rtthread.arm.lib(idle.o)
 .text.rt_thread_idle_sethook
                0x0000000000000000       0x5c rtthread.arm.lib(idle.o)
 .text.rt_thread_idle_delhook
                0x0000000000000000       0x5c rtthread.arm.lib(idle.o)
 .text.rt_thread_idle_gethandler
                0x0000000000000000       0x24 rtthread.arm.lib(idle.o)
 .text          0x0000000000000000        0x0 rtthread.arm.lib(cpu.o)
 .data          0x0000000000000000        0x0 rtthread.arm.lib(cpu.o)
 .bss           0x0000000000000000        0x0 rtthread.arm.lib(cpu.o)
 .text._cpu_preempt_disable
                0x0000000000000000       0x34 rtthread.arm.lib(cpu.o)
 .text._cpu_preempt_enable
                0x0000000000000000       0x38 rtthread.arm.lib(cpu.o)
 .text.rt_spin_lock_init
                0x0000000000000000       0x18 rtthread.arm.lib(cpu.o)
 .text.rt_spin_lock
                0x0000000000000000       0x1c rtthread.arm.lib(cpu.o)
 .text.rt_spin_unlock
                0x0000000000000000       0x1c rtthread.arm.lib(cpu.o)
 .text.rt_spin_lock_irqsave
                0x0000000000000000       0x26 rtthread.arm.lib(cpu.o)
 .text.rt_spin_unlock_irqrestore
                0x0000000000000000       0x26 rtthread.arm.lib(cpu.o)
 .text          0x0000000000000000        0x0 rtthread.arm.lib(timer.o)
 .data          0x0000000000000000        0x0 rtthread.arm.lib(timer.o)
 .text.rt_timer_enter_sethook
                0x0000000000000000       0x1c rtthread.arm.lib(timer.o)
 .text.rt_timer_exit_sethook
                0x0000000000000000       0x1c rtthread.arm.lib(timer.o)
 .text._timer_list_next_timeout
                0x0000000000000000       0x4e rtthread.arm.lib(timer.o)
 .text.rt_timer_create
                0x0000000000000000       0x84 rtthread.arm.lib(timer.o)
 .text.rt_timer_delete
                0x0000000000000000       0xa0 rtthread.arm.lib(timer.o)
 .text.rt_timer_next_timeout_tick
                0x0000000000000000       0x28 rtthread.arm.lib(timer.o)
 .text          0x0000000000000000        0x0 rtthread.arm.lib(object.o)
 .text.rt_object_attach_sethook
                0x0000000000000000       0x1c rtthread.arm.lib(object.o)
 .text.rt_object_get_length
                0x0000000000000000       0x68 rtthread.arm.lib(object.o)
 .text.rt_object_get_pointers
                0x0000000000000000       0x98 rtthread.arm.lib(object.o)
 .text          0x0000000000000000        0x0 rtthread.arm.lib(clock.o)
 .data          0x0000000000000000        0x0 rtthread.arm.lib(clock.o)
 .text.rt_tick_sethook
                0x0000000000000000       0x1c rtthread.arm.lib(clock.o)
 .text.rt_tick_set
                0x0000000000000000       0x36 rtthread.arm.lib(clock.o)
 .text.rt_tick_get_millisecond
                0x0000000000000000       0x18 rtthread.arm.lib(clock.o)
 .text          0x0000000000000000        0x0 rtthread.arm.lib(kservice.o)
 .data          0x0000000000000000        0x0 rtthread.arm.lib(kservice.o)
 .text.rt_hw_us_delay
                0x0000000000000000       0x30 rtthread.arm.lib(kservice.o)
 .text.rt_get_errno
                0x0000000000000000       0x38 rtthread.arm.lib(kservice.o)
 .text._rt_errno
                0x0000000000000000       0x34 rtthread.arm.lib(kservice.o)
 .text.rt_memmove
                0x0000000000000000       0x7e rtthread.arm.lib(kservice.o)
 .text.rt_memcmp
                0x0000000000000000       0x54 rtthread.arm.lib(kservice.o)
 .text.rt_strstr
                0x0000000000000000       0x60 rtthread.arm.lib(kservice.o)
 .text.rt_strcasecmp
                0x0000000000000000       0x5e rtthread.arm.lib(kservice.o)
 .text.rt_strcpy
                0x0000000000000000       0x3c rtthread.arm.lib(kservice.o)
 .text.rt_strnlen
                0x0000000000000000       0x3a rtthread.arm.lib(kservice.o)
 .text.rt_malloc_sethook
                0x0000000000000000       0x1c rtthread.arm.lib(kservice.o)
 .text.rt_free_sethook
                0x0000000000000000       0x1c rtthread.arm.lib(kservice.o)
 .text.rt_malloc_align
                0x0000000000000000       0x80 rtthread.arm.lib(kservice.o)
 .text.rt_free_align
                0x0000000000000000       0x20 rtthread.arm.lib(kservice.o)
 .text.rt_assert_set_hook
                0x0000000000000000       0x1c rtthread.arm.lib(kservice.o)
 .text          0x0000000000000000        0x0 rtthread.arm.lib(ipc.o)
 .data          0x0000000000000000        0x0 rtthread.arm.lib(ipc.o)
 .bss           0x0000000000000000        0x0 rtthread.arm.lib(ipc.o)
 .text.rt_sem_detach
                0x0000000000000000       0x84 rtthread.arm.lib(ipc.o)
 .text.rt_sem_trytake
                0x0000000000000000       0x1c rtthread.arm.lib(ipc.o)
 .text.rt_sem_control
                0x0000000000000000       0x8c rtthread.arm.lib(ipc.o)
 .text.rt_mutex_detach
                0x0000000000000000       0x84 rtthread.arm.lib(ipc.o)
 .text.rt_mutex_create
                0x0000000000000000       0x56 rtthread.arm.lib(ipc.o)
 .text.rt_mutex_delete
                0x0000000000000000       0x84 rtthread.arm.lib(ipc.o)
 .text.rt_mutex_trytake
                0x0000000000000000       0x1c rtthread.arm.lib(ipc.o)
 .text.rt_mutex_control
                0x0000000000000000       0x58 rtthread.arm.lib(ipc.o)
 .text.rt_event_init
                0x0000000000000000       0x7c rtthread.arm.lib(ipc.o)
 .text.rt_event_detach
                0x0000000000000000       0x84 rtthread.arm.lib(ipc.o)
 .text.rt_event_create
                0x0000000000000000       0x70 rtthread.arm.lib(ipc.o)
 .text.rt_event_delete
                0x0000000000000000       0x84 rtthread.arm.lib(ipc.o)
 .text.rt_event_send
                0x0000000000000000      0x164 rtthread.arm.lib(ipc.o)
 .text.rt_event_recv
                0x0000000000000000      0x1d8 rtthread.arm.lib(ipc.o)
 .text.rt_event_control
                0x0000000000000000       0x88 rtthread.arm.lib(ipc.o)
 .text.rt_mb_init
                0x0000000000000000       0xa4 rtthread.arm.lib(ipc.o)
 .text.rt_mb_detach
                0x0000000000000000       0x90 rtthread.arm.lib(ipc.o)
 .text.rt_mb_create
                0x0000000000000000       0xb4 rtthread.arm.lib(ipc.o)
 .text.rt_mb_delete
                0x0000000000000000       0x98 rtthread.arm.lib(ipc.o)
 .text.rt_mb_send_wait
                0x0000000000000000      0x1cc rtthread.arm.lib(ipc.o)
 .text.rt_mb_send
                0x0000000000000000       0x20 rtthread.arm.lib(ipc.o)
 .text.rt_mb_urgent
                0x0000000000000000       0xfc rtthread.arm.lib(ipc.o)
 .text.rt_mb_recv
                0x0000000000000000      0x1e4 rtthread.arm.lib(ipc.o)
 .text.rt_mb_control
                0x0000000000000000       0x9c rtthread.arm.lib(ipc.o)
 .text.rt_mq_init
                0x0000000000000000      0x104 rtthread.arm.lib(ipc.o)
 .text.rt_mq_detach
                0x0000000000000000       0x90 rtthread.arm.lib(ipc.o)
 .text.rt_mq_create
                0x0000000000000000      0x10c rtthread.arm.lib(ipc.o)
 .text.rt_mq_delete
                0x0000000000000000       0x98 rtthread.arm.lib(ipc.o)
 .text.rt_mq_send_wait
                0x0000000000000000      0x238 rtthread.arm.lib(ipc.o)
 .text.rt_mq_send
                0x0000000000000000       0x22 rtthread.arm.lib(ipc.o)
 .text.rt_mq_urgent
                0x0000000000000000      0x170 rtthread.arm.lib(ipc.o)
 .text.rt_mq_recv
                0x0000000000000000      0x240 rtthread.arm.lib(ipc.o)
 .text.rt_mq_control
                0x0000000000000000       0xc8 rtthread.arm.lib(ipc.o)
 .text          0x0000000000000000        0x0 rtthread.arm.lib(device.o)
 .data          0x0000000000000000        0x0 rtthread.arm.lib(device.o)
 .bss           0x0000000000000000        0x0 rtthread.arm.lib(device.o)
 .text.rt_device_unregister
                0x0000000000000000       0x70 rtthread.arm.lib(device.o)
 .text.rt_device_create
                0x0000000000000000       0x50 rtthread.arm.lib(device.o)
 .text.rt_device_destroy
                0x0000000000000000       0x74 rtthread.arm.lib(device.o)
 .text.rt_device_init
                0x0000000000000000       0x8c rtthread.arm.lib(device.o)
 .text.rt_device_set_tx_complete
                0x0000000000000000       0x58 rtthread.arm.lib(device.o)
 .text          0x0000000000000000        0x0 rtthread.arm.lib(scheduler.o)
 .data          0x0000000000000000        0x0 rtthread.arm.lib(scheduler.o)
 .text.rt_scheduler_sethook
                0x0000000000000000       0x1c rtthread.arm.lib(scheduler.o)
 .text.rt_scheduler_switch_sethook
                0x0000000000000000       0x1c rtthread.arm.lib(scheduler.o)
 .text.rt_scheduler_do_irq_switch
                0x0000000000000000      0x1a0 rtthread.arm.lib(scheduler.o)
 .text.rt_critical_level
                0x0000000000000000       0x20 rtthread.arm.lib(scheduler.o)
 .text          0x0000000000000000        0x0 rtthread.arm.lib(thread.o)
 .data          0x0000000000000000        0x0 rtthread.arm.lib(thread.o)
 .text.rt_thread_suspend_sethook
                0x0000000000000000       0x1c rtthread.arm.lib(thread.o)
 .text.rt_thread_resume_sethook
                0x0000000000000000       0x1c rtthread.arm.lib(thread.o)
 .text.rt_thread_inited_sethook
                0x0000000000000000       0x1c rtthread.arm.lib(thread.o)
 .text.rt_thread_yield
                0x0000000000000000       0x46 rtthread.arm.lib(thread.o)
 .text.rt_thread_sleep
                0x0000000000000000       0xa4 rtthread.arm.lib(thread.o)
 .text.rt_thread_delay
                0x0000000000000000       0x1a rtthread.arm.lib(thread.o)
 .text.rt_thread_delay_until
                0x0000000000000000       0xfc rtthread.arm.lib(thread.o)
 .text.rt_thread_mdelay
                0x0000000000000000       0x26 rtthread.arm.lib(thread.o)
 .text          0x0000000000000000        0x0 rtthread.arm.lib(irq.o)
 .data          0x0000000000000000        0x0 rtthread.arm.lib(irq.o)
 .bss           0x0000000000000000        0x8 rtthread.arm.lib(irq.o)
 .text.rt_interrupt_enter_sethook
                0x0000000000000000       0x1c rtthread.arm.lib(irq.o)
 .text.rt_interrupt_leave_sethook
                0x0000000000000000       0x1c rtthread.arm.lib(irq.o)
 .text.rt_interrupt_enter
                0x0000000000000000       0x40 rtthread.arm.lib(irq.o)
 .text.rt_interrupt_leave
                0x0000000000000000       0x40 rtthread.arm.lib(irq.o)
 .text          0x0000000000000000        0x0 rtthread.arm.lib(cpuport.o)
 .data          0x0000000000000000        0x0 rtthread.arm.lib(cpuport.o)
 .bss           0x0000000000000000        0x0 rtthread.arm.lib(cpuport.o)
 .text.rt_hw_cpu_reset
                0x0000000000000000       0x18 rtthread.arm.lib(cpuport.o)
 .data          0x0000000000000000        0x0 rtthread.arm.lib(context_gcc.o)
 .bss           0x0000000000000000        0x0 rtthread.arm.lib(context_gcc.o)
 .text          0x0000000000000000        0x0 rtthread.arm.lib(serial.o)
 .data          0x0000000000000000        0x0 rtthread.arm.lib(serial.o)
 .text          0x0000000000000000        0x0 rtthread.arm.lib(shell.o)
 .data          0x0000000000000000        0x0 rtthread.arm.lib(shell.o)
 .text.finsh_set_prompt
                0x0000000000000000       0x64 rtthread.arm.lib(shell.o)
 .rodata        0x0000000000000000       0xc3 rtthread.arm.lib(shell.o)
 .text.finsh_get_prompt
                0x0000000000000000       0xa4 rtthread.arm.lib(shell.o)
 .text.finsh_get_prompt_mode
                0x0000000000000000       0x38 rtthread.arm.lib(shell.o)
 .text.finsh_set_prompt_mode
                0x0000000000000000       0x54 rtthread.arm.lib(shell.o)
 .text.finsh_set_echo
                0x0000000000000000       0x58 rtthread.arm.lib(shell.o)
 .text.finsh_get_echo
                0x0000000000000000       0x3c rtthread.arm.lib(shell.o)
 .text.shell_auto_complete
                0x0000000000000000       0x38 rtthread.arm.lib(shell.o)
 .text.shell_handle_history
                0x0000000000000000       0x38 rtthread.arm.lib(shell.o)
 .text.shell_push_history
                0x0000000000000000      0x166 rtthread.arm.lib(shell.o)
 .text.finsh_thread_entry
                0x0000000000000000      0x624 rtthread.arm.lib(shell.o)
 .text.finsh_system_function_init
                0x0000000000000000       0x28 rtthread.arm.lib(shell.o)
 .text.finsh_system_init
                0x0000000000000000       0xbc rtthread.arm.lib(shell.o)
 COMMON         0x0000000000000000        0x4 rtthread.arm.lib(shell.o)
 .text          0x0000000000000000        0x0 rtthread.arm.lib(msh.o)
 .data          0x0000000000000000        0x0 rtthread.arm.lib(msh.o)
 .bss           0x0000000000000000        0x0 rtthread.arm.lib(msh.o)
 .text.msh_split
                0x0000000000000000      0x178 rtthread.arm.lib(msh.o)
 .text.msh_get_cmd
                0x0000000000000000       0x60 rtthread.arm.lib(msh.o)
 .text._msh_exec_cmd
                0x0000000000000000       0xdc rtthread.arm.lib(msh.o)
 .text.msh_exec
                0x0000000000000000       0xa0 rtthread.arm.lib(msh.o)
 .text.str_common
                0x0000000000000000       0x46 rtthread.arm.lib(msh.o)
 .text.msh_auto_complete_path
                0x0000000000000000      0x260 rtthread.arm.lib(msh.o)
 .text.msh_auto_complete
                0x0000000000000000       0xf0 rtthread.arm.lib(msh.o)
 .text          0x0000000000000000        0x0 rtthread.arm.lib(cmd.o)
 .data          0x0000000000000000        0x0 rtthread.arm.lib(cmd.o)
 .bss           0x0000000000000000        0x0 rtthread.arm.lib(cmd.o)
 .text          0x0000000000000000        0x0 rtthread.arm.lib(ulog.o)
 .data          0x0000000000000000        0x0 rtthread.arm.lib(ulog.o)
 .text.rt_slist_init
                0x0000000000000000       0x16 rtthread.arm.lib(ulog.o)
 .text.rt_slist_append
                0x0000000000000000       0x32 rtthread.arm.lib(ulog.o)
 .text.rt_slist_remove
                0x0000000000000000       0x44 rtthread.arm.lib(ulog.o)
 .text.ulog_output_lock_enabled
                0x0000000000000000       0x1c rtthread.arm.lib(ulog.o)
 .text.ulog_raw
                0x0000000000000000       0x94 rtthread.arm.lib(ulog.o)
 .text.ulog_hexdump
                0x0000000000000000      0x318 rtthread.arm.lib(ulog.o)
 .text.ulog_backend_register
                0x0000000000000000       0xd8 rtthread.arm.lib(ulog.o)
 .text.ulog_backend_unregister
                0x0000000000000000       0x88 rtthread.arm.lib(ulog.o)
 .text.ulog_backend_set_filter
                0x0000000000000000       0x48 rtthread.arm.lib(ulog.o)
 .text.ulog_backend_find
                0x0000000000000000       0x8c rtthread.arm.lib(ulog.o)
 .text.ulog_flush
                0x0000000000000000       0x58 rtthread.arm.lib(ulog.o)
 .text.ulog_init
                0x0000000000000000       0x48 rtthread.arm.lib(ulog.o)
 .text.ulog_deinit
                0x0000000000000000       0x6c rtthread.arm.lib(ulog.o)
 .text          0x0000000000000000        0x0 rtthread.arm.lib(main.o)
 .data          0x0000000000000000        0x0 rtthread.arm.lib(main.o)
 .text.dec32    0x0000000000000000      0x688 rtthread.arm.lib(main.o)
 .text          0x0000000000000000        0x0 rtthread.arm.lib(pin_mux.o)
 .data          0x0000000000000000        0x0 rtthread.arm.lib(pin_mux.o)
 .bss           0x0000000000000000        0x0 rtthread.arm.lib(pin_mux.o)
 .text.BOARD_InitBootPins
                0x0000000000000000        0xa rtthread.arm.lib(pin_mux.o)
 .text          0x0000000000000000        0x0 rtthread.arm.lib(mem.o)
 .data          0x0000000000000000        0x0 rtthread.arm.lib(mem.o)
 .bss           0x0000000000000000        0x4 rtthread.arm.lib(mem.o)
 .text.rt_smem_detach
                0x0000000000000000       0x78 rtthread.arm.lib(mem.o)
 COMMON         0x0000000000000000       0x30 rtthread.arm.lib(mem.o)
 .text          0x0000000000000000        0x0 rtthread.arm.lib(dfs_posix.o)
 .data          0x0000000000000000        0x0 rtthread.arm.lib(dfs_posix.o)
 .bss           0x0000000000000000        0x0 rtthread.arm.lib(dfs_posix.o)
 .text.creat    0x0000000000000000       0x24 rtthread.arm.lib(dfs_posix.o)
 .text.fstat    0x0000000000000000       0x8c rtthread.arm.lib(dfs_posix.o)
 .text.fsync    0x0000000000000000       0x48 rtthread.arm.lib(dfs_posix.o)
 .text.fcntl    0x0000000000000000       0x76 rtthread.arm.lib(dfs_posix.o)
 .text.ioctl    0x0000000000000000       0x36 rtthread.arm.lib(dfs_posix.o)
 .text.ftruncate
                0x0000000000000000       0x88 rtthread.arm.lib(dfs_posix.o)
 .text.statfs   0x0000000000000000       0x38 rtthread.arm.lib(dfs_posix.o)
 .text.rmdir    0x0000000000000000       0x32 rtthread.arm.lib(dfs_posix.o)
 .text.telldir  0x0000000000000000       0x56 rtthread.arm.lib(dfs_posix.o)
 .text.seekdir  0x0000000000000000       0x62 rtthread.arm.lib(dfs_posix.o)
 .text.rewinddir
                0x0000000000000000       0x5e rtthread.arm.lib(dfs_posix.o)
 .text.access   0x0000000000000000       0x2c rtthread.arm.lib(dfs_posix.o)
 .text.getcwd   0x0000000000000000       0x2c rtthread.arm.lib(dfs_posix.o)
 .text          0x0000000000000000        0x0 rtthread.arm.lib(dfs_fs.o)
 .data          0x0000000000000000        0x0 rtthread.arm.lib(dfs_fs.o)
 .bss           0x0000000000000000        0x0 rtthread.arm.lib(dfs_fs.o)
 .text.dfs_register
                0x0000000000000000       0xbc rtthread.arm.lib(dfs_fs.o)
 .text.dfs_filesystem_get_mounted_path
                0x0000000000000000       0x58 rtthread.arm.lib(dfs_fs.o)
 .text.dfs_filesystem_get_partition
                0x0000000000000000      0x15c rtthread.arm.lib(dfs_fs.o)
 .text.mkfs     0x0000000000000000       0x1e rtthread.arm.lib(dfs_fs.o)
 .text          0x0000000000000000        0x0 rtthread.arm.lib(dfs.o)
 .bss           0x0000000000000000        0x4 rtthread.arm.lib(dfs.o)
 .text.dfs_init
                0x0000000000000000       0xa8 rtthread.arm.lib(dfs.o)
 .text          0x0000000000000000        0x0 rtthread.arm.lib(dfs_file.o)
 .data          0x0000000000000000        0x0 rtthread.arm.lib(dfs_file.o)
 .text.dfs_file_ioctl
                0x0000000000000000       0x90 rtthread.arm.lib(dfs_file.o)
 .text.dfs_file_flush
                0x0000000000000000       0x3a rtthread.arm.lib(dfs_file.o)
 .text.dfs_file_ftruncate
                0x0000000000000000       0x64 rtthread.arm.lib(dfs_file.o)
 .text.rm       0x0000000000000000       0x2c rtthread.arm.lib(dfs_file.o)
 .text          0x0000000000000000        0x0 rtthread.arm.lib(devfs.o)
 .data          0x0000000000000000        0x0 rtthread.arm.lib(devfs.o)
 .bss           0x0000000000000000        0x0 rtthread.arm.lib(devfs.o)
 .text.dfs_device_fs_mount
                0x0000000000000000       0x16 rtthread.arm.lib(devfs.o)
 .rodata        0x0000000000000000      0x163 rtthread.arm.lib(devfs.o)
 .text.dfs_device_fs_ioctl
                0x0000000000000000       0x68 rtthread.arm.lib(devfs.o)
 .text.dfs_device_fs_read
                0x0000000000000000       0x6c rtthread.arm.lib(devfs.o)
 .text.dfs_device_fs_write
                0x0000000000000000       0x6c rtthread.arm.lib(devfs.o)
 .text.dfs_device_fs_close
                0x0000000000000000       0x98 rtthread.arm.lib(devfs.o)
 .text.dfs_device_fs_open
                0x0000000000000000      0x1ac rtthread.arm.lib(devfs.o)
 .text.dfs_device_fs_stat
                0x0000000000000000       0xfc rtthread.arm.lib(devfs.o)
 .text.dfs_device_fs_getdents
                0x0000000000000000       0xe0 rtthread.arm.lib(devfs.o)
 .text.dfs_device_fs_poll
                0x0000000000000000       0x18 rtthread.arm.lib(devfs.o)
 .text.devfs_init
                0x0000000000000000       0x18 rtthread.arm.lib(devfs.o)
 .debug_info    0x0000000000000000     0x1c1b rtthread.arm.lib(devfs.o)
 .debug_abbrev  0x0000000000000000      0x2e3 rtthread.arm.lib(devfs.o)
 .debug_loc     0x0000000000000000      0x224 rtthread.arm.lib(devfs.o)
 .debug_aranges
                0x0000000000000000       0x68 rtthread.arm.lib(devfs.o)
 .debug_ranges  0x0000000000000000       0x58 rtthread.arm.lib(devfs.o)
 .debug_line    0x0000000000000000      0x7f0 rtthread.arm.lib(devfs.o)
 .debug_str     0x0000000000000000      0xfdd rtthread.arm.lib(devfs.o)
 .comment       0x0000000000000000       0x4d rtthread.arm.lib(devfs.o)
 .debug_frame   0x0000000000000000      0x14c rtthread.arm.lib(devfs.o)
 .ARM.attributes
                0x0000000000000000       0x2c rtthread.arm.lib(devfs.o)
 .text          0x0000000000000000        0x0 rtthread.arm.lib(completion.o)
 .data          0x0000000000000000        0x0 rtthread.arm.lib(completion.o)
 .bss           0x0000000000000000        0x0 rtthread.arm.lib(completion.o)
 .text          0x0000000000000000        0x0 rtthread.arm.lib(waitqueue.o)
 .data          0x0000000000000000        0x0 rtthread.arm.lib(waitqueue.o)
 .bss           0x0000000000000000        0x0 rtthread.arm.lib(waitqueue.o)
 .text          0x0000000000000000        0x0 rtthread.arm.lib(msh_file.o)
 .data          0x0000000000000000        0x0 rtthread.arm.lib(msh_file.o)
 .bss           0x0000000000000000        0x0 rtthread.arm.lib(msh_file.o)
 .text.msh_readline
                0x0000000000000000       0xb4 rtthread.arm.lib(msh_file.o)
 .text.msh_exec_script
                0x0000000000000000      0x1a4 rtthread.arm.lib(msh_file.o)
 .text          0x0000000000000000        0x0 rtthread.arm.lib(delay.o)
 .data          0x0000000000000000        0x0 rtthread.arm.lib(delay.o)
 .bss           0x0000000000000000        0x0 rtthread.arm.lib(delay.o)
 .text.msleep   0x0000000000000000       0x18 rtthread.arm.lib(delay.o)
 .text.ssleep   0x0000000000000000       0x24 rtthread.arm.lib(delay.o)
 .text.udelay   0x0000000000000000       0x18 rtthread.arm.lib(delay.o)
 .text.ndelay   0x0000000000000000       0x16 rtthread.arm.lib(delay.o)
 .text.sleep    0x0000000000000000       0x3c rtthread.arm.lib(delay.o)
 .text.usleep   0x0000000000000000       0x58 rtthread.arm.lib(delay.o)
 .text          0x0000000000000000        0x0 rtthread.arm.lib(libc.o)
 .data          0x0000000000000000        0x0 rtthread.arm.lib(libc.o)
 .text.libc_system_init
                0x0000000000000000       0x28 rtthread.arm.lib(libc.o)
 .rodata        0x0000000000000000       0x13 rtthread.arm.lib(libc.o)
 .text.libc_stdio_set_console
                0x0000000000000000      0x104 rtthread.arm.lib(libc.o)
 .text.isatty   0x0000000000000000       0x32 rtthread.arm.lib(libc.o)
 .text          0x0000000000000000        0x0 rtthread.arm.lib(semaphore.o)
 .data          0x0000000000000000        0x0 rtthread.arm.lib(semaphore.o)
 .text.posix_sem_system_init
                0x0000000000000000       0x20 rtthread.arm.lib(semaphore.o)
 .text.posix_sem_delete
                0x0000000000000000       0x84 rtthread.arm.lib(semaphore.o)
 .text.posix_sem_find
                0x0000000000000000       0x44 rtthread.arm.lib(semaphore.o)
 .text.sem_close
                0x0000000000000000       0x68 rtthread.arm.lib(semaphore.o)
 .text.sem_destroy
                0x0000000000000000       0x78 rtthread.arm.lib(semaphore.o)
 .text.sem_unlink
                0x0000000000000000       0x68 rtthread.arm.lib(semaphore.o)
 .text.sem_getvalue
                0x0000000000000000       0x38 rtthread.arm.lib(semaphore.o)
 .text.sem_open
                0x0000000000000000      0x124 rtthread.arm.lib(semaphore.o)
 .text.sem_timedwait
                0x0000000000000000       0x66 rtthread.arm.lib(semaphore.o)
 .text.sem_trywait
                0x0000000000000000       0x58 rtthread.arm.lib(semaphore.o)
 .text          0x0000000000000000        0x0 rtthread.arm.lib(pthread.o)
 .data          0x0000000000000000        0x0 rtthread.arm.lib(pthread.o)
 .text.pthread_detach
                0x0000000000000000       0x7a rtthread.arm.lib(pthread.o)
 .text.pthread_self
                0x0000000000000000       0x54 rtthread.arm.lib(pthread.o)
 .text.pthread_getcpuclockid
                0x0000000000000000       0x2e rtthread.arm.lib(pthread.o)
 .text.pthread_getconcurrency
                0x0000000000000000       0x14 rtthread.arm.lib(pthread.o)
 .text.pthread_setconcurrency
                0x0000000000000000       0x1c rtthread.arm.lib(pthread.o)
 .text.pthread_getschedparam
                0x0000000000000000       0x3e rtthread.arm.lib(pthread.o)
 .text.pthread_setschedparam
                0x0000000000000000       0x3e rtthread.arm.lib(pthread.o)
 .text.pthread_setschedprio
                0x0000000000000000       0x34 rtthread.arm.lib(pthread.o)
 .text.pthread_exit
                0x0000000000000000       0x94 rtthread.arm.lib(pthread.o)
 .text.pthread_once
                0x0000000000000000       0x68 rtthread.arm.lib(pthread.o)
 .text.pthread_atfork
                0x0000000000000000       0x16 rtthread.arm.lib(pthread.o)
 .text.pthread_kill
                0x0000000000000000       0x14 rtthread.arm.lib(pthread.o)
 .text.pthread_cleanup_pop
                0x0000000000000000       0x7c rtthread.arm.lib(pthread.o)
 .text.pthread_cleanup_push
                0x0000000000000000       0x78 rtthread.arm.lib(pthread.o)
 .text.pthread_setcancelstate
                0x0000000000000000       0x74 rtthread.arm.lib(pthread.o)
 .text.pthread_setcanceltype
                0x0000000000000000       0x74 rtthread.arm.lib(pthread.o)
 .text.pthread_testcancel
                0x0000000000000000       0x64 rtthread.arm.lib(pthread.o)
 .text.pthread_cancel
                0x0000000000000000       0xae rtthread.arm.lib(pthread.o)
 .text          0x0000000000000000        0x0 rtthread.arm.lib(pthread_tls.o)
 .data          0x0000000000000000        0x0 rtthread.arm.lib(pthread_tls.o)
 .bss           0x0000000000000000        0x0 rtthread.arm.lib(pthread_tls.o)
 .text.pthread_key_system_init
                0x0000000000000000       0x1c rtthread.arm.lib(pthread_tls.o)
 .rodata        0x0000000000000000       0x34 rtthread.arm.lib(pthread_tls.o)
 .text.pthread_getspecific
                0x0000000000000000       0x74 rtthread.arm.lib(pthread_tls.o)
 .text.pthread_setspecific
                0x0000000000000000       0x80 rtthread.arm.lib(pthread_tls.o)
 .text.pthread_key_create
                0x0000000000000000       0x64 rtthread.arm.lib(pthread_tls.o)
 .text.pthread_key_delete
                0x0000000000000000       0x40 rtthread.arm.lib(pthread_tls.o)
 .text          0x0000000000000000        0x0 rtthread.arm.lib(console_be.o)
 .data          0x0000000000000000        0x0 rtthread.arm.lib(console_be.o)
 .bss           0x0000000000000000       0x28 rtthread.arm.lib(console_be.o)
 .rodata        0x0000000000000000        0x8 rtthread.arm.lib(console_be.o)
 .text.ulog_console_backend_init
                0x0000000000000000       0x30 rtthread.arm.lib(console_be.o)
 .text          0x0000000000000000        0x0 rtthread.arm.lib(time.o)
 .data          0x0000000000000000        0x9 rtthread.arm.lib(time.o)
 .bss           0x0000000000000000       0x62 rtthread.arm.lib(time.o)
 .rodata        0x0000000000000000      0x100 rtthread.arm.lib(time.o)
 .text.__isleap
                0x0000000000000000       0x3c rtthread.arm.lib(time.o)
 .text.num2str  0x0000000000000000       0x40 rtthread.arm.lib(time.o)
 .text.get_timeval
                0x0000000000000000       0x28 rtthread.arm.lib(time.o)
 .text.set_timeval
                0x0000000000000000       0x28 rtthread.arm.lib(time.o)
 .text.gmtime_r
                0x0000000000000000      0x1e0 rtthread.arm.lib(time.o)
 .text.gmtime   0x0000000000000000       0x24 rtthread.arm.lib(time.o)
 .text.localtime_r
                0x0000000000000000       0x54 rtthread.arm.lib(time.o)
 .text.localtime
                0x0000000000000000       0x24 rtthread.arm.lib(time.o)
 .text.mktime   0x0000000000000000       0xc2 rtthread.arm.lib(time.o)
 .text.asctime_r
                0x0000000000000000      0x214 rtthread.arm.lib(time.o)
 .text.asctime  0x0000000000000000       0x24 rtthread.arm.lib(time.o)
 .text.ctime_r  0x0000000000000000       0x2e rtthread.arm.lib(time.o)
 .text.ctime    0x0000000000000000       0x22 rtthread.arm.lib(time.o)
 .text.difftime
                0x0000000000000000       0x34 rtthread.arm.lib(time.o)
 .text.time     0x0000000000000000       0x48 rtthread.arm.lib(time.o)
 .text.clock    0x0000000000000000       0x10 rtthread.arm.lib(time.o)
 .text.stime    0x0000000000000000       0x4a rtthread.arm.lib(time.o)
 .text.timegm   0x0000000000000000      0x3b4 rtthread.arm.lib(time.o)
 .text.gettimeofday
                0x0000000000000000       0x54 rtthread.arm.lib(time.o)
 .text.settimeofday
                0x0000000000000000       0x3a rtthread.arm.lib(time.o)
 .text.nanosleep
                0x0000000000000000       0x2c rtthread.arm.lib(time.o)
 .text.clock_getres
                0x0000000000000000       0x2c rtthread.arm.lib(time.o)
 .text.clock_gettime
                0x0000000000000000       0x2c rtthread.arm.lib(time.o)
 .text.clock_nanosleep
                0x0000000000000000       0x3c rtthread.arm.lib(time.o)
 .text.clock_settime
                0x0000000000000000       0x2c rtthread.arm.lib(time.o)
 .text.rt_timespec_to_tick
                0x0000000000000000       0xdc rtthread.arm.lib(time.o)
 .text.tz_set   0x0000000000000000       0x30 rtthread.arm.lib(time.o)
 .text.tz_get   0x0000000000000000       0x14 rtthread.arm.lib(time.o)
 .text.tz_is_dst
                0x0000000000000000        0xc rtthread.arm.lib(time.o)
 .debug_info    0x0000000000000000     0x1560 rtthread.arm.lib(time.o)
 .debug_abbrev  0x0000000000000000      0x34b rtthread.arm.lib(time.o)
 .debug_loc     0x0000000000000000      0x638 rtthread.arm.lib(time.o)
 .debug_aranges
                0x0000000000000000      0x100 rtthread.arm.lib(time.o)
 .debug_ranges  0x0000000000000000      0x108 rtthread.arm.lib(time.o)
 .debug_line    0x0000000000000000      0xa9c rtthread.arm.lib(time.o)
 .debug_str     0x0000000000000000      0x985 rtthread.arm.lib(time.o)
 .comment       0x0000000000000000       0x4d rtthread.arm.lib(time.o)
 .debug_frame   0x0000000000000000      0x3b4 rtthread.arm.lib(time.o)
 .ARM.attributes
                0x0000000000000000       0x2c rtthread.arm.lib(time.o)
 .text          0x0000000000000000        0x0 rtthread.arm.lib(pthread_attr.o)
 .data          0x0000000000000000        0x0 rtthread.arm.lib(pthread_attr.o)
 .bss           0x0000000000000000        0x0 rtthread.arm.lib(pthread_attr.o)
 .text.pthread_attr_destroy
                0x0000000000000000       0x38 rtthread.arm.lib(pthread_attr.o)
 .text.pthread_attr_setdetachstate
                0x0000000000000000       0x44 rtthread.arm.lib(pthread_attr.o)
 .text.pthread_attr_getdetachstate
                0x0000000000000000       0x38 rtthread.arm.lib(pthread_attr.o)
 .text.pthread_attr_setschedpolicy
                0x0000000000000000       0x34 rtthread.arm.lib(pthread_attr.o)
 .text.pthread_attr_getschedpolicy
                0x0000000000000000       0x38 rtthread.arm.lib(pthread_attr.o)
 .text.pthread_attr_setschedparam
                0x0000000000000000       0x4c rtthread.arm.lib(pthread_attr.o)
 .text.pthread_attr_getschedparam
                0x0000000000000000       0x4c rtthread.arm.lib(pthread_attr.o)
 .text.pthread_attr_setstacksize
                0x0000000000000000       0x34 rtthread.arm.lib(pthread_attr.o)
 .text.pthread_attr_getstacksize
                0x0000000000000000       0x38 rtthread.arm.lib(pthread_attr.o)
 .text.pthread_attr_setstackaddr
                0x0000000000000000       0x30 rtthread.arm.lib(pthread_attr.o)
 .text.pthread_attr_getstackaddr
                0x0000000000000000       0x30 rtthread.arm.lib(pthread_attr.o)
 .text.pthread_attr_setstack
                0x0000000000000000       0x44 rtthread.arm.lib(pthread_attr.o)
 .text.pthread_attr_getstack
                0x0000000000000000       0x44 rtthread.arm.lib(pthread_attr.o)
 .text.pthread_attr_setguardsize
                0x0000000000000000       0x14 rtthread.arm.lib(pthread_attr.o)
 .text.pthread_attr_getguardsize
                0x0000000000000000       0x14 rtthread.arm.lib(pthread_attr.o)
 .text.pthread_attr_setinheritsched
                0x0000000000000000       0x34 rtthread.arm.lib(pthread_attr.o)
 .text.pthread_attr_getinheritsched
                0x0000000000000000       0x38 rtthread.arm.lib(pthread_attr.o)
 .text.pthread_attr_setscope
                0x0000000000000000       0x28 rtthread.arm.lib(pthread_attr.o)
 .text.pthread_attr_getscope
                0x0000000000000000       0x14 rtthread.arm.lib(pthread_attr.o)
 .text          0x0000000000000000        0x0 build/arm/libc.a(lib_a-atoi.o)
 .data          0x0000000000000000        0x0 build/arm/libc.a(lib_a-atoi.o)
 .bss           0x0000000000000000        0x0 build/arm/libc.a(lib_a-atoi.o)
 .text._atoi_r  0x0000000000000000        0xc build/arm/libc.a(lib_a-atoi.o)
 .text          0x0000000000000000        0x0 build/arm/libc.a(lib_a-fclose.o)
 .data          0x0000000000000000        0x0 build/arm/libc.a(lib_a-fclose.o)
 .bss           0x0000000000000000        0x0 build/arm/libc.a(lib_a-fclose.o)
 .text.fclose   0x0000000000000000       0x14 build/arm/libc.a(lib_a-fclose.o)
 .text          0x0000000000000000        0x0 build/arm/libc.a(lib_a-fflush.o)
 .data          0x0000000000000000        0x0 build/arm/libc.a(lib_a-fflush.o)
 .bss           0x0000000000000000        0x0 build/arm/libc.a(lib_a-fflush.o)
 .text._fflush_r
                0x0000000000000000       0x6c build/arm/libc.a(lib_a-fflush.o)
 .text.fflush   0x0000000000000000       0x2c build/arm/libc.a(lib_a-fflush.o)
 .text          0x0000000000000000        0x0 build/arm/libc.a(lib_a-fileno.o)
 .data          0x0000000000000000        0x0 build/arm/libc.a(lib_a-fileno.o)
 .bss           0x0000000000000000        0x0 build/arm/libc.a(lib_a-fileno.o)
 .text          0x0000000000000000        0x0 build/arm/libc.a(lib_a-findfp.o)
 .data          0x0000000000000000        0x0 build/arm/libc.a(lib_a-findfp.o)
 .bss           0x0000000000000000        0x0 build/arm/libc.a(lib_a-findfp.o)
 .text.__fp_lock
                0x0000000000000000       0x1c build/arm/libc.a(lib_a-findfp.o)
 .text.__fp_unlock
                0x0000000000000000       0x1c build/arm/libc.a(lib_a-findfp.o)
 .text.__sfmoreglue
                0x0000000000000000       0x30 build/arm/libc.a(lib_a-findfp.o)
 .text._cleanup
                0x0000000000000000       0x18 build/arm/libc.a(lib_a-findfp.o)
 .text.__sfp    0x0000000000000000       0xb0 build/arm/libc.a(lib_a-findfp.o)
 .text.__sinit_lock_acquire
                0x0000000000000000       0x10 build/arm/libc.a(lib_a-findfp.o)
 .text.__sinit_lock_release
                0x0000000000000000       0x10 build/arm/libc.a(lib_a-findfp.o)
 .text.__fp_lock_all
                0x0000000000000000       0x20 build/arm/libc.a(lib_a-findfp.o)
 .text.__fp_unlock_all
                0x0000000000000000       0x20 build/arm/libc.a(lib_a-findfp.o)
 .text          0x0000000000000000        0x0 build/arm/libc.a(lib_a-fopen.o)
 .data          0x0000000000000000        0x0 build/arm/libc.a(lib_a-fopen.o)
 .bss           0x0000000000000000        0x0 build/arm/libc.a(lib_a-fopen.o)
 .text._fopen_r
                0x0000000000000000       0xb4 build/arm/libc.a(lib_a-fopen.o)
 .text.fopen    0x0000000000000000       0x18 build/arm/libc.a(lib_a-fopen.o)
 .debug_frame   0x0000000000000000       0x48 build/arm/libc.a(lib_a-fopen.o)
 .ARM.attributes
                0x0000000000000000       0x2c build/arm/libc.a(lib_a-fopen.o)
 .text          0x0000000000000000        0x0 build/arm/libc.a(lib_a-fseek.o)
 .data          0x0000000000000000        0x0 build/arm/libc.a(lib_a-fseek.o)
 .bss           0x0000000000000000        0x0 build/arm/libc.a(lib_a-fseek.o)
 .text._fseek_r
                0x0000000000000000        0x8 build/arm/libc.a(lib_a-fseek.o)
 .text.fseek    0x0000000000000000       0x18 build/arm/libc.a(lib_a-fseek.o)
 .debug_frame   0x0000000000000000       0x40 build/arm/libc.a(lib_a-fseek.o)
 .ARM.attributes
                0x0000000000000000       0x2c build/arm/libc.a(lib_a-fseek.o)
 .text          0x0000000000000000        0x0 build/arm/libc.a(lib_a-fseeko.o)
 .data          0x0000000000000000        0x0 build/arm/libc.a(lib_a-fseeko.o)
 .bss           0x0000000000000000        0x0 build/arm/libc.a(lib_a-fseeko.o)
 .text._fseeko_r
                0x0000000000000000      0x2f0 build/arm/libc.a(lib_a-fseeko.o)
 .text.fseeko   0x0000000000000000       0x18 build/arm/libc.a(lib_a-fseeko.o)
 .debug_frame   0x0000000000000000       0x54 build/arm/libc.a(lib_a-fseeko.o)
 .ARM.attributes
                0x0000000000000000       0x2c build/arm/libc.a(lib_a-fseeko.o)
 .text          0x0000000000000000        0x0 build/arm/libc.a(lib_a-fstatr.o)
 .data          0x0000000000000000        0x0 build/arm/libc.a(lib_a-fstatr.o)
 .bss           0x0000000000000000        0x0 build/arm/libc.a(lib_a-fstatr.o)
 .text._fstat_r
                0x0000000000000000       0x28 build/arm/libc.a(lib_a-fstatr.o)
 .debug_frame   0x0000000000000000       0x2c build/arm/libc.a(lib_a-fstatr.o)
 .ARM.attributes
                0x0000000000000000       0x2c build/arm/libc.a(lib_a-fstatr.o)
 .text          0x0000000000000000        0x0 build/arm/libc.a(lib_a-ftello.o)
 .data          0x0000000000000000        0x0 build/arm/libc.a(lib_a-ftello.o)
 .bss           0x0000000000000000        0x0 build/arm/libc.a(lib_a-ftello.o)
 .text._ftello_r
                0x0000000000000000       0xd0 build/arm/libc.a(lib_a-ftello.o)
 .text.ftello   0x0000000000000000       0x14 build/arm/libc.a(lib_a-ftello.o)
 .debug_frame   0x0000000000000000       0x44 build/arm/libc.a(lib_a-ftello.o)
 .ARM.attributes
                0x0000000000000000       0x2c build/arm/libc.a(lib_a-ftello.o)
 .text          0x0000000000000000        0x0 build/arm/libc.a(lib_a-fwalk.o)
 .data          0x0000000000000000        0x0 build/arm/libc.a(lib_a-fwalk.o)
 .bss           0x0000000000000000        0x0 build/arm/libc.a(lib_a-fwalk.o)
 .text._fwalk   0x0000000000000000       0x40 build/arm/libc.a(lib_a-fwalk.o)
 .text          0x0000000000000000        0x0 build/arm/libc.a(lib_a-impure.o)
 .data          0x0000000000000000        0x0 build/arm/libc.a(lib_a-impure.o)
 .bss           0x0000000000000000        0x0 build/arm/libc.a(lib_a-impure.o)
 .rodata._global_impure_ptr
                0x0000000000000000        0x4 build/arm/libc.a(lib_a-impure.o)
 .text          0x0000000000000000        0x0 build/arm/libc.a(lib_a-lock.o)
 .data          0x0000000000000000        0x0 build/arm/libc.a(lib_a-lock.o)
 .bss           0x0000000000000000        0x0 build/arm/libc.a(lib_a-lock.o)
 .text.__retarget_lock_init
                0x0000000000000000        0x4 build/arm/libc.a(lib_a-lock.o)
 .text.__retarget_lock_close
                0x0000000000000000        0x4 build/arm/libc.a(lib_a-lock.o)
 .text.__retarget_lock_acquire
                0x0000000000000000        0x4 build/arm/libc.a(lib_a-lock.o)
 .text.__retarget_lock_try_acquire
                0x0000000000000000        0x4 build/arm/libc.a(lib_a-lock.o)
 .text.__retarget_lock_try_acquire_recursive
                0x0000000000000000        0x4 build/arm/libc.a(lib_a-lock.o)
 .text.__retarget_lock_release
                0x0000000000000000        0x4 build/arm/libc.a(lib_a-lock.o)
 .text          0x0000000000000000        0x0 build/arm/libc.a(lib_a-makebuf.o)
 .data          0x0000000000000000        0x0 build/arm/libc.a(lib_a-makebuf.o)
 .bss           0x0000000000000000        0x0 build/arm/libc.a(lib_a-makebuf.o)
 .text.__swhatbuf_r
                0x0000000000000000       0x60 build/arm/libc.a(lib_a-makebuf.o)
 .text.__smakebuf_r
                0x0000000000000000       0x90 build/arm/libc.a(lib_a-makebuf.o)
 .debug_frame   0x0000000000000000       0x50 build/arm/libc.a(lib_a-makebuf.o)
 .ARM.attributes
                0x0000000000000000       0x2c build/arm/libc.a(lib_a-makebuf.o)
 .text          0x0000000000000000        0x0 build/arm/libc.a(lib_a-memcmp.o)
 .data          0x0000000000000000        0x0 build/arm/libc.a(lib_a-memcmp.o)
 .bss           0x0000000000000000        0x0 build/arm/libc.a(lib_a-memcmp.o)
 .text.memcmp   0x0000000000000000       0x48 build/arm/libc.a(lib_a-memcmp.o)
 .debug_frame   0x0000000000000000       0x2c build/arm/libc.a(lib_a-memcmp.o)
 .ARM.attributes
                0x0000000000000000       0x2c build/arm/libc.a(lib_a-memcmp.o)
 .text          0x0000000000000000        0x0 build/arm/libc.a(lib_a-memcpy-stub.o)
 .data          0x0000000000000000        0x0 build/arm/libc.a(lib_a-memcpy-stub.o)
 .bss           0x0000000000000000        0x0 build/arm/libc.a(lib_a-memcpy-stub.o)
 .text.memcpy   0x0000000000000000       0xa4 build/arm/libc.a(lib_a-memcpy-stub.o)
 .debug_frame   0x0000000000000000       0x34 build/arm/libc.a(lib_a-memcpy-stub.o)
 .ARM.attributes
                0x0000000000000000       0x2c build/arm/libc.a(lib_a-memcpy-stub.o)
 .text          0x0000000000000000        0x0 build/arm/libc.a(lib_a-memset.o)
 .data          0x0000000000000000        0x0 build/arm/libc.a(lib_a-memset.o)
 .bss           0x0000000000000000        0x0 build/arm/libc.a(lib_a-memset.o)
 .text          0x0000000000000000        0x0 build/arm/libc.a(lib_a-reent.o)
 .data          0x0000000000000000        0x0 build/arm/libc.a(lib_a-reent.o)
 .bss           0x0000000000000000        0x0 build/arm/libc.a(lib_a-reent.o)
 .text.cleanup_glue
                0x0000000000000000       0x1c build/arm/libc.a(lib_a-reent.o)
 .text._reclaim_reent
                0x0000000000000000       0x94 build/arm/libc.a(lib_a-reent.o)
 .text          0x0000000000000000        0x0 build/arm/libc.a(lib_a-refill.o)
 .data          0x0000000000000000        0x0 build/arm/libc.a(lib_a-refill.o)
 .bss           0x0000000000000000        0x0 build/arm/libc.a(lib_a-refill.o)
 .text.lflush   0x0000000000000000       0x1c build/arm/libc.a(lib_a-refill.o)
 .text.__srefill_r
                0x0000000000000000      0x124 build/arm/libc.a(lib_a-refill.o)
 .debug_frame   0x0000000000000000       0x48 build/arm/libc.a(lib_a-refill.o)
 .ARM.attributes
                0x0000000000000000       0x2c build/arm/libc.a(lib_a-refill.o)
 .text          0x0000000000000000        0x0 build/arm/libc.a(lib_a-setvbuf.o)
 .data          0x0000000000000000        0x0 build/arm/libc.a(lib_a-setvbuf.o)
 .bss           0x0000000000000000        0x0 build/arm/libc.a(lib_a-setvbuf.o)
 .text.setvbuf  0x0000000000000000      0x1bc build/arm/libc.a(lib_a-setvbuf.o)
 .debug_frame   0x0000000000000000       0x38 build/arm/libc.a(lib_a-setvbuf.o)
 .ARM.attributes
                0x0000000000000000       0x2c build/arm/libc.a(lib_a-setvbuf.o)
 .text          0x0000000000000000        0x0 build/arm/libc.a(lib_a-snprintf.o)
 .data          0x0000000000000000        0x0 build/arm/libc.a(lib_a-snprintf.o)
 .bss           0x0000000000000000        0x0 build/arm/libc.a(lib_a-snprintf.o)
 .text._snprintf_r
                0x0000000000000000       0x7c build/arm/libc.a(lib_a-snprintf.o)
 .text.snprintf
                0x0000000000000000       0x84 build/arm/libc.a(lib_a-snprintf.o)
 .debug_frame   0x0000000000000000       0x50 build/arm/libc.a(lib_a-snprintf.o)
 .ARM.attributes
                0x0000000000000000       0x2c build/arm/libc.a(lib_a-snprintf.o)
 .text          0x0000000000000000        0x0 build/arm/libc.a(lib_a-stdio.o)
 .data          0x0000000000000000        0x0 build/arm/libc.a(lib_a-stdio.o)
 .bss           0x0000000000000000        0x0 build/arm/libc.a(lib_a-stdio.o)
 .text.__seofread
                0x0000000000000000        0x4 build/arm/libc.a(lib_a-stdio.o)
 .data          0x0000000000000000        0x0 build/arm/libc.a(lib_a-strcmp.o)
 .bss           0x0000000000000000        0x0 build/arm/libc.a(lib_a-strcmp.o)
 .text          0x0000000000000000        0x0 build/arm/libc.a(lib_a-strcpy.o)
 .data          0x0000000000000000        0x0 build/arm/libc.a(lib_a-strcpy.o)
 .bss           0x0000000000000000        0x0 build/arm/libc.a(lib_a-strcpy.o)
 .text.strcpy   0x0000000000000000       0x10 build/arm/libc.a(lib_a-strcpy.o)
 .debug_frame   0x0000000000000000       0x20 build/arm/libc.a(lib_a-strcpy.o)
 .ARM.attributes
                0x0000000000000000       0x2c build/arm/libc.a(lib_a-strcpy.o)
 .text          0x0000000000000000        0x0 build/arm/libc.a(lib_a-strlen-stub.o)
 .data          0x0000000000000000        0x0 build/arm/libc.a(lib_a-strlen-stub.o)
 .bss           0x0000000000000000        0x0 build/arm/libc.a(lib_a-strlen-stub.o)
 .text          0x0000000000000000        0x0 build/arm/libc.a(lib_a-strncmp.o)
 .data          0x0000000000000000        0x0 build/arm/libc.a(lib_a-strncmp.o)
 .bss           0x0000000000000000        0x0 build/arm/libc.a(lib_a-strncmp.o)
 .text          0x0000000000000000        0x0 build/arm/libc.a(lib_a-strncpy.o)
 .data          0x0000000000000000        0x0 build/arm/libc.a(lib_a-strncpy.o)
 .bss           0x0000000000000000        0x0 build/arm/libc.a(lib_a-strncpy.o)
 .text          0x0000000000000000        0x0 build/arm/libc.a(lib_a-strrchr.o)
 .data          0x0000000000000000        0x0 build/arm/libc.a(lib_a-strrchr.o)
 .bss           0x0000000000000000        0x0 build/arm/libc.a(lib_a-strrchr.o)
 .text          0x0000000000000000        0x0 build/arm/libc.a(lib_a-strstr.o)
 .data          0x0000000000000000        0x0 build/arm/libc.a(lib_a-strstr.o)
 .bss           0x0000000000000000        0x0 build/arm/libc.a(lib_a-strstr.o)
 .text.two_way_long_needle
                0x0000000000000000      0x288 build/arm/libc.a(lib_a-strstr.o)
 .text.strstr   0x0000000000000000      0x178 build/arm/libc.a(lib_a-strstr.o)
 .debug_frame   0x0000000000000000       0x64 build/arm/libc.a(lib_a-strstr.o)
 .ARM.attributes
                0x0000000000000000       0x2c build/arm/libc.a(lib_a-strstr.o)
 .text          0x0000000000000000        0x0 build/arm/libc.a(lib_a-strtol.o)
 .data          0x0000000000000000        0x0 build/arm/libc.a(lib_a-strtol.o)
 .bss           0x0000000000000000        0x0 build/arm/libc.a(lib_a-strtol.o)
 .text._strtol_r
                0x0000000000000000        0x8 build/arm/libc.a(lib_a-strtol.o)
 .text.strtol_l
                0x0000000000000000       0x18 build/arm/libc.a(lib_a-strtol.o)
 .text          0x0000000000000000        0x0 build/arm/libc.a(lib_a-svfprintf.o)
 .data          0x0000000000000000        0x0 build/arm/libc.a(lib_a-svfprintf.o)
 .bss           0x0000000000000000        0x0 build/arm/libc.a(lib_a-svfprintf.o)
 .rodata._svfprintf_r.str1.4
                0x0000000000000000       0x42 build/arm/libc.a(lib_a-svfprintf.o)
 .text._svfprintf_r
                0x0000000000000000     0x1c08 build/arm/libc.a(lib_a-svfprintf.o)
 .rodata._svfprintf_r
                0x0000000000000000      0x16c build/arm/libc.a(lib_a-svfprintf.o)
 .rodata.blanks.7335
                0x0000000000000000       0x10 build/arm/libc.a(lib_a-svfprintf.o)
 .rodata.zeroes.7336
                0x0000000000000000       0x10 build/arm/libc.a(lib_a-svfprintf.o)
 .debug_frame   0x0000000000000000       0x3c build/arm/libc.a(lib_a-svfprintf.o)
 .ARM.attributes
                0x0000000000000000       0x2c build/arm/libc.a(lib_a-svfprintf.o)
 .text          0x0000000000000000        0x0 build/arm/libc.a(lib_a-closer.o)
 .data          0x0000000000000000        0x0 build/arm/libc.a(lib_a-closer.o)
 .bss           0x0000000000000000        0x0 build/arm/libc.a(lib_a-closer.o)
 .text          0x0000000000000000        0x0 build/arm/libc.a(lib_a-ctype_.o)
 .data          0x0000000000000000        0x0 build/arm/libc.a(lib_a-ctype_.o)
 .bss           0x0000000000000000        0x0 build/arm/libc.a(lib_a-ctype_.o)
 .text          0x0000000000000000        0x0 build/arm/libc.a(lib_a-dtoa.o)
 .data          0x0000000000000000        0x0 build/arm/libc.a(lib_a-dtoa.o)
 .bss           0x0000000000000000        0x0 build/arm/libc.a(lib_a-dtoa.o)
 .text.quorem   0x0000000000000000      0x148 build/arm/libc.a(lib_a-dtoa.o)
 .rodata._dtoa_r.str1.4
                0x0000000000000000       0xa4 build/arm/libc.a(lib_a-dtoa.o)
 .text._dtoa_r  0x0000000000000000      0xfe0 build/arm/libc.a(lib_a-dtoa.o)
 .debug_frame   0x0000000000000000       0x68 build/arm/libc.a(lib_a-dtoa.o)
 .ARM.attributes
                0x0000000000000000       0x2c build/arm/libc.a(lib_a-dtoa.o)
 .text          0x0000000000000000        0x0 build/arm/libc.a(lib_a-errno.o)
 .data          0x0000000000000000        0x0 build/arm/libc.a(lib_a-errno.o)
 .bss           0x0000000000000000        0x0 build/arm/libc.a(lib_a-errno.o)
 .text          0x0000000000000000        0x0 build/arm/libc.a(lib_a-flags.o)
 .data          0x0000000000000000        0x0 build/arm/libc.a(lib_a-flags.o)
 .bss           0x0000000000000000        0x0 build/arm/libc.a(lib_a-flags.o)
 .text.__sflags
                0x0000000000000000       0xa0 build/arm/libc.a(lib_a-flags.o)
 .debug_frame   0x0000000000000000       0x38 build/arm/libc.a(lib_a-flags.o)
 .ARM.attributes
                0x0000000000000000       0x2c build/arm/libc.a(lib_a-flags.o)
 .text          0x0000000000000000        0x0 build/arm/libc.a(lib_a-isattyr.o)
 .data          0x0000000000000000        0x0 build/arm/libc.a(lib_a-isattyr.o)
 .bss           0x0000000000000000        0x0 build/arm/libc.a(lib_a-isattyr.o)
 .text._isatty_r
                0x0000000000000000       0x24 build/arm/libc.a(lib_a-isattyr.o)
 .debug_frame   0x0000000000000000       0x2c build/arm/libc.a(lib_a-isattyr.o)
 .ARM.attributes
                0x0000000000000000       0x2c build/arm/libc.a(lib_a-isattyr.o)
 .text          0x0000000000000000        0x0 build/arm/libc.a(lib_a-localeconv.o)
 .data          0x0000000000000000        0x0 build/arm/libc.a(lib_a-localeconv.o)
 .bss           0x0000000000000000        0x0 build/arm/libc.a(lib_a-localeconv.o)
 .text.__localeconv_l
                0x0000000000000000        0x4 build/arm/libc.a(lib_a-localeconv.o)
 .text._localeconv_r
                0x0000000000000000        0x8 build/arm/libc.a(lib_a-localeconv.o)
 .text.localeconv
                0x0000000000000000        0x8 build/arm/libc.a(lib_a-localeconv.o)
 .debug_frame   0x0000000000000000       0x40 build/arm/libc.a(lib_a-localeconv.o)
 .ARM.attributes
                0x0000000000000000       0x2c build/arm/libc.a(lib_a-localeconv.o)
 .text          0x0000000000000000        0x0 build/arm/libc.a(lib_a-malloc.o)
 .data          0x0000000000000000        0x0 build/arm/libc.a(lib_a-malloc.o)
 .bss           0x0000000000000000        0x0 build/arm/libc.a(lib_a-malloc.o)
 .text.malloc   0x0000000000000000       0x14 build/arm/libc.a(lib_a-malloc.o)
 .text.free     0x0000000000000000       0x14 build/arm/libc.a(lib_a-malloc.o)
 .debug_frame   0x0000000000000000       0x40 build/arm/libc.a(lib_a-malloc.o)
 .ARM.attributes
                0x0000000000000000       0x2c build/arm/libc.a(lib_a-malloc.o)
 .text          0x0000000000000000        0x0 build/arm/libc.a(lib_a-memchr-stub.o)
 .data          0x0000000000000000        0x0 build/arm/libc.a(lib_a-memchr-stub.o)
 .bss           0x0000000000000000        0x0 build/arm/libc.a(lib_a-memchr-stub.o)
 .text.memchr   0x0000000000000000       0x74 build/arm/libc.a(lib_a-memchr-stub.o)
 .debug_frame   0x0000000000000000       0x2c build/arm/libc.a(lib_a-memchr-stub.o)
 .ARM.attributes
                0x0000000000000000       0x2c build/arm/libc.a(lib_a-memchr-stub.o)
 .text          0x0000000000000000        0x0 build/arm/libc.a(lib_a-mprec.o)
 .data          0x0000000000000000        0x0 build/arm/libc.a(lib_a-mprec.o)
 .bss           0x0000000000000000        0x0 build/arm/libc.a(lib_a-mprec.o)
 .text._Balloc  0x0000000000000000       0x50 build/arm/libc.a(lib_a-mprec.o)
 .text._Bfree   0x0000000000000000       0x14 build/arm/libc.a(lib_a-mprec.o)
 .rodata.__multadd.str1.4
                0x0000000000000000       0x91 build/arm/libc.a(lib_a-mprec.o)
 .text.__multadd
                0x0000000000000000       0xa8 build/arm/libc.a(lib_a-mprec.o)
 .text.__s2b    0x0000000000000000       0xb0 build/arm/libc.a(lib_a-mprec.o)
 .text.__hi0bits
                0x0000000000000000       0x38 build/arm/libc.a(lib_a-mprec.o)
 .text.__lo0bits
                0x0000000000000000       0x5c build/arm/libc.a(lib_a-mprec.o)
 .text.__i2b    0x0000000000000000       0x2c build/arm/libc.a(lib_a-mprec.o)
 .text.__multiply
                0x0000000000000000      0x1b0 build/arm/libc.a(lib_a-mprec.o)
 .text.__pow5mult
                0x0000000000000000       0xb8 build/arm/libc.a(lib_a-mprec.o)
 .text.__lshift
                0x0000000000000000       0xfc build/arm/libc.a(lib_a-mprec.o)
 .text.__mcmp   0x0000000000000000       0x38 build/arm/libc.a(lib_a-mprec.o)
 .text.__mdiff  0x0000000000000000      0x194 build/arm/libc.a(lib_a-mprec.o)
 .text.__ulp    0x0000000000000000       0x48 build/arm/libc.a(lib_a-mprec.o)
 .text.__b2d    0x0000000000000000       0xc8 build/arm/libc.a(lib_a-mprec.o)
 .text.__d2b    0x0000000000000000       0xd8 build/arm/libc.a(lib_a-mprec.o)
 .text.__ratio  0x0000000000000000       0x68 build/arm/libc.a(lib_a-mprec.o)
 .text._mprec_log10
                0x0000000000000000       0x34 build/arm/libc.a(lib_a-mprec.o)
 .text.__copybits
                0x0000000000000000       0x40 build/arm/libc.a(lib_a-mprec.o)
 .text.__any_on
                0x0000000000000000       0x50 build/arm/libc.a(lib_a-mprec.o)
 .rodata.__mprec_bigtens
                0x0000000000000000       0x28 build/arm/libc.a(lib_a-mprec.o)
 .rodata.__mprec_tens
                0x0000000000000000       0xc8 build/arm/libc.a(lib_a-mprec.o)
 .rodata.__mprec_tinytens
                0x0000000000000000       0x28 build/arm/libc.a(lib_a-mprec.o)
 .rodata.p05.6122
                0x0000000000000000        0xc build/arm/libc.a(lib_a-mprec.o)
 .debug_frame   0x0000000000000000      0x258 build/arm/libc.a(lib_a-mprec.o)
 .ARM.attributes
                0x0000000000000000       0x2c build/arm/libc.a(lib_a-mprec.o)
 .text          0x0000000000000000        0x0 build/arm/libc.a(lib_a-s_frexp.o)
 .data          0x0000000000000000        0x0 build/arm/libc.a(lib_a-s_frexp.o)
 .bss           0x0000000000000000        0x0 build/arm/libc.a(lib_a-s_frexp.o)
 .text.frexp    0x0000000000000000       0x64 build/arm/libc.a(lib_a-s_frexp.o)
 .debug_frame   0x0000000000000000       0x2c build/arm/libc.a(lib_a-s_frexp.o)
 .ARM.attributes
                0x0000000000000000       0x2c build/arm/libc.a(lib_a-s_frexp.o)
 .text          0x0000000000000000        0x0 build/arm/libc.a(lib_a-strchr.o)
 .data          0x0000000000000000        0x0 build/arm/libc.a(lib_a-strchr.o)
 .bss           0x0000000000000000        0x0 build/arm/libc.a(lib_a-strchr.o)
 .text          0x0000000000000000        0x0 build/arm/libc.a(lib_a-strnlen.o)
 .data          0x0000000000000000        0x0 build/arm/libc.a(lib_a-strnlen.o)
 .bss           0x0000000000000000        0x0 build/arm/libc.a(lib_a-strnlen.o)
 .text.strnlen  0x0000000000000000       0x20 build/arm/libc.a(lib_a-strnlen.o)
 .debug_frame   0x0000000000000000       0x2c build/arm/libc.a(lib_a-strnlen.o)
 .ARM.attributes
                0x0000000000000000       0x2c build/arm/libc.a(lib_a-strnlen.o)
 .text          0x0000000000000000        0x0 build/arm/libc.a(lib_a-svfiprintf.o)
 .data          0x0000000000000000        0x0 build/arm/libc.a(lib_a-svfiprintf.o)
 .bss           0x0000000000000000        0x0 build/arm/libc.a(lib_a-svfiprintf.o)
 .text.__ssprint_r
                0x0000000000000000      0x114 build/arm/libc.a(lib_a-svfiprintf.o)
 .rodata._svfiprintf_r.str1.4
                0x0000000000000000       0x2f build/arm/libc.a(lib_a-svfiprintf.o)
 .text._svfiprintf_r
                0x0000000000000000      0xb84 build/arm/libc.a(lib_a-svfiprintf.o)
 .rodata._svfiprintf_r
                0x0000000000000000      0x16c build/arm/libc.a(lib_a-svfiprintf.o)
 .rodata.blanks.7314
                0x0000000000000000       0x10 build/arm/libc.a(lib_a-svfiprintf.o)
 .rodata.zeroes.7315
                0x0000000000000000       0x10 build/arm/libc.a(lib_a-svfiprintf.o)
 .debug_frame   0x0000000000000000       0x68 build/arm/libc.a(lib_a-svfiprintf.o)
 .ARM.attributes
                0x0000000000000000       0x2c build/arm/libc.a(lib_a-svfiprintf.o)
 .text          0x0000000000000000        0x0 build/arm/libc.a(lib_a-assert.o)
 .data          0x0000000000000000        0x0 build/arm/libc.a(lib_a-assert.o)
 .bss           0x0000000000000000        0x0 build/arm/libc.a(lib_a-assert.o)
 .rodata.__assert_func.str1.4
                0x0000000000000000       0x43 build/arm/libc.a(lib_a-assert.o)
 .text.__assert_func
                0x0000000000000000       0x40 build/arm/libc.a(lib_a-assert.o)
 .text.__assert
                0x0000000000000000        0xc build/arm/libc.a(lib_a-assert.o)
 .debug_frame   0x0000000000000000       0x44 build/arm/libc.a(lib_a-assert.o)
 .ARM.attributes
                0x0000000000000000       0x2c build/arm/libc.a(lib_a-assert.o)
 .text          0x0000000000000000        0x0 build/arm/libc.a(lib_a-callocr.o)
 .data          0x0000000000000000        0x0 build/arm/libc.a(lib_a-callocr.o)
 .bss           0x0000000000000000        0x0 build/arm/libc.a(lib_a-callocr.o)
 .text._calloc_r
                0x0000000000000000       0x5c build/arm/libc.a(lib_a-callocr.o)
 .debug_frame   0x0000000000000000       0x28 build/arm/libc.a(lib_a-callocr.o)
 .ARM.attributes
                0x0000000000000000       0x2c build/arm/libc.a(lib_a-callocr.o)
 .text          0x0000000000000000        0x0 build/arm/libc.a(lib_a-fiprintf.o)
 .data          0x0000000000000000        0x0 build/arm/libc.a(lib_a-fiprintf.o)
 .bss           0x0000000000000000        0x0 build/arm/libc.a(lib_a-fiprintf.o)
 .text._fiprintf_r
                0x0000000000000000       0x18 build/arm/libc.a(lib_a-fiprintf.o)
 .text.fiprintf
                0x0000000000000000       0x24 build/arm/libc.a(lib_a-fiprintf.o)
 .debug_frame   0x0000000000000000       0x48 build/arm/libc.a(lib_a-fiprintf.o)
 .ARM.attributes
                0x0000000000000000       0x2c build/arm/libc.a(lib_a-fiprintf.o)
 .text          0x0000000000000000        0x0 build/arm/libc.a(lib_a-locale.o)
 .data          0x0000000000000000        0x0 build/arm/libc.a(lib_a-locale.o)
 .bss           0x0000000000000000        0x0 build/arm/libc.a(lib_a-locale.o)
 .rodata._setlocale_r.str1.4
                0x0000000000000000        0xd build/arm/libc.a(lib_a-locale.o)
 .text._setlocale_r
                0x0000000000000000       0x44 build/arm/libc.a(lib_a-locale.o)
 .text.__locale_mb_cur_max
                0x0000000000000000       0x10 build/arm/libc.a(lib_a-locale.o)
 .text.setlocale
                0x0000000000000000       0x18 build/arm/libc.a(lib_a-locale.o)
 .rodata.str1.4
                0x0000000000000000        0x2 build/arm/libc.a(lib_a-locale.o)
 .bss._PathLocale
                0x0000000000000000        0x4 build/arm/libc.a(lib_a-locale.o)
 .data.__global_locale
                0x0000000000000000      0x16c build/arm/libc.a(lib_a-locale.o)
 .debug_frame   0x0000000000000000       0x54 build/arm/libc.a(lib_a-locale.o)
 .ARM.attributes
                0x0000000000000000       0x2c build/arm/libc.a(lib_a-locale.o)
 .text          0x0000000000000000        0x0 build/arm/libc.a(lib_a-mbtowc_r.o)
 .data          0x0000000000000000        0x0 build/arm/libc.a(lib_a-mbtowc_r.o)
 .bss           0x0000000000000000        0x0 build/arm/libc.a(lib_a-mbtowc_r.o)
 .text._mbtowc_r
                0x0000000000000000       0x18 build/arm/libc.a(lib_a-mbtowc_r.o)
 .text.__ascii_mbtowc
                0x0000000000000000       0x2c build/arm/libc.a(lib_a-mbtowc_r.o)
 .debug_frame   0x0000000000000000       0x40 build/arm/libc.a(lib_a-mbtowc_r.o)
 .ARM.attributes
                0x0000000000000000       0x2c build/arm/libc.a(lib_a-mbtowc_r.o)
 .text          0x0000000000000000        0x0 build/arm/libc.a(lib_a-memmove.o)
 .data          0x0000000000000000        0x0 build/arm/libc.a(lib_a-memmove.o)
 .bss           0x0000000000000000        0x0 build/arm/libc.a(lib_a-memmove.o)
 .text.memmove  0x0000000000000000       0xb8 build/arm/libc.a(lib_a-memmove.o)
 .debug_frame   0x0000000000000000       0x34 build/arm/libc.a(lib_a-memmove.o)
 .ARM.attributes
                0x0000000000000000       0x2c build/arm/libc.a(lib_a-memmove.o)
 .text          0x0000000000000000        0x0 build/arm/libc.a(lib_a-vfiprintf.o)
 .data          0x0000000000000000        0x0 build/arm/libc.a(lib_a-vfiprintf.o)
 .bss           0x0000000000000000        0x0 build/arm/libc.a(lib_a-vfiprintf.o)
 .text.__sprint_r.part.0
                0x0000000000000000       0x88 build/arm/libc.a(lib_a-vfiprintf.o)
 .text.__sprint_r
                0x0000000000000000       0x14 build/arm/libc.a(lib_a-vfiprintf.o)
 .rodata._vfiprintf_r.str1.4
                0x0000000000000000       0x2f build/arm/libc.a(lib_a-vfiprintf.o)
 .text._vfiprintf_r
                0x0000000000000000      0xdb8 build/arm/libc.a(lib_a-vfiprintf.o)
 .rodata._vfiprintf_r
                0x0000000000000000      0x16c build/arm/libc.a(lib_a-vfiprintf.o)
 .text.vfiprintf
                0x0000000000000000       0x18 build/arm/libc.a(lib_a-vfiprintf.o)
 .text.__sbprintf
                0x0000000000000000       0x8c build/arm/libc.a(lib_a-vfiprintf.o)
 .rodata.blanks.7328
                0x0000000000000000       0x10 build/arm/libc.a(lib_a-vfiprintf.o)
 .rodata.zeroes.7329
                0x0000000000000000       0x10 build/arm/libc.a(lib_a-vfiprintf.o)
 .debug_frame   0x0000000000000000       0xbc build/arm/libc.a(lib_a-vfiprintf.o)
 .ARM.attributes
                0x0000000000000000       0x2c build/arm/libc.a(lib_a-vfiprintf.o)
 .text          0x0000000000000000        0x0 build/arm/libc.a(lib_a-wctomb_r.o)
 .data          0x0000000000000000        0x0 build/arm/libc.a(lib_a-wctomb_r.o)
 .bss           0x0000000000000000        0x0 build/arm/libc.a(lib_a-wctomb_r.o)
 .text._wctomb_r
                0x0000000000000000       0x10 build/arm/libc.a(lib_a-wctomb_r.o)
 .text.__ascii_wctomb
                0x0000000000000000       0x1c build/arm/libc.a(lib_a-wctomb_r.o)
 .debug_frame   0x0000000000000000       0x3c build/arm/libc.a(lib_a-wctomb_r.o)
 .ARM.attributes
                0x0000000000000000       0x2c build/arm/libc.a(lib_a-wctomb_r.o)
 .text          0x0000000000000000        0x0 build/arm/libc.a(lib_a-wsetup.o)
 .data          0x0000000000000000        0x0 build/arm/libc.a(lib_a-wsetup.o)
 .bss           0x0000000000000000        0x0 build/arm/libc.a(lib_a-wsetup.o)
 .text.__swsetup_r
                0x0000000000000000       0xd4 build/arm/libc.a(lib_a-wsetup.o)
 .debug_frame   0x0000000000000000       0x2c build/arm/libc.a(lib_a-wsetup.o)
 .ARM.attributes
                0x0000000000000000       0x2c build/arm/libc.a(lib_a-wsetup.o)
 .text          0x0000000000000000        0x0 build/arm/libc.a(lib_a-abort.o)
 .data          0x0000000000000000        0x0 build/arm/libc.a(lib_a-abort.o)
 .bss           0x0000000000000000        0x0 build/arm/libc.a(lib_a-abort.o)
 .text.abort    0x0000000000000000       0x10 build/arm/libc.a(lib_a-abort.o)
 .debug_frame   0x0000000000000000       0x28 build/arm/libc.a(lib_a-abort.o)
 .ARM.attributes
                0x0000000000000000       0x2c build/arm/libc.a(lib_a-abort.o)
 .text          0x0000000000000000        0x0 build/arm/libc.a(lib_a-fputwc.o)
 .data          0x0000000000000000        0x0 build/arm/libc.a(lib_a-fputwc.o)
 .bss           0x0000000000000000        0x0 build/arm/libc.a(lib_a-fputwc.o)
 .text.__fputwc
                0x0000000000000000       0x98 build/arm/libc.a(lib_a-fputwc.o)
 .text._fputwc_r
                0x0000000000000000       0x5c build/arm/libc.a(lib_a-fputwc.o)
 .text.fputwc   0x0000000000000000       0x2c build/arm/libc.a(lib_a-fputwc.o)
 .debug_frame   0x0000000000000000       0x70 build/arm/libc.a(lib_a-fputwc.o)
 .ARM.attributes
                0x0000000000000000       0x2c build/arm/libc.a(lib_a-fputwc.o)
 .text          0x0000000000000000        0x0 build/arm/libc.a(lib_a-fvwrite.o)
 .data          0x0000000000000000        0x0 build/arm/libc.a(lib_a-fvwrite.o)
 .bss           0x0000000000000000        0x0 build/arm/libc.a(lib_a-fvwrite.o)
 .text.__sfvwrite_r
                0x0000000000000000      0x2f0 build/arm/libc.a(lib_a-fvwrite.o)
 .debug_frame   0x0000000000000000       0x3c build/arm/libc.a(lib_a-fvwrite.o)
 .ARM.attributes
                0x0000000000000000       0x2c build/arm/libc.a(lib_a-fvwrite.o)
 .text          0x0000000000000000        0x0 build/arm/libc.a(lib_a-signal.o)
 .data          0x0000000000000000        0x0 build/arm/libc.a(lib_a-signal.o)
 .bss           0x0000000000000000        0x0 build/arm/libc.a(lib_a-signal.o)
 .text._init_signal_r.part.0
                0x0000000000000000       0x2c build/arm/libc.a(lib_a-signal.o)
 .text._init_signal_r
                0x0000000000000000       0x1c build/arm/libc.a(lib_a-signal.o)
 .text._signal_r
                0x0000000000000000       0x3c build/arm/libc.a(lib_a-signal.o)
 .text._raise_r
                0x0000000000000000       0x5c build/arm/libc.a(lib_a-signal.o)
 .text.__sigtramp_r
                0x0000000000000000       0x50 build/arm/libc.a(lib_a-signal.o)
 .text.raise    0x0000000000000000       0x14 build/arm/libc.a(lib_a-signal.o)
 .text.signal   0x0000000000000000       0x18 build/arm/libc.a(lib_a-signal.o)
 .text._init_signal
                0x0000000000000000       0x20 build/arm/libc.a(lib_a-signal.o)
 .text.__sigtramp
                0x0000000000000000       0x14 build/arm/libc.a(lib_a-signal.o)
 .debug_frame   0x0000000000000000       0xf8 build/arm/libc.a(lib_a-signal.o)
 .ARM.attributes
                0x0000000000000000       0x2c build/arm/libc.a(lib_a-signal.o)
 .text          0x0000000000000000        0x0 build/arm/libc.a(lib_a-signalr.o)
 .data          0x0000000000000000        0x0 build/arm/libc.a(lib_a-signalr.o)
 .bss           0x0000000000000000        0x0 build/arm/libc.a(lib_a-signalr.o)
 .text._kill_r  0x0000000000000000       0x28 build/arm/libc.a(lib_a-signalr.o)
 .text._getpid_r
                0x0000000000000000        0x8 build/arm/libc.a(lib_a-signalr.o)
 .debug_frame   0x0000000000000000       0x44 build/arm/libc.a(lib_a-signalr.o)
 .ARM.attributes
                0x0000000000000000       0x2c build/arm/libc.a(lib_a-signalr.o)
 .text          0x0000000000000000        0x0 build/arm/libc.a(lib_a-wbuf.o)
 .data          0x0000000000000000        0x0 build/arm/libc.a(lib_a-wbuf.o)
 .bss           0x0000000000000000        0x0 build/arm/libc.a(lib_a-wbuf.o)
 .text.__swbuf_r
                0x0000000000000000       0xc8 build/arm/libc.a(lib_a-wbuf.o)
 .text.__swbuf  0x0000000000000000       0x18 build/arm/libc.a(lib_a-wbuf.o)
 .debug_frame   0x0000000000000000       0x48 build/arm/libc.a(lib_a-wbuf.o)
 .ARM.attributes
                0x0000000000000000       0x2c build/arm/libc.a(lib_a-wbuf.o)
 .text          0x0000000000000000        0x0 build/arm/libc.a(lib_a-wcrtomb.o)
 .data          0x0000000000000000        0x0 build/arm/libc.a(lib_a-wcrtomb.o)
 .bss           0x0000000000000000        0x0 build/arm/libc.a(lib_a-wcrtomb.o)
 .text._wcrtomb_r
                0x0000000000000000       0x40 build/arm/libc.a(lib_a-wcrtomb.o)
 .text.wcrtomb  0x0000000000000000       0x44 build/arm/libc.a(lib_a-wcrtomb.o)
 .debug_frame   0x0000000000000000       0x50 build/arm/libc.a(lib_a-wcrtomb.o)
 .ARM.attributes
                0x0000000000000000       0x2c build/arm/libc.a(lib_a-wcrtomb.o)
 .data          0x0000000000000000        0x0 build/arm/libgcc.a(_udivsi3.o)
 .bss           0x0000000000000000        0x0 build/arm/libgcc.a(_udivsi3.o)
 .data          0x0000000000000000        0x0 build/arm/libgcc.a(_divsi3.o)
 .bss           0x0000000000000000        0x0 build/arm/libgcc.a(_divsi3.o)
 .data          0x0000000000000000        0x0 build/arm/libgcc.a(_dvmd_tls.o)
 .bss           0x0000000000000000        0x0 build/arm/libgcc.a(_dvmd_tls.o)
 .text          0x0000000000000000       0x7c build/arm/libgcc.a(_arm_cmpdf2.o)
 .data          0x0000000000000000        0x0 build/arm/libgcc.a(_arm_cmpdf2.o)
 .bss           0x0000000000000000        0x0 build/arm/libgcc.a(_arm_cmpdf2.o)
 .ARM.attributes
                0x0000000000000000       0x1e build/arm/libgcc.a(_arm_cmpdf2.o)
 .text          0x0000000000000000       0x48 build/arm/libgcc.a(_aeabi_ldivmod.o)
 .data          0x0000000000000000        0x0 build/arm/libgcc.a(_aeabi_ldivmod.o)
 .bss           0x0000000000000000        0x0 build/arm/libgcc.a(_aeabi_ldivmod.o)
 .ARM.attributes
                0x0000000000000000       0x1e build/arm/libgcc.a(_aeabi_ldivmod.o)
 .text          0x0000000000000000       0x40 build/arm/libgcc.a(_aeabi_uldivmod.o)
 .data          0x0000000000000000        0x0 build/arm/libgcc.a(_aeabi_uldivmod.o)
 .bss           0x0000000000000000        0x0 build/arm/libgcc.a(_aeabi_uldivmod.o)
 .ARM.attributes
                0x0000000000000000       0x1e build/arm/libgcc.a(_aeabi_uldivmod.o)
 .data          0x0000000000000000        0x0 build/arm/libgcc.a(_muldi3.o)
 .bss           0x0000000000000000        0x0 build/arm/libgcc.a(_muldi3.o)
 .text          0x0000000000000000       0x2c build/arm/libgcc.a(_floatdidf.o)
 .data          0x0000000000000000        0x0 build/arm/libgcc.a(_floatdidf.o)
 .bss           0x0000000000000000        0x0 build/arm/libgcc.a(_floatdidf.o)
 .debug_frame   0x0000000000000000       0x2c build/arm/libgcc.a(_floatdidf.o)
 .ARM.attributes
                0x0000000000000000       0x2c build/arm/libgcc.a(_floatdidf.o)
 .text          0x0000000000000000      0x198 build/arm/libgcc.a(_udivmoddi4.o)
 .data          0x0000000000000000        0x0 build/arm/libgcc.a(_udivmoddi4.o)
 .bss           0x0000000000000000        0x0 build/arm/libgcc.a(_udivmoddi4.o)
 .ARM.extab     0x0000000000000000        0x0 build/arm/libgcc.a(_udivmoddi4.o)
 .ARM.exidx     0x0000000000000000        0x8 build/arm/libgcc.a(_udivmoddi4.o)
 .debug_frame   0x0000000000000000       0x3c build/arm/libgcc.a(_udivmoddi4.o)
 .ARM.attributes
                0x0000000000000000       0x2c build/arm/libgcc.a(_udivmoddi4.o)
 .text          0x0000000000000000       0x3c build/arm/libgcc.a(bpabi.o)
 .data          0x0000000000000000        0x0 build/arm/libgcc.a(bpabi.o)
 .bss           0x0000000000000000        0x0 build/arm/libgcc.a(bpabi.o)
 .debug_frame   0x0000000000000000       0x38 build/arm/libgcc.a(bpabi.o)
 .ARM.attributes
                0x0000000000000000       0x2c build/arm/libgcc.a(bpabi.o)
 .text          0x0000000000000000      0x6d4 build/arm/libgcc.a(adddf3.o)
 .data          0x0000000000000000        0x0 build/arm/libgcc.a(adddf3.o)
 .bss           0x0000000000000000        0x0 build/arm/libgcc.a(adddf3.o)
 .debug_frame   0x0000000000000000       0x38 build/arm/libgcc.a(adddf3.o)
 .ARM.attributes
                0x0000000000000000       0x2c build/arm/libgcc.a(adddf3.o)
 .text          0x0000000000000000      0x5d0 build/arm/libgcc.a(divdf3.o)
 .data          0x0000000000000000        0x0 build/arm/libgcc.a(divdf3.o)
 .bss           0x0000000000000000        0x0 build/arm/libgcc.a(divdf3.o)
 .rodata        0x0000000000000000       0x40 build/arm/libgcc.a(divdf3.o)
 .debug_frame   0x0000000000000000       0x3c build/arm/libgcc.a(divdf3.o)
 .ARM.attributes
                0x0000000000000000       0x2c build/arm/libgcc.a(divdf3.o)
 .text          0x0000000000000000       0x78 build/arm/libgcc.a(eqdf2.o)
 .data          0x0000000000000000        0x0 build/arm/libgcc.a(eqdf2.o)
 .bss           0x0000000000000000        0x0 build/arm/libgcc.a(eqdf2.o)
 .debug_frame   0x0000000000000000       0x38 build/arm/libgcc.a(eqdf2.o)
 .ARM.attributes
                0x0000000000000000       0x2c build/arm/libgcc.a(eqdf2.o)
 .text          0x0000000000000000       0xe4 build/arm/libgcc.a(gedf2.o)
 .data          0x0000000000000000        0x0 build/arm/libgcc.a(gedf2.o)
 .bss           0x0000000000000000        0x0 build/arm/libgcc.a(gedf2.o)
 .debug_frame   0x0000000000000000       0x38 build/arm/libgcc.a(gedf2.o)
 .ARM.attributes
                0x0000000000000000       0x2c build/arm/libgcc.a(gedf2.o)
 .text          0x0000000000000000       0xe0 build/arm/libgcc.a(ledf2.o)
 .data          0x0000000000000000        0x0 build/arm/libgcc.a(ledf2.o)
 .bss           0x0000000000000000        0x0 build/arm/libgcc.a(ledf2.o)
 .debug_frame   0x0000000000000000       0x38 build/arm/libgcc.a(ledf2.o)
 .ARM.attributes
                0x0000000000000000       0x2c build/arm/libgcc.a(ledf2.o)
 .text          0x0000000000000000      0x4d8 build/arm/libgcc.a(muldf3.o)
 .data          0x0000000000000000        0x0 build/arm/libgcc.a(muldf3.o)
 .bss           0x0000000000000000        0x0 build/arm/libgcc.a(muldf3.o)
 .rodata        0x0000000000000000       0x40 build/arm/libgcc.a(muldf3.o)
 .debug_frame   0x0000000000000000       0x3c build/arm/libgcc.a(muldf3.o)
 .ARM.attributes
                0x0000000000000000       0x2c build/arm/libgcc.a(muldf3.o)
 .text          0x0000000000000000      0x724 build/arm/libgcc.a(subdf3.o)
 .data          0x0000000000000000        0x0 build/arm/libgcc.a(subdf3.o)
 .bss           0x0000000000000000        0x0 build/arm/libgcc.a(subdf3.o)
 .debug_frame   0x0000000000000000       0x3c build/arm/libgcc.a(subdf3.o)
 .ARM.attributes
                0x0000000000000000       0x2c build/arm/libgcc.a(subdf3.o)
 .text          0x0000000000000000       0x3c build/arm/libgcc.a(unorddf2.o)
 .data          0x0000000000000000        0x0 build/arm/libgcc.a(unorddf2.o)
 .bss           0x0000000000000000        0x0 build/arm/libgcc.a(unorddf2.o)
 .debug_frame   0x0000000000000000       0x2c build/arm/libgcc.a(unorddf2.o)
 .ARM.attributes
                0x0000000000000000       0x2c build/arm/libgcc.a(unorddf2.o)
 .text          0x0000000000000000       0x6c build/arm/libgcc.a(fixdfsi.o)
 .data          0x0000000000000000        0x0 build/arm/libgcc.a(fixdfsi.o)
 .bss           0x0000000000000000        0x0 build/arm/libgcc.a(fixdfsi.o)
 .debug_frame   0x0000000000000000       0x2c build/arm/libgcc.a(fixdfsi.o)
 .ARM.attributes
                0x0000000000000000       0x2c build/arm/libgcc.a(fixdfsi.o)
 .text          0x0000000000000000       0x60 build/arm/libgcc.a(floatsidf.o)
 .data          0x0000000000000000        0x0 build/arm/libgcc.a(floatsidf.o)
 .bss           0x0000000000000000        0x0 build/arm/libgcc.a(floatsidf.o)
 .debug_frame   0x0000000000000000       0x2c build/arm/libgcc.a(floatsidf.o)
 .ARM.attributes
                0x0000000000000000       0x2c build/arm/libgcc.a(floatsidf.o)
 .text          0x0000000000000000       0x4c build/arm/libgcc.a(floatunsidf.o)
 .data          0x0000000000000000        0x0 build/arm/libgcc.a(floatunsidf.o)
 .bss           0x0000000000000000        0x0 build/arm/libgcc.a(floatunsidf.o)
 .debug_frame   0x0000000000000000       0x28 build/arm/libgcc.a(floatunsidf.o)
 .ARM.attributes
                0x0000000000000000       0x2c build/arm/libgcc.a(floatunsidf.o)
 .text          0x0000000000000000       0x3c build/arm/libgcc.a(_clzsi2.o)
 .data          0x0000000000000000        0x0 build/arm/libgcc.a(_clzsi2.o)
 .bss           0x0000000000000000        0x0 build/arm/libgcc.a(_clzsi2.o)
 .ARM.attributes
                0x0000000000000000       0x1e build/arm/libgcc.a(_clzsi2.o)
 .text          0x0000000000000000       0x18 build/arm/libgcc.a(_clzdi2.o)
 .data          0x0000000000000000        0x0 build/arm/libgcc.a(_clzdi2.o)
 .bss           0x0000000000000000        0x0 build/arm/libgcc.a(_clzdi2.o)
 .ARM.attributes
                0x0000000000000000       0x1e build/arm/libgcc.a(_clzdi2.o)
 .text          0x0000000000000000      0x1cc build/arm/libgcc.a(_divdi3.o)
 .data          0x0000000000000000        0x0 build/arm/libgcc.a(_divdi3.o)
 .bss           0x0000000000000000        0x0 build/arm/libgcc.a(_divdi3.o)
 .ARM.extab     0x0000000000000000        0x0 build/arm/libgcc.a(_divdi3.o)
 .ARM.exidx     0x0000000000000000        0x8 build/arm/libgcc.a(_divdi3.o)
 .debug_frame   0x0000000000000000       0x3c build/arm/libgcc.a(_divdi3.o)
 .ARM.attributes
                0x0000000000000000       0x2c build/arm/libgcc.a(_divdi3.o)
 .text          0x0000000000000000        0x0 build/arm/libnosys.a(close.o)
 .data          0x0000000000000000        0x0 build/arm/libnosys.a(close.o)
 .bss           0x0000000000000000        0x0 build/arm/libnosys.a(close.o)
 .text          0x0000000000000000        0x0 build/arm/libnosys.a(fstat.o)
 .data          0x0000000000000000        0x0 build/arm/libnosys.a(fstat.o)
 .bss           0x0000000000000000        0x0 build/arm/libnosys.a(fstat.o)
 .stab          0x0000000000000000       0x18 build/arm/libnosys.a(fstat.o)
                                         0x24 (size before relaxing)
 .text._fstat   0x0000000000000000       0x10 build/arm/libnosys.a(fstat.o)
 .debug_frame   0x0000000000000000       0x20 build/arm/libnosys.a(fstat.o)
 .ARM.attributes
                0x0000000000000000       0x2c build/arm/libnosys.a(fstat.o)
 .text          0x0000000000000000        0x0 build/arm/libnosys.a(getpid.o)
 .data          0x0000000000000000        0x0 build/arm/libnosys.a(getpid.o)
 .bss           0x0000000000000000        0x0 build/arm/libnosys.a(getpid.o)
 .stab          0x0000000000000000       0x18 build/arm/libnosys.a(getpid.o)
                                         0x24 (size before relaxing)
 .text._getpid  0x0000000000000000       0x10 build/arm/libnosys.a(getpid.o)
 .debug_frame   0x0000000000000000       0x20 build/arm/libnosys.a(getpid.o)
 .ARM.attributes
                0x0000000000000000       0x2c build/arm/libnosys.a(getpid.o)
 .text          0x0000000000000000        0x0 build/arm/libnosys.a(isatty.o)
 .data          0x0000000000000000        0x0 build/arm/libnosys.a(isatty.o)
 .bss           0x0000000000000000        0x0 build/arm/libnosys.a(isatty.o)
 .stab          0x0000000000000000       0x18 build/arm/libnosys.a(isatty.o)
                                         0x24 (size before relaxing)
 .text._isatty  0x0000000000000000       0x10 build/arm/libnosys.a(isatty.o)
 .debug_frame   0x0000000000000000       0x20 build/arm/libnosys.a(isatty.o)
 .ARM.attributes
                0x0000000000000000       0x2c build/arm/libnosys.a(isatty.o)
 .text          0x0000000000000000        0x0 build/arm/libnosys.a(kill.o)
 .data          0x0000000000000000        0x0 build/arm/libnosys.a(kill.o)
 .bss           0x0000000000000000        0x0 build/arm/libnosys.a(kill.o)
 .stab          0x0000000000000000       0x18 build/arm/libnosys.a(kill.o)
                                         0x24 (size before relaxing)
 .text._kill    0x0000000000000000       0x10 build/arm/libnosys.a(kill.o)
 .debug_frame   0x0000000000000000       0x20 build/arm/libnosys.a(kill.o)
 .ARM.attributes
                0x0000000000000000       0x2c build/arm/libnosys.a(kill.o)
 .text          0x0000000000000000        0x0 build/arm/libnosys.a(_exit.o)
 .data          0x0000000000000000        0x0 build/arm/libnosys.a(_exit.o)
 .bss           0x0000000000000000        0x0 build/arm/libnosys.a(_exit.o)
 .text._exit    0x0000000000000000        0x4 build/arm/libnosys.a(_exit.o)
 .debug_frame   0x0000000000000000       0x20 build/arm/libnosys.a(_exit.o)
 .ARM.attributes
                0x0000000000000000       0x2c build/arm/libnosys.a(_exit.o)
 .text          0x0000000000000000        0x0 rtthread.arm.lib(syscalls.o)
 .data          0x0000000000000000        0x0 rtthread.arm.lib(syscalls.o)
 .bss           0x0000000000000000        0x0 rtthread.arm.lib(syscalls.o)
 .text._malloc_r
                0x0000000000000000       0x2c rtthread.arm.lib(syscalls.o)
 .text._realloc_r
                0x0000000000000000       0x32 rtthread.arm.lib(syscalls.o)
 .text._calloc_r
                0x0000000000000000       0x32 rtthread.arm.lib(syscalls.o)
 .text.__libc_init_array
                0x0000000000000000        0xa rtthread.arm.lib(syscalls.o)
 .text.__errno  0x0000000000000000       0x10 rtthread.arm.lib(syscalls.o)
 .text._getpid_r
                0x0000000000000000       0x12 rtthread.arm.lib(syscalls.o)
 .text._close_r
                0x0000000000000000       0x1c rtthread.arm.lib(syscalls.o)
 .text._execve_r
                0x0000000000000000       0x20 rtthread.arm.lib(syscalls.o)
 .text._fcntl_r
                0x0000000000000000       0x20 rtthread.arm.lib(syscalls.o)
 .text._fork_r  0x0000000000000000       0x1a rtthread.arm.lib(syscalls.o)
 .text._fstat_r
                0x0000000000000000       0x1e rtthread.arm.lib(syscalls.o)
 .text._isatty_r
                0x0000000000000000       0x24 rtthread.arm.lib(syscalls.o)
 .text._kill_r  0x0000000000000000       0x1e rtthread.arm.lib(syscalls.o)
 .text._link_r  0x0000000000000000       0x1e rtthread.arm.lib(syscalls.o)
 .text._wait_r  0x0000000000000000       0x1c rtthread.arm.lib(syscalls.o)
 .text.umask    0x0000000000000000       0x12 rtthread.arm.lib(syscalls.o)
 .text.flock    0x0000000000000000       0x14 rtthread.arm.lib(syscalls.o)
 .text._mkdir_r
                0x0000000000000000       0x26 rtthread.arm.lib(syscalls.o)
 .text._open_r  0x0000000000000000       0x28 rtthread.arm.lib(syscalls.o)
 .text._rename_r
                0x0000000000000000       0x26 rtthread.arm.lib(syscalls.o)
 .text._stat_r  0x0000000000000000       0x26 rtthread.arm.lib(syscalls.o)
 .text._unlink_r
                0x0000000000000000       0x1c rtthread.arm.lib(syscalls.o)
 .text._exit    0x0000000000000000       0x12 rtthread.arm.lib(syscalls.o)
 .text          0x0000000000000000        0x0 rtthread.arm.lib(stdlib.o)
 .data          0x0000000000000000        0x0 rtthread.arm.lib(stdlib.o)
 .bss           0x0000000000000000        0x0 rtthread.arm.lib(stdlib.o)
 .text.__rt_libc_exit
                0x0000000000000000       0x26 rtthread.arm.lib(stdlib.o)
 .debug_info    0x0000000000000000      0x521 rtthread.arm.lib(stdlib.o)
 .debug_abbrev  0x0000000000000000      0x15f rtthread.arm.lib(stdlib.o)
 .debug_loc     0x0000000000000000       0x38 rtthread.arm.lib(stdlib.o)
 .debug_aranges
                0x0000000000000000       0x20 rtthread.arm.lib(stdlib.o)
 .debug_ranges  0x0000000000000000       0x10 rtthread.arm.lib(stdlib.o)
 .debug_line    0x0000000000000000      0x26b rtthread.arm.lib(stdlib.o)
 .debug_str     0x0000000000000000      0x41c rtthread.arm.lib(stdlib.o)
 .comment       0x0000000000000000       0x4d rtthread.arm.lib(stdlib.o)
 .debug_frame   0x0000000000000000       0x30 rtthread.arm.lib(stdlib.o)
 .ARM.attributes
                0x0000000000000000       0x2c rtthread.arm.lib(stdlib.o)

Memory Configuration

Name             Origin             Length             Attributes
m_vector_arm     0x0000000001000000 0x0000000000040000 xr
m_vector_riscv   0x00000000000fff00 0x0000000000000100 xr
m_text           0x0000000000000000 0x00000000000fff00 xr
m_data           0x0000000020000000 0x000000000001e800 rw
*default*        0x0000000000000000 0xffffffffffffffff

Linker script and memory map

                0x0000000000001000                RISCV_STACK_SIZE = 0x1000
                0x0000000000000400                ARM_STACK_SIZE = 0x400

.vectors_riscv  0x00000000000fff00       0x90
                0x00000000000fff00                riscv___VECTOR_TABLE = .
 *(.vectors)
 .vectors       0x00000000000fff00       0x90 startup_RV32M1_ri5cy.o

.vectors_arm    0x0000000001000000      0x140
                0x0000000001000000                arm___VECTOR_TABLE = .
 *(.isr_vector)
 .isr_vector    0x0000000001000000      0x140 startup_RV32M1_cm0.o
                0x0000000001000000                arm___isr_vector
 *(.interrupt_vector)

.text           0x0000000000000000    0x4a59c
                0x0000000000001000                . = (. + 0x1000)
 *fill*         0x0000000000000000     0x1000 
                0x0000000000001000                . = ALIGN (0x4)
 *(.startup)
 .startup       0x0000000000001000      0x198 startup_RV32M1_ri5cy.o
                0x0000000000001020                riscv__fini
                0x0000000000001020                riscv__init
                0x000000000000111c                riscv_IRQ_Handler
                0x0000000000001138                riscv_IllegalInstruction_Handler
                0x0000000000001150                riscv_Ecall_Handler
                0x0000000000001168                riscv_LSU_Handler
                0x0000000000001180                riscv_IllegalInstruction_HandlerFunc
                0x0000000000001188                riscv_Ecall_HandlerFunc
                0x0000000000001190                riscv_LSU_HandlerFunc
                0x0000000000001198                . = ALIGN (0x4)
                0x0000000000001198                riscv___user_vector = .
 *(user_vectors)
 user_vectors   0x0000000000001198       0xfc rtthread.risc-v.lib(system_RV32M1_ri5cy.o)
                0x0000000000001198                riscv_isrTable
 *(.text)
 .text          0x0000000000001294      0x138 startup_RV32M1_cm0.o
                0x0000000000001294                arm_Reset_Handler
                0x00000000000012bc                arm_PORTA_IRQHandler
                0x00000000000012bc                arm_LPCMP1_IRQHandler
                0x00000000000012bc                arm_PORTB_IRQHandler
                0x00000000000012bc                arm_LPDAC0_IRQHandler
                0x00000000000012bc                arm_LPIT0_IRQHandler
                0x00000000000012bc                arm_TPM0_IRQHandler
                0x00000000000012bc                arm_INTMUX1_7_DriverIRQHandler
                0x00000000000012bc                arm_I2S0_DriverIRQHandler
                0x00000000000012bc                arm_LPSPI2_DriverIRQHandler
                0x00000000000012bc                arm_LPTMR0_IRQHandler
                0x00000000000012bc                arm_EMVSIM0_IRQHandler
                0x00000000000012bc                arm_TPM3_IRQHandler
                0x00000000000012bc                arm_LPI2C0_DriverIRQHandler
                0x00000000000012bc                arm_RF0_1_IRQHandler
                0x00000000000012bc                arm_SCG_IRQHandler
                0x00000000000012bc                arm_LPSPI1_DriverIRQHandler
                0x00000000000012bc                arm_DMA1_Error_DriverIRQHandler
                0x00000000000012bc                arm_CMC1_IRQHandler
                0x00000000000012bc                arm_LPCMP0_IRQHandler
                0x00000000000012bc                arm_PORTE_IRQHandler
                0x00000000000012bc                arm_LPTMR2_IRQHandler
                0x00000000000012bc                arm_LPI2C3_DriverIRQHandler
                0x00000000000012bc                arm_USDHC0_DriverIRQHandler
                0x00000000000012bc                arm_LPTMR1_IRQHandler
                0x00000000000012bc                arm_INTMUX1_3_DriverIRQHandler
                0x00000000000012bc                arm_LPSPI0_DriverIRQHandler
                0x00000000000012bc                arm_LPI2C1_DriverIRQHandler
                0x00000000000012bc                arm_INTMUX1_6_DriverIRQHandler
                0x00000000000012bc                arm_INTMUX1_4_DriverIRQHandler
                0x00000000000012bc                arm_FTFE_Read_Collision_IRQHandler
                0x00000000000012bc                arm_DMA1_26_DriverIRQHandler
                0x00000000000012bc                arm_DefaultISR
                0x00000000000012bc                arm_DMA1_04_DriverIRQHandler
                0x00000000000012bc                arm_LLWU1_IRQHandler
                0x00000000000012bc                arm_RF0_0_IRQHandler
                0x00000000000012bc                arm_TPM2_IRQHandler
                0x00000000000012bc                arm_EWM_IRQHandler
                0x00000000000012bc                arm_INTMUX1_1_DriverIRQHandler
                0x00000000000012bc                arm_PORTC_IRQHandler
                0x00000000000012bc                arm_TRNG_IRQHandler
                0x00000000000012bc                arm_DMA1_15_DriverIRQHandler
                0x00000000000012bc                arm_FTFE_Command_Complete_IRQHandler
                0x00000000000012bc                arm_INTMUX1_2_DriverIRQHandler
                0x00000000000012bc                arm_ADC0_IRQHandler
                0x00000000000012bc                arm_LPSPI3_DriverIRQHandler
                0x00000000000012bc                arm_TPM1_IRQHandler
                0x00000000000012bc                arm_INTMUX1_5_DriverIRQHandler
                0x00000000000012bc                arm_WDOG1_IRQHandler
                0x00000000000012bc                arm_CAU3_Security_Violation_IRQHandler
                0x00000000000012bc                arm_LPI2C2_DriverIRQHandler
                0x00000000000012bc                arm_USB0_IRQHandler
                0x00000000000012bc                arm_INTMUX1_0_DriverIRQHandler
                0x00000000000012bc                arm_CTI1_IRQHandler
                0x00000000000012bc                arm_CAU3_Task_Complete_IRQHandler
                0x00000000000012bc                arm_RTC_IRQHandler
                0x00000000000012bc                arm_FLEXIO0_DriverIRQHandler
                0x00000000000012bc                arm_PORTD_IRQHandler
                0x00000000000012bc                arm_SPM_IRQHandler
                0x00000000000012bc                arm_DMA1_37_DriverIRQHandler
                0x00000000000012c0                arm_NMI_Handler
                0x00000000000012c8                arm_SVC_Handler
                0x00000000000012d0                arm_SysTick_Handler
                0x00000000000012d4                arm_DMA1_04_IRQHandler
                0x00000000000012d8                arm_DMA1_15_IRQHandler
                0x00000000000012dc                arm_DMA1_26_IRQHandler
                0x00000000000012e0                arm_DMA1_37_IRQHandler
                0x00000000000012e4                arm_DMA1_Error_IRQHandler
                0x00000000000012e8                arm_LPI2C3_IRQHandler
                0x00000000000012ec                arm_LPSPI3_IRQHandler
                0x00000000000012f0                arm_LPUART3_IRQHandler
                0x00000000000012f4                arm_INTMUX1_0_IRQHandler
                0x00000000000012f8                arm_INTMUX1_1_IRQHandler
                0x00000000000012fc                arm_INTMUX1_2_IRQHandler
                0x0000000000001300                arm_INTMUX1_3_IRQHandler
                0x0000000000001304                arm_INTMUX1_4_IRQHandler
                0x0000000000001308                arm_INTMUX1_5_IRQHandler
                0x000000000000130c                arm_INTMUX1_6_IRQHandler
                0x0000000000001310                arm_INTMUX1_7_IRQHandler
                0x0000000000001314                arm_FLEXIO0_IRQHandler
                0x0000000000001318                arm_LPI2C0_IRQHandler
                0x000000000000131c                arm_LPI2C1_IRQHandler
                0x0000000000001320                arm_LPI2C2_IRQHandler
                0x0000000000001324                arm_I2S0_IRQHandler
                0x0000000000001328                arm_USDHC0_IRQHandler
                0x000000000000132c                arm_LPSPI0_IRQHandler
                0x0000000000001330                arm_LPSPI1_IRQHandler
                0x0000000000001334                arm_LPSPI2_IRQHandler
                0x000000000000133c                arm_LPUART1_IRQHandler
                0x0000000000001340                arm_LPUART2_IRQHandler
 .text          0x00000000000013cc        0x0 startup_RV32M1_ri5cy.o
 .text          0x00000000000013cc       0xf8 rtthread.arm.lib(context_gcc.o)
                0x00000000000013cc                arm_rt_hw_local_irq_disable
                0x00000000000013d4                arm_rt_hw_local_irq_enable
                0x00000000000013da                arm_rt_hw_context_switch_interrupt
                0x00000000000013e4                arm_rt_hw_context_switch
                0x0000000000001400                arm_PendSV_Handler
                0x0000000000001454                arm_rt_hw_context_switch_to
                0x0000000000001488                arm_rt_hw_interrupt_thread_switch
                0x000000000000148c                arm_HardFault_Handler
                0x0000000000001498                arm_rt_hw_interrupt_check
 .text          0x00000000000014c4        0x0 rtthread.risc-v.lib(main.o)
 .text          0x00000000000014c4        0x0 rtthread.risc-v.lib(board.o)
 .text          0x00000000000014c4        0x0 rtthread.risc-v.lib(mnt.o)
 .text          0x00000000000014c4        0x0 rtthread.risc-v.lib(clock_config.o)
 .text          0x00000000000014c4        0x0 rtthread.risc-v.lib(pin_mux.o)
 .text          0x00000000000014c4        0x0 rtthread.risc-v.lib(startup.o)
 .text          0x00000000000014c4        0x0 rtthread.risc-v.lib(drv_uart.o)
 .text          0x00000000000014c4        0x0 rtthread.risc-v.lib(drv_sdcard.o)
 .text          0x00000000000014c4        0x0 rtthread.risc-v.lib(system_RV32M1_ri5cy.o)
 .text          0x00000000000014c4        0x0 rtthread.risc-v.lib(fsl_lpuart.o)
 .text          0x00000000000014c4        0x0 rtthread.risc-v.lib(fsl_msmc.o)
 .text          0x00000000000014c4        0x0 rtthread.risc-v.lib(fsl_xrdc.o)
 .text          0x00000000000014c4        0x0 rtthread.risc-v.lib(fsl_common.o)
 .text          0x00000000000014c4        0x0 rtthread.risc-v.lib(fsl_clock.o)
 .text          0x00000000000014c4        0x0 rtthread.risc-v.lib(fsl_gpio.o)
 .text          0x00000000000014c4        0x0 rtthread.risc-v.lib(fsl_sema42.o)
 .text          0x00000000000014c4        0x0 rtthread.risc-v.lib(fsl_mu.o)
 .text          0x00000000000014c4        0x0 rtthread.risc-v.lib(fsl_sd.o)
 .text          0x00000000000014c4        0x0 rtthread.risc-v.lib(fsl_sdmmc.o)
 .text          0x00000000000014c4        0x0 rtthread.risc-v.lib(idle.o)
 .text          0x00000000000014c4        0x0 rtthread.risc-v.lib(scheduler.o)
 .text          0x00000000000014c4        0x0 rtthread.risc-v.lib(ipc.o)
 .text          0x00000000000014c4        0x0 rtthread.risc-v.lib(components.o)
 .text          0x00000000000014c4        0x0 rtthread.risc-v.lib(clock.o)
 .text          0x00000000000014c4        0x0 rtthread.risc-v.lib(cpu.o)
 .text          0x00000000000014c4        0x0 rtthread.risc-v.lib(kservice.o)
 .text          0x00000000000014c4        0x0 rtthread.risc-v.lib(thread.o)
 .text          0x00000000000014c4        0x0 rtthread.risc-v.lib(mem.o)
 .text          0x00000000000014c4        0x0 rtthread.risc-v.lib(device.o)
 .text          0x00000000000014c4        0x0 rtthread.risc-v.lib(timer.o)
 .text          0x00000000000014c4        0x0 rtthread.risc-v.lib(object.o)
 .text          0x00000000000014c4        0x0 rtthread.risc-v.lib(cpuport.o)
 .text          0x00000000000014c4       0xec rtthread.risc-v.lib(context_gcc.o)
                0x00000000000014c4                riscv_rt_hw_local_irq_disable
                0x00000000000014ca                riscv_rt_hw_local_irq_enable
                0x00000000000014d0                riscv_rt_hw_context_switch_to
                0x00000000000014e6                riscv_rt_hw_context_switch
                0x0000000000001546                riscv_rt_hw_context_switch_interrupt
                0x0000000000001558                riscv_rt_hw_context_switch_exit
 .text          0x00000000000015b0        0x0 rtthread.risc-v.lib(dfs_fs.o)
 .text          0x00000000000015b0        0x0 rtthread.risc-v.lib(dfs.o)
 .text          0x00000000000015b0        0x0 rtthread.risc-v.lib(dfs_file.o)
 .text          0x00000000000015b0        0x0 rtthread.risc-v.lib(devfs.o)
 .text          0x00000000000015b0        0x0 rtthread.risc-v.lib(dfs_elm.o)
 .text          0x00000000000015b0        0x0 rtthread.risc-v.lib(serial.o)
 .text          0x00000000000015b0        0x0 rtthread.risc-v.lib(shell.o)
 .text          0x00000000000015b0        0x0 rtthread.risc-v.lib(msh.o)
 .text          0x00000000000015b0        0x0 rtthread.risc-v.lib(cmd.o)
 .text          0x00000000000015b0        0x0 rtthread.risc-v.lib(time.o)
 .text          0x00000000000015b0        0x0 rtthread.risc-v.lib(delay.o)
 .text          0x00000000000015b0        0x0 rtthread.risc-v.lib(libc.o)
 .text          0x00000000000015b0        0x0 rtthread.risc-v.lib(semaphore.o)
 .text          0x00000000000015b0        0x0 rtthread.risc-v.lib(pthread.o)
 .text          0x00000000000015b0        0x0 rtthread.risc-v.lib(pthread_attr.o)
 .text          0x00000000000015b0        0x0 rtthread.risc-v.lib(ulog.o)
 .text          0x00000000000015b0        0x0 rtthread.risc-v.lib(fsl_host.o)
 .text          0x00000000000015b0        0x0 rtthread.risc-v.lib(fsl_usdhc.o)
 .text          0x00000000000015b0        0x0 rtthread.risc-v.lib(irq.o)
 .text          0x00000000000015b0        0x0 rtthread.risc-v.lib(dfs_posix.o)
 .text          0x00000000000015b0        0x0 rtthread.risc-v.lib(ff.o)
 .text          0x00000000000015b0        0x0 rtthread.risc-v.lib(ffunicode.o)
 .text          0x00000000000015b0        0x0 rtthread.risc-v.lib(completion.o)
 .text          0x00000000000015b0        0x0 rtthread.risc-v.lib(waitqueue.o)
 .text          0x00000000000015b0        0x0 rtthread.risc-v.lib(msh_file.o)
 .text          0x00000000000015b0        0x0 rtthread.risc-v.lib(pthread_tls.o)
 .text          0x00000000000015b0        0x0 rtthread.risc-v.lib(console_be.o)
 .text          0x00000000000015b0       0x88 build/arm/libc.a(lib_a-strcmp.o)
                0x00000000000015b0                arm_strcmp
 .text          0x0000000000001638      0x114 build/arm/libgcc.a(_udivsi3.o)
                0x0000000000001638                arm___udivsi3
                0x0000000000001638                arm___aeabi_uidiv
                0x0000000000001744                arm___aeabi_uidivmod
 .text          0x000000000000174c      0x1d4 build/arm/libgcc.a(_divsi3.o)
                0x000000000000174c                arm___divsi3
                0x000000000000174c                arm___aeabi_idiv
                0x0000000000001918                arm___aeabi_idivmod
 .text          0x0000000000001920        0x4 build/arm/libgcc.a(_dvmd_tls.o)
                0x0000000000001920                arm___aeabi_idiv0
                0x0000000000001920                arm___aeabi_ldiv0
 .text          0x0000000000001924       0x50 build/arm/libgcc.a(_muldi3.o)
                0x0000000000001924                arm___aeabi_lmul
                0x0000000000001924                arm___muldi3
 .text          0x0000000000001974       0x18 build/risc-v/libc.a(lib_a-atoi.o)
                0x0000000000001974                riscv_atoi
                0x0000000000001980                riscv__atoi_r
 .text          0x000000000000198c       0xbc build/risc-v/libc.a(lib_a-fclose.o)
                0x000000000000198c                riscv__fclose_r
                0x0000000000001a36                riscv_fclose
 .text          0x0000000000001a48      0x1c6 build/risc-v/libc.a(lib_a-fflush.o)
                0x0000000000001a48                riscv___sflush_r
                0x0000000000001ba8                riscv__fflush_r
                0x0000000000001be2                riscv_fflush
 .text          0x0000000000001c0e       0x42 build/risc-v/libc.a(lib_a-fileno.o)
                0x0000000000001c0e                riscv_fileno
 .text          0x0000000000001c50      0x22c build/risc-v/libc.a(lib_a-findfp.o)
                0x0000000000001c54                riscv__cleanup_r
                0x0000000000001cd6                riscv___sfmoreglue
                0x0000000000001d26                riscv__cleanup
                0x0000000000001d36                riscv___sinit
                0x0000000000001d96                riscv___sfp
                0x0000000000001e44                riscv___sfp_lock_acquire
                0x0000000000001e46                riscv___sfp_lock_release
                0x0000000000001e48                riscv___sinit_lock_acquire
                0x0000000000001e4a                riscv___sinit_lock_release
                0x0000000000001e4c                riscv___fp_lock_all
                0x0000000000001e64                riscv___fp_unlock_all
 .text          0x0000000000001e7c       0xca build/risc-v/libc.a(lib_a-fopen.o)
                0x0000000000001e7c                riscv__fopen_r
                0x0000000000001f32                riscv_fopen
 .text          0x0000000000001f46       0xe2 build/risc-v/libc.a(lib_a-fread.o)
                0x0000000000001f46                riscv__fread_r
                0x0000000000002010                riscv_fread
 .text          0x0000000000002028       0x1e build/risc-v/libc.a(lib_a-fseek.o)
                0x0000000000002028                riscv__fseek_r
                0x0000000000002030                riscv_fseek
 .text          0x0000000000002046      0x300 build/risc-v/libc.a(lib_a-fseeko.o)
                0x0000000000002046                riscv__fseeko_r
                0x0000000000002330                riscv_fseeko
 .text          0x0000000000002346       0x36 build/risc-v/libc.a(lib_a-fstatr.o)
                0x0000000000002346                riscv__fstat_r
 .text          0x000000000000237c       0xce build/risc-v/libc.a(lib_a-fwalk.o)
                0x000000000000237c                riscv__fwalk
                0x00000000000023de                riscv__fwalk_reent
 .text          0x000000000000244a       0x94 build/risc-v/libc.a(lib_a-fwrite.o)
                0x000000000000244a                riscv__fwrite_r
                0x00000000000024c6                riscv_fwrite
 .text          0x00000000000024de        0x0 build/risc-v/libc.a(lib_a-impure.o)
 .text          0x00000000000024de      0x118 build/risc-v/libc.a(lib_a-makebuf.o)
                0x00000000000024de                riscv___swhatbuf_r
                0x0000000000002548                riscv___smakebuf_r
 .text          0x00000000000025f6       0x24 build/risc-v/libc.a(lib_a-malloc.o)
                0x00000000000025f6                riscv_malloc
                0x0000000000002608                riscv_free
 .text          0x000000000000261a       0x22 build/risc-v/libc.a(lib_a-memcmp.o)
                0x000000000000261a                riscv_memcmp
 .text          0x000000000000263c       0xbe build/risc-v/libc.a(lib_a-memcpy.o)
                0x000000000000263c                riscv_memcpy
 .text          0x00000000000026fa       0xa8 build/risc-v/libc.a(lib_a-memset.o)
                0x00000000000026fa                riscv_memset
 .text          0x00000000000027a2       0x58 build/risc-v/libc.a(lib_a-printf.o)
                0x00000000000027a2                riscv__printf_r
                0x00000000000027a2                riscv__iprintf_r
                0x00000000000027c8                riscv_printf
                0x00000000000027c8                riscv_iprintf
 .text          0x00000000000027fa       0xee build/risc-v/libc.a(lib_a-reent.o)
                0x00000000000027fa                riscv_cleanup_glue
                0x0000000000002826                riscv__reclaim_reent
 .text          0x00000000000028e8      0x176 build/risc-v/libc.a(lib_a-refill.o)
                0x0000000000002900                riscv___srefill_r
 .text          0x0000000000002a5e      0x192 build/risc-v/libc.a(lib_a-setvbuf.o)
                0x0000000000002a5e                riscv_setvbuf
 .text          0x0000000000002bf0       0xe4 build/risc-v/libc.a(lib_a-snprintf.o)
                0x0000000000002bf0                riscv__snprintf_r
                0x0000000000002bf0                riscv__sniprintf_r
                0x0000000000002c5e                riscv_snprintf
                0x0000000000002c5e                riscv_sniprintf
 .text          0x0000000000002cd4       0xdc build/risc-v/libc.a(lib_a-stdio.o)
                0x0000000000002cd4                riscv___sread
                0x0000000000002d0a                riscv___seofread
                0x0000000000002d0e                riscv___swrite
                0x0000000000002d68                riscv___sseek
                0x0000000000002da4                riscv___sclose
 .text          0x0000000000002db0       0x20 build/risc-v/libc.a(lib_a-strcat.o)
                0x0000000000002db0                riscv_strcat
 .text          0x0000000000002dd0       0x1a build/risc-v/libc.a(lib_a-strchr.o)
                0x0000000000002dd0                riscv_strchr
 .text          0x0000000000002dea      0x11e build/risc-v/libc.a(lib_a-strcmp.o)
                0x0000000000002dea                riscv_strcmp
 .text          0x0000000000002f08       0x12 build/risc-v/libc.a(lib_a-strcpy.o)
                0x0000000000002f08                riscv_strcpy
 .text          0x0000000000002f1a       0x12 build/risc-v/libc.a(lib_a-strlen.o)
                0x0000000000002f1a                riscv_strlen
 .text          0x0000000000002f2c       0x2a build/risc-v/libc.a(lib_a-strncmp.o)
                0x0000000000002f2c                riscv_strncmp
 .text          0x0000000000002f56       0x30 build/risc-v/libc.a(lib_a-strncpy.o)
                0x0000000000002f56                riscv_strncpy
 .text          0x0000000000002f86       0x3a build/risc-v/libc.a(lib_a-strrchr.o)
                0x0000000000002f86                riscv_strrchr
 .text          0x0000000000002fc0       0x30 build/risc-v/libc.a(lib_a-strstr.o)
                0x0000000000002fc0                riscv_strstr
 .text          0x0000000000002ff0      0x1a0 build/risc-v/libc.a(lib_a-strtol.o)
                0x0000000000003138                riscv__strtol_r
                0x0000000000003154                riscv_strtol_l
                0x000000000000316c                riscv_strtol
 .text          0x0000000000003190       0x34 build/risc-v/libc.a(lib_a-closer.o)
                0x0000000000003190                riscv__close_r
 .text          0x00000000000031c4       0x72 build/risc-v/libc.a(lib_a-flags.o)
                0x00000000000031c4                riscv___sflags
 .text          0x0000000000003236      0x31a build/risc-v/libc.a(lib_a-fvwrite.o)
                0x0000000000003236                riscv___sfvwrite_r
 .text          0x0000000000003550       0x34 build/risc-v/libc.a(lib_a-isattyr.o)
                0x0000000000003550                riscv__isatty_r
 .text          0x0000000000003584       0xa8 build/risc-v/libc.a(lib_a-locale.o)
                0x0000000000003584                riscv__setlocale_r
                0x00000000000035de                riscv___locale_mb_cur_max
                0x00000000000035f8                riscv___locale_ctype_ptr_l
                0x00000000000035fe                riscv___locale_ctype_ptr
                0x0000000000003618                riscv_setlocale
 .text          0x000000000000362c       0x54 build/risc-v/libc.a(lib_a-mbtowc_r.o)
                0x000000000000362c                riscv__mbtowc_r
                0x0000000000003646                riscv___ascii_mbtowc
 .text          0x0000000000003680       0x1a build/risc-v/libc.a(lib_a-memchr.o)
                0x0000000000003680                riscv_memchr
 .text          0x000000000000369a       0x3e build/risc-v/libc.a(lib_a-memmove.o)
                0x000000000000369a                riscv_memmove
 .text          0x00000000000036d8      0x4e4 build/risc-v/libc.a(lib_a-nano-svfprintf.o)
                0x00000000000036d8                riscv___ssputs_r
                0x00000000000037da                riscv___ssprint_r
                0x0000000000003922                riscv__svfiprintf_r
                0x0000000000003922                riscv__svfprintf_r
 .text          0x0000000000003bbc      0x3c2 build/risc-v/libc.a(lib_a-nano-vfprintf_i.o)
                0x0000000000003bbc                riscv__printf_common
                0x0000000000003cc8                riscv__printf_i
 .text          0x0000000000003f7e      0x3f2 build/risc-v/libc.a(lib_a-nano-vfprintf.o)
                0x0000000000003fac                riscv___sfputs_r
                0x0000000000004022                riscv___sprint_r
                0x00000000000040ca                riscv__vfiprintf_r
                0x00000000000040ca                riscv__vfprintf_r
                0x000000000000435a                riscv_vfiprintf
                0x000000000000435a                riscv_vfprintf
 .text          0x0000000000004370       0xde build/risc-v/libc.a(lib_a-wbuf.o)
                0x0000000000004370                riscv___swbuf_r
                0x000000000000443a                riscv___swbuf
 .text          0x000000000000444e       0x3a build/risc-v/libc.a(lib_a-wctomb_r.o)
                0x000000000000444e                riscv__wctomb_r
                0x0000000000004468                riscv___ascii_wctomb
 .text          0x0000000000004488       0xea build/risc-v/libc.a(lib_a-wsetup.o)
                0x0000000000004488                riscv___swsetup_r
 .text          0x0000000000004572        0x0 build/risc-v/libc.a(lib_a-ctype_.o)
 .text          0x0000000000004572      0x122 build/risc-v/libc.a(lib_a-fputwc.o)
                0x0000000000004572                riscv___fputwc
                0x0000000000004634                riscv__fputwc_r
                0x0000000000004658                riscv_fputwc
 .text          0x0000000000004694       0x72 build/risc-v/libc.a(lib_a-wcrtomb.o)
                0x0000000000004694                riscv__wcrtomb_r
                0x00000000000046f0                riscv_wcrtomb
 .text          0x0000000000004706       0x24 build/risc-v/libgcc.a(_bswapsi2.o)
                0x0000000000004706                riscv___bswapsi2
 .text          0x000000000000472a       0x86 build/risc-v/libgcc.a(floatsidf.o)
                0x000000000000472a                riscv___floatsidf
 .text          0x00000000000047b0       0x3c build/risc-v/libgcc.a(_clzsi2.o)
                0x00000000000047b0                riscv___clzsi2
 .text          0x00000000000047ec        0x0 build/risc-v/libgcc.a(_clz.o)
 .text          0x00000000000047ec        0x0 rtthread.risc-v.lib(syscalls.o)
 .text          0x00000000000047ec        0x0 rtthread.risc-v.lib(stdlib.o)
 *(.text*)
 .text.entry    0x00000000000047ec       0x10 rtthread.arm.lib(startup.o)
                0x00000000000047ec                arm_entry
 .text.main_thread_entry
                0x00000000000047fc       0x18 rtthread.arm.lib(startup.o)
                0x00000000000047fc                arm_main_thread_entry
 .text.rt_application_init
                0x0000000000004814       0x64 rtthread.arm.lib(startup.o)
                0x0000000000004814                arm_rt_application_init
 .text.rtthread_startup
                0x0000000000004878       0x3c rtthread.arm.lib(startup.o)
                0x0000000000004878                arm_rtthread_startup
 .text.__NVIC_EnableIRQ
                0x00000000000048b4       0x34 rtthread.arm.lib(board.o)
 .text.__NVIC_SetPriority
                0x00000000000048e8       0xdc rtthread.arm.lib(board.o)
 .text.CLOCK_SetIpSrc
                0x00000000000049c4       0x4c rtthread.arm.lib(board.o)
 .text.GPIO_SetPinsOutput
                0x0000000000004a10       0x18 rtthread.arm.lib(board.o)
 .text.GPIO_ClearPinsOutput
                0x0000000000004a28       0x18 rtthread.arm.lib(board.o)
 .text.LPIT_GetCurrentTimerCount
                0x0000000000004a40       0x26 rtthread.arm.lib(board.o)
 *fill*         0x0000000000004a66        0x2 
 .text.MU_GetStatusFlags
                0x0000000000004a68       0x1c rtthread.arm.lib(board.o)
 .text.MU_ClearStatusFlags
                0x0000000000004a84       0x3e rtthread.arm.lib(board.o)
 *fill*         0x0000000000004ac2        0x2 
 .text.MU_EnableInterrupts
                0x0000000000004ac4       0x30 rtthread.arm.lib(board.o)
 .text.SEMA42_Unlock
                0x0000000000004af4       0x28 rtthread.arm.lib(board.o)
 .text.rt_hw_cpu_id
                0x0000000000004b1c        0xc rtthread.arm.lib(board.o)
                0x0000000000004b1c                arm_rt_hw_cpu_id
 .text.rt_hw_spin_lock
                0x0000000000004b28       0x24 rtthread.arm.lib(board.o)
                0x0000000000004b28                arm_rt_hw_spin_lock
 .text.rt_hw_spin_unlock
                0x0000000000004b4c       0x24 rtthread.arm.lib(board.o)
                0x0000000000004b4c                arm_rt_hw_spin_unlock
 .text.rt_hw_ipi_send
                0x0000000000004b70       0x70 rtthread.arm.lib(board.o)
                0x0000000000004b70                arm_rt_hw_ipi_send
 .text.MUB_IRQHandler
                0x0000000000004be0       0x7c rtthread.arm.lib(board.o)
                0x0000000000004be0                arm_MUB_IRQHandler
 .text.rt_hw_secondary_cpu_up
                0x0000000000004c5c        0xa rtthread.arm.lib(board.o)
                0x0000000000004c5c                arm_rt_hw_secondary_cpu_up
 .text.rt_hw_secondary_cpu_idle_exec
                0x0000000000004c66        0xc rtthread.arm.lib(board.o)
                0x0000000000004c66                arm_rt_hw_secondary_cpu_idle_exec
 .text.LPIT1_IRQHandler
                0x0000000000004c72       0x12 rtthread.arm.lib(board.o)
                0x0000000000004c72                arm_LPIT1_IRQHandler
 .text.rt_hw_systick_init
                0x0000000000004c84       0x60 rtthread.arm.lib(board.o)
                0x0000000000004c84                arm_rt_hw_systick_init
 .text.rt_hw_usec_get
                0x0000000000004ce4       0x70 rtthread.arm.lib(board.o)
                0x0000000000004ce4                arm_rt_hw_usec_get
 .text.rt_hw_us_delay
                0x0000000000004d54       0x40 rtthread.arm.lib(board.o)
                0x0000000000004d54                arm_rt_hw_us_delay
 .text.rt_hw_object_delete
                0x0000000000004d94       0x44 rtthread.arm.lib(board.o)
                0x0000000000004d94                arm_rt_hw_object_delete
 .text.rt_hw_object_trytake
                0x0000000000004dd8       0x10 rtthread.arm.lib(board.o)
                0x0000000000004dd8                arm_rt_hw_object_trytake
 .text.rt_hw_object_take
                0x0000000000004de8       0x9c rtthread.arm.lib(board.o)
                0x0000000000004de8                arm_rt_hw_object_take
 .text.rt_hw_object_put
                0x0000000000004e84       0x50 rtthread.arm.lib(board.o)
                0x0000000000004e84                arm_rt_hw_object_put
 .text.rt_hw_object_dump
                0x0000000000004ed4       0x6c rtthread.arm.lib(board.o)
                0x0000000000004ed4                arm_rt_hw_object_dump
 .text.rt_hw_board_init
                0x0000000000004f40       0xd8 rtthread.arm.lib(board.o)
                0x0000000000004f40                arm_rt_hw_board_init
 .text.__NVIC_EnableIRQ
                0x0000000000005018       0x34 rtthread.arm.lib(drv_uart.o)
 .text.__NVIC_DisableIRQ
                0x000000000000504c       0x44 rtthread.arm.lib(drv_uart.o)
 .text.CLOCK_SetIpSrc
                0x0000000000005090       0x4c rtthread.arm.lib(drv_uart.o)
 .text.EnableIRQ
                0x00000000000050dc       0x3e rtthread.arm.lib(drv_uart.o)
 .text.DisableIRQ
                0x000000000000511a       0x3e rtthread.arm.lib(drv_uart.o)
 .text.LPUART_WriteByte
                0x0000000000005158       0x1e rtthread.arm.lib(drv_uart.o)
 .text.LPUART_ReadByte
                0x0000000000005176       0x6a rtthread.arm.lib(drv_uart.o)
 .text.LPUART0_IRQHandler
                0x00000000000051e0       0x18 rtthread.arm.lib(drv_uart.o)
                0x00000000000051e0                arm_LPUART0_IRQHandler
 .text.rt_hw_uart_init
                0x00000000000051f8       0x7c rtthread.arm.lib(drv_uart.o)
                0x00000000000051f8                arm_rt_hw_uart_init
 .text.uart_configure
                0x0000000000005274      0x150 rtthread.arm.lib(drv_uart.o)
 .text.uart_control
                0x00000000000053c4       0x60 rtthread.arm.lib(drv_uart.o)
 .text.uart_putc
                0x0000000000005424       0x60 rtthread.arm.lib(drv_uart.o)
 .text.uart_getc
                0x0000000000005484       0x5c rtthread.arm.lib(drv_uart.o)
 .text.uart_dma_transmit
                0x00000000000054e0       0x18 rtthread.arm.lib(drv_uart.o)
 .text.uart_isr
                0x00000000000054f8       0x8c rtthread.arm.lib(drv_uart.o)
 .text.CLOCK_EnableClock
                0x0000000000005584       0x1e rtthread.arm.lib(fsl_lpuart.o)
 .text.LPUART_SoftwareReset
                0x00000000000055a2       0x2a rtthread.arm.lib(fsl_lpuart.o)
 .text.LPUART_GetInstance
                0x00000000000055cc       0x3c rtthread.arm.lib(fsl_lpuart.o)
                0x00000000000055cc                arm_LPUART_GetInstance
 .text.LPUART_Init
                0x0000000000005608      0x318 rtthread.arm.lib(fsl_lpuart.o)
                0x0000000000005608                arm_LPUART_Init
 .text.LPUART_GetDefaultConfig
                0x0000000000005920       0x6c rtthread.arm.lib(fsl_lpuart.o)
                0x0000000000005920                arm_LPUART_GetDefaultConfig
 .text.LPUART_EnableInterrupts
                0x000000000000598c       0x58 rtthread.arm.lib(fsl_lpuart.o)
                0x000000000000598c                arm_LPUART_EnableInterrupts
 .text.LPUART_GetStatusFlags
                0x00000000000059e4       0x28 rtthread.arm.lib(fsl_lpuart.o)
                0x00000000000059e4                arm_LPUART_GetStatusFlags
 .text.LPUART0_DriverIRQHandler
                0x0000000000005a0c       0x24 rtthread.arm.lib(fsl_lpuart.o)
                0x0000000000005a0c                arm_LPUART0_DriverIRQHandler
 .text.LPUART1_DriverIRQHandler
                0x0000000000005a30       0x24 rtthread.arm.lib(fsl_lpuart.o)
                0x0000000000005a30                arm_LPUART1_DriverIRQHandler
 .text.LPUART2_DriverIRQHandler
                0x0000000000005a54       0x24 rtthread.arm.lib(fsl_lpuart.o)
                0x0000000000005a54                arm_LPUART2_DriverIRQHandler
 .text.LPUART3_DriverIRQHandler
                0x0000000000005a78       0x24 rtthread.arm.lib(fsl_lpuart.o)
                0x0000000000005a78                arm_LPUART3_DriverIRQHandler
 .text.CLOCK_GetLpoClkFreq
                0x0000000000005a9c        0xe rtthread.arm.lib(fsl_clock.o)
 *fill*         0x0000000000005aaa        0x2 
 .text.CLOCK_GetCurSysClkConfig
                0x0000000000005aac       0x1c rtthread.arm.lib(fsl_clock.o)
 .text.CLOCK_GetOsc32kClkFreq
                0x0000000000005ac8       0x14 rtthread.arm.lib(fsl_clock.o)
                0x0000000000005ac8                arm_CLOCK_GetOsc32kClkFreq
 .text.CLOCK_GetFreq
                0x0000000000005adc      0x130 rtthread.arm.lib(fsl_clock.o)
                0x0000000000005adc                arm_CLOCK_GetFreq
 .text.CLOCK_GetIpFreq
                0x0000000000005c0c      0x110 rtthread.arm.lib(fsl_clock.o)
                0x0000000000005c0c                arm_CLOCK_GetIpFreq
 .text.CLOCK_GetSysClkFreq
                0x0000000000005d1c       0xfc rtthread.arm.lib(fsl_clock.o)
                0x0000000000005d1c                arm_CLOCK_GetSysClkFreq
 .text.CLOCK_GetSysOscFreq
                0x0000000000005e18       0x2c rtthread.arm.lib(fsl_clock.o)
                0x0000000000005e18                arm_CLOCK_GetSysOscFreq
 .text.CLOCK_GetSysOscAsyncFreq
                0x0000000000005e44       0x8c rtthread.arm.lib(fsl_clock.o)
                0x0000000000005e44                arm_CLOCK_GetSysOscAsyncFreq
 .text.CLOCK_GetSircFreq
                0x0000000000005ed0       0x38 rtthread.arm.lib(fsl_clock.o)
                0x0000000000005ed0                arm_CLOCK_GetSircFreq
 .text.CLOCK_GetSircAsyncFreq
                0x0000000000005f08       0x8c rtthread.arm.lib(fsl_clock.o)
                0x0000000000005f08                arm_CLOCK_GetSircAsyncFreq
 .text.CLOCK_GetFircFreq
                0x0000000000005f94       0x38 rtthread.arm.lib(fsl_clock.o)
                0x0000000000005f94                arm_CLOCK_GetFircFreq
 .text.CLOCK_GetFircAsyncFreq
                0x0000000000005fcc       0x8c rtthread.arm.lib(fsl_clock.o)
                0x0000000000005fcc                arm_CLOCK_GetFircAsyncFreq
 .text.CLOCK_GetRtcOscFreq
                0x0000000000006058       0x2c rtthread.arm.lib(fsl_clock.o)
                0x0000000000006058                arm_CLOCK_GetRtcOscFreq
 .text.CLOCK_GetLpFllFreq
                0x0000000000006084       0x38 rtthread.arm.lib(fsl_clock.o)
                0x0000000000006084                arm_CLOCK_GetLpFllFreq
 .text.CLOCK_GetLpFllAsyncFreq
                0x00000000000060bc       0x74 rtthread.arm.lib(fsl_clock.o)
                0x00000000000060bc                arm_CLOCK_GetLpFllAsyncFreq
 .text.__NVIC_EnableIRQ
                0x0000000000006130       0x34 rtthread.arm.lib(system_RV32M1_cm0plus.o)
 .text.__NVIC_SetPriority
                0x0000000000006164       0xdc rtthread.arm.lib(system_RV32M1_cm0plus.o)
 .text.CLOCK_EnableClock
                0x0000000000006240       0x1e rtthread.arm.lib(system_RV32M1_cm0plus.o)
 *fill*         0x000000000000625e        0x2 
 .text.SystemInit
                0x0000000000006260       0x34 rtthread.arm.lib(system_RV32M1_cm0plus.o)
                0x0000000000006260                arm_SystemInit
 .text.SystemSetupSystick
                0x0000000000006294       0x90 rtthread.arm.lib(system_RV32M1_cm0plus.o)
                0x0000000000006294                arm_SystemSetupSystick
 .text.SystemClearSystickFlag
                0x0000000000006324       0x14 rtthread.arm.lib(system_RV32M1_cm0plus.o)
                0x0000000000006324                arm_SystemClearSystickFlag
 .text.SEMA42_Lock
                0x0000000000006338       0x74 rtthread.arm.lib(fsl_sema42.o)
                0x0000000000006338                arm_SEMA42_Lock
 .text.CLOCK_EnableClock
                0x00000000000063ac       0x1e rtthread.arm.lib(fsl_mu.o)
 *fill*         0x00000000000063ca        0x2 
 .text.MU_SetFlagsNonBlocking
                0x00000000000063cc       0x34 rtthread.arm.lib(fsl_mu.o)
 .text.MU_GetInstance
                0x0000000000006400       0x34 rtthread.arm.lib(fsl_mu.o)
 .text.MU_Init  0x0000000000006434       0x24 rtthread.arm.lib(fsl_mu.o)
                0x0000000000006434                arm_MU_Init
 .text.MU_SetFlags
                0x0000000000006458       0x2c rtthread.arm.lib(fsl_mu.o)
                0x0000000000006458                arm_MU_SetFlags
 .text.MU_TriggerInterrupts
                0x0000000000006484       0x3c rtthread.arm.lib(fsl_mu.o)
                0x0000000000006484                arm_MU_TriggerInterrupts
 .text.rt_list_insert_after
                0x00000000000064c0       0x2e rtthread.arm.lib(idle.o)
 .text.rt_list_remove
                0x00000000000064ee       0x32 rtthread.arm.lib(idle.o)
 .text.rt_thread_defunct_enqueue
                0x0000000000006520       0x30 rtthread.arm.lib(idle.o)
                0x0000000000006520                arm_rt_thread_defunct_enqueue
 .text.rt_thread_defunct_dequeue
                0x0000000000006550       0x48 rtthread.arm.lib(idle.o)
                0x0000000000006550                arm_rt_thread_defunct_dequeue
 .text.rt_defunct_execute
                0x0000000000006598       0x66 rtthread.arm.lib(idle.o)
 .text.rt_thread_idle_entry
                0x00000000000065fe        0xe rtthread.arm.lib(idle.o)
 .text.rt_thread_system_entry
                0x000000000000660c       0x20 rtthread.arm.lib(idle.o)
 .text.rt_thread_idle_init
                0x000000000000662c       0xec rtthread.arm.lib(idle.o)
                0x000000000000662c                arm_rt_thread_idle_init
 .text.rt_cpu_self
                0x0000000000006718       0x24 rtthread.arm.lib(cpu.o)
                0x0000000000006718                arm_rt_cpu_self
 .text.rt_cpu_index
                0x000000000000673c       0x28 rtthread.arm.lib(cpu.o)
                0x000000000000673c                arm_rt_cpu_index
 .text.rt_cpus_lock
                0x0000000000006764       0x58 rtthread.arm.lib(cpu.o)
                0x0000000000006764                arm_rt_cpus_lock
 .text.rt_cpus_unlock
                0x00000000000067bc       0x58 rtthread.arm.lib(cpu.o)
                0x00000000000067bc                arm_rt_cpus_unlock
 .text.rt_cpus_lock_status_restore
                0x0000000000006814       0x30 rtthread.arm.lib(cpu.o)
                0x0000000000006814                arm_rt_cpus_lock_status_restore
 .text.rt_list_init
                0x0000000000006844       0x1e rtthread.arm.lib(timer.o)
 .text.rt_list_insert_after
                0x0000000000006862       0x2e rtthread.arm.lib(timer.o)
 .text.rt_list_remove
                0x0000000000006890       0x32 rtthread.arm.lib(timer.o)
 .text.rt_list_isempty
                0x00000000000068c2       0x1e rtthread.arm.lib(timer.o)
 .text._timer_init
                0x00000000000068e0       0x6c rtthread.arm.lib(timer.o)
 .text._timer_remove
                0x000000000000694c       0x36 rtthread.arm.lib(timer.o)
 *fill*         0x0000000000006982        0x2 
 .text.rt_timer_init
                0x0000000000006984       0x8c rtthread.arm.lib(timer.o)
                0x0000000000006984                arm_rt_timer_init
 .text.rt_timer_detach
                0x0000000000006a10       0xa0 rtthread.arm.lib(timer.o)
                0x0000000000006a10                arm_rt_timer_detach
 .text.rt_timer_start
                0x0000000000006ab0      0x1fc rtthread.arm.lib(timer.o)
                0x0000000000006ab0                arm_rt_timer_start
 .text.rt_timer_stop
                0x0000000000006cac       0xa0 rtthread.arm.lib(timer.o)
                0x0000000000006cac                arm_rt_timer_stop
 .text.rt_timer_control
                0x0000000000006d4c       0xfc rtthread.arm.lib(timer.o)
                0x0000000000006d4c                arm_rt_timer_control
 .text.rt_timer_check
                0x0000000000006e48      0x118 rtthread.arm.lib(timer.o)
                0x0000000000006e48                arm_rt_timer_check
 .text.rt_system_timer_init
                0x0000000000006f60       0x34 rtthread.arm.lib(timer.o)
                0x0000000000006f60                arm_rt_system_timer_init
 .text.rt_system_timer_thread_init
                0x0000000000006f94        0xa rtthread.arm.lib(timer.o)
                0x0000000000006f94                arm_rt_system_timer_thread_init
 .text.rt_list_insert_after
                0x0000000000006f9e       0x2e rtthread.arm.lib(object.o)
 .text.rt_list_remove
                0x0000000000006fcc       0x32 rtthread.arm.lib(object.o)
 *fill*         0x0000000000006ffe        0x2 
 .text.rt_object_detach_sethook
                0x0000000000007000       0x1c rtthread.arm.lib(object.o)
                0x0000000000007000                arm_rt_object_detach_sethook
 .text.rt_object_trytake_sethook
                0x000000000000701c       0x1c rtthread.arm.lib(object.o)
                0x000000000000701c                arm_rt_object_trytake_sethook
 .text.rt_object_take_sethook
                0x0000000000007038       0x1c rtthread.arm.lib(object.o)
                0x0000000000007038                arm_rt_object_take_sethook
 .text.rt_object_put_sethook
                0x0000000000007054       0x1c rtthread.arm.lib(object.o)
                0x0000000000007054                arm_rt_object_put_sethook
 .text.rt_object_get_information
                0x0000000000007070       0x48 rtthread.arm.lib(object.o)
                0x0000000000007070                arm_rt_object_get_information
 .text.rt_object_init
                0x00000000000070b8       0xe4 rtthread.arm.lib(object.o)
                0x00000000000070b8                arm_rt_object_init
 .text.rt_object_detach
                0x000000000000719c       0x64 rtthread.arm.lib(object.o)
                0x000000000000719c                arm_rt_object_detach
 .text.rt_object_allocate
                0x0000000000007200       0xbc rtthread.arm.lib(object.o)
                0x0000000000007200                arm_rt_object_allocate
 .text.rt_object_delete
                0x00000000000072bc       0x88 rtthread.arm.lib(object.o)
                0x00000000000072bc                arm_rt_object_delete
 .text.rt_object_is_systemobject
                0x0000000000007344       0x3c rtthread.arm.lib(object.o)
                0x0000000000007344                arm_rt_object_is_systemobject
 .text.rt_object_get_type
                0x0000000000007380       0x38 rtthread.arm.lib(object.o)
                0x0000000000007380                arm_rt_object_get_type
 .text.rt_object_find
                0x00000000000073b8       0x80 rtthread.arm.lib(object.o)
                0x00000000000073b8                arm_rt_object_find
 .text.rt_tick_get
                0x0000000000007438       0x1e rtthread.arm.lib(clock.o)
                0x0000000000007438                arm_rt_tick_get
 *fill*         0x0000000000007456        0x2 
 .text.rt_tick_increase
                0x0000000000007458       0xb8 rtthread.arm.lib(clock.o)
                0x0000000000007458                arm_rt_tick_increase
 .text.rt_tick_from_millisecond
                0x0000000000007510       0x68 rtthread.arm.lib(clock.o)
                0x0000000000007510                arm_rt_tick_from_millisecond
 .text.rt_set_errno
                0x0000000000007578       0x40 rtthread.arm.lib(kservice.o)
                0x0000000000007578                arm_rt_set_errno
 .text.rt_memset
                0x00000000000075b8       0xb2 rtthread.arm.lib(kservice.o)
                0x00000000000075b8                arm_rt_memset
 .text.rt_memcpy
                0x000000000000766a       0xcc rtthread.arm.lib(kservice.o)
                0x000000000000766a                arm_rt_memcpy
 .text.rt_strncpy
                0x0000000000007736       0x60 rtthread.arm.lib(kservice.o)
                0x0000000000007736                arm_rt_strncpy
 .text.rt_strncmp
                0x0000000000007796       0x5e rtthread.arm.lib(kservice.o)
                0x0000000000007796                arm_rt_strncmp
 .text.rt_strcmp
                0x00000000000077f4       0x40 rtthread.arm.lib(kservice.o)
                0x00000000000077f4                arm_rt_strcmp
 .text.rt_strlen
                0x0000000000007834       0x2a rtthread.arm.lib(kservice.o)
                0x0000000000007834                arm_rt_strlen
 .text.rt_strdup
                0x000000000000785e       0x42 rtthread.arm.lib(kservice.o)
                0x000000000000785e                arm_rt_strdup
 .text.rt_show_version
                0x00000000000078a0       0x50 rtthread.arm.lib(kservice.o)
                0x00000000000078a0                arm_rt_show_version
 .text.divide   0x00000000000078f0       0x56 rtthread.arm.lib(kservice.o)
 .text.skip_atoi
                0x0000000000007946       0x42 rtthread.arm.lib(kservice.o)
 .text.print_number
                0x0000000000007988      0x1f8 rtthread.arm.lib(kservice.o)
 .text.rt_vsnprintf
                0x0000000000007b80      0x490 rtthread.arm.lib(kservice.o)
                0x0000000000007b80                arm_rt_vsnprintf
 .text.rt_snprintf
                0x0000000000008010       0x32 rtthread.arm.lib(kservice.o)
                0x0000000000008010                arm_rt_snprintf
 .text.rt_vsprintf
                0x0000000000008042       0x24 rtthread.arm.lib(kservice.o)
                0x0000000000008042                arm_rt_vsprintf
 .text.rt_sprintf
                0x0000000000008066       0x30 rtthread.arm.lib(kservice.o)
                0x0000000000008066                arm_rt_sprintf
 *fill*         0x0000000000008096        0x2 
 .text.rt_console_get_device
                0x0000000000008098       0x14 rtthread.arm.lib(kservice.o)
                0x0000000000008098                arm_rt_console_get_device
 .text.rt_console_set_device
                0x00000000000080ac       0x5c rtthread.arm.lib(kservice.o)
                0x00000000000080ac                arm_rt_console_set_device
 .text.rt_hw_console_output
                0x0000000000008108       0x10 rtthread.arm.lib(kservice.o)
                0x0000000000008108                arm_rt_hw_console_output
 .text.rt_kputs
                0x0000000000008118       0x48 rtthread.arm.lib(kservice.o)
                0x0000000000008118                arm_rt_kputs
 .text.rt_kprintf
                0x0000000000008160       0x60 rtthread.arm.lib(kservice.o)
                0x0000000000008160                arm_rt_kprintf
 .text._heap_lock_init
                0x00000000000081c0       0x20 rtthread.arm.lib(kservice.o)
 .text._heap_lock
                0x00000000000081e0       0x2c rtthread.arm.lib(kservice.o)
 .text._heap_unlock
                0x000000000000820c       0x44 rtthread.arm.lib(kservice.o)
 .text._smem_info
                0x0000000000008250       0x48 rtthread.arm.lib(kservice.o)
 .text.rt_system_heap_init
                0x0000000000008298       0x68 rtthread.arm.lib(kservice.o)
                0x0000000000008298                arm_rt_system_heap_init
 .text.rt_malloc
                0x0000000000008300       0x50 rtthread.arm.lib(kservice.o)
                0x0000000000008300                arm_rt_malloc
 .text.rt_realloc
                0x0000000000008350       0x3c rtthread.arm.lib(kservice.o)
                0x0000000000008350                arm_rt_realloc
 .text.rt_calloc
                0x000000000000838c       0x3a rtthread.arm.lib(kservice.o)
                0x000000000000838c                arm_rt_calloc
 *fill*         0x00000000000083c6        0x2 
 .text.rt_free  0x00000000000083c8       0x40 rtthread.arm.lib(kservice.o)
                0x00000000000083c8                arm_rt_free
 .text.rt_memory_info
                0x0000000000008408       0x30 rtthread.arm.lib(kservice.o)
                0x0000000000008408                arm_rt_memory_info
 .text.__rt_ffs
                0x0000000000008438       0x74 rtthread.arm.lib(kservice.o)
                0x0000000000008438                arm___rt_ffs
 .text.rt_assert_handler
                0x00000000000084ac       0x54 rtthread.arm.lib(kservice.o)
                0x00000000000084ac                arm_rt_assert_handler
 .text.rt_list_init
                0x0000000000008500       0x1e rtthread.arm.lib(ipc.o)
 .text.rt_list_insert_before
                0x000000000000851e       0x2e rtthread.arm.lib(ipc.o)
 .text.rt_list_isempty
                0x000000000000854c       0x1e rtthread.arm.lib(ipc.o)
 .text._ipc_object_init
                0x000000000000856a       0x1c rtthread.arm.lib(ipc.o)
 *fill*         0x0000000000008586        0x2 
 .text._ipc_list_suspend
                0x0000000000008588       0xb4 rtthread.arm.lib(ipc.o)
 .text._ipc_list_resume
                0x000000000000863c       0x22 rtthread.arm.lib(ipc.o)
 .text._ipc_list_resume_all
                0x000000000000865e       0x48 rtthread.arm.lib(ipc.o)
 *fill*         0x00000000000086a6        0x2 
 .text.rt_sem_init
                0x00000000000086a8       0xa0 rtthread.arm.lib(ipc.o)
                0x00000000000086a8                arm_rt_sem_init
 .text.rt_sem_create
                0x0000000000008748       0x8c rtthread.arm.lib(ipc.o)
                0x0000000000008748                arm_rt_sem_create
 .text.rt_sem_delete
                0x00000000000087d4       0x84 rtthread.arm.lib(ipc.o)
                0x00000000000087d4                arm_rt_sem_delete
 .text.rt_sem_take
                0x0000000000008858      0x110 rtthread.arm.lib(ipc.o)
                0x0000000000008858                arm_rt_sem_take
 .text.rt_sem_release
                0x0000000000008968       0xcc rtthread.arm.lib(ipc.o)
                0x0000000000008968                arm_rt_sem_release
 .text.rt_mutex_init
                0x0000000000008a34       0x68 rtthread.arm.lib(ipc.o)
                0x0000000000008a34                arm_rt_mutex_init
 .text.rt_mutex_take
                0x0000000000008a9c      0x1a4 rtthread.arm.lib(ipc.o)
                0x0000000000008a9c                arm_rt_mutex_take
 .text.rt_mutex_release
                0x0000000000008c40      0x170 rtthread.arm.lib(ipc.o)
                0x0000000000008c40                arm_rt_mutex_release
 .text.rt_list_init
                0x0000000000008db0       0x1e rtthread.arm.lib(device.o)
 *fill*         0x0000000000008dce        0x2 
 .text.rt_wqueue_init
                0x0000000000008dd0       0x3c rtthread.arm.lib(device.o)
 .text.rt_device_register
                0x0000000000008e0c       0x66 rtthread.arm.lib(device.o)
                0x0000000000008e0c                arm_rt_device_register
 .text.rt_device_find
                0x0000000000008e72       0x1c rtthread.arm.lib(device.o)
                0x0000000000008e72                arm_rt_device_find
 *fill*         0x0000000000008e8e        0x2 
 .text.rt_device_open
                0x0000000000008e90      0x13c rtthread.arm.lib(device.o)
                0x0000000000008e90                arm_rt_device_open
 .text.rt_device_close
                0x0000000000008fcc       0xa4 rtthread.arm.lib(device.o)
                0x0000000000008fcc                arm_rt_device_close
 .text.rt_device_read
                0x0000000000009070       0x90 rtthread.arm.lib(device.o)
                0x0000000000009070                arm_rt_device_read
 .text.rt_device_write
                0x0000000000009100       0x90 rtthread.arm.lib(device.o)
                0x0000000000009100                arm_rt_device_write
 .text.rt_device_control
                0x0000000000009190       0x70 rtthread.arm.lib(device.o)
                0x0000000000009190                arm_rt_device_control
 .text.rt_device_set_rx_indicate
                0x0000000000009200       0x58 rtthread.arm.lib(device.o)
                0x0000000000009200                arm_rt_device_set_rx_indicate
 .text.rt_list_init
                0x0000000000009258       0x1e rtthread.arm.lib(scheduler.o)
 .text.rt_list_insert_before
                0x0000000000009276       0x2e rtthread.arm.lib(scheduler.o)
 .text.rt_list_remove
                0x00000000000092a4       0x32 rtthread.arm.lib(scheduler.o)
 .text.rt_list_isempty
                0x00000000000092d6       0x1e rtthread.arm.lib(scheduler.o)
 .text._scheduler_stack_check
                0x00000000000092f4       0x9c rtthread.arm.lib(scheduler.o)
 .text._scheduler_get_highest_priority_thread
                0x0000000000009390       0x78 rtthread.arm.lib(scheduler.o)
 .text.rt_system_scheduler_init
                0x0000000000009408       0x98 rtthread.arm.lib(scheduler.o)
                0x0000000000009408                arm_rt_system_scheduler_init
 .text.rt_system_scheduler_start
                0x00000000000094a0       0x4a rtthread.arm.lib(scheduler.o)
                0x00000000000094a0                arm_rt_system_scheduler_start
 .text.rt_scheduler_ipi_handler
                0x00000000000094ea       0x16 rtthread.arm.lib(scheduler.o)
                0x00000000000094ea                arm_rt_scheduler_ipi_handler
 .text.rt_schedule
                0x0000000000009500      0x1c8 rtthread.arm.lib(scheduler.o)
                0x0000000000009500                arm_rt_schedule
 .text.rt_schedule_insert_thread
                0x00000000000096c8      0x144 rtthread.arm.lib(scheduler.o)
                0x00000000000096c8                arm_rt_schedule_insert_thread
 .text.rt_schedule_remove_thread
                0x000000000000980c       0xc4 rtthread.arm.lib(scheduler.o)
                0x000000000000980c                arm_rt_schedule_remove_thread
 .text.rt_enter_critical
                0x00000000000098d0       0x6c rtthread.arm.lib(scheduler.o)
                0x00000000000098d0                arm_rt_enter_critical
 .text.rt_exit_critical
                0x000000000000993c       0x78 rtthread.arm.lib(scheduler.o)
                0x000000000000993c                arm_rt_exit_critical
 .text.rt_list_init
                0x00000000000099b4       0x1e rtthread.arm.lib(thread.o)
 .text.rt_list_remove
                0x00000000000099d2       0x32 rtthread.arm.lib(thread.o)
 .text._thread_exit
                0x0000000000009a04       0x44 rtthread.arm.lib(thread.o)
 .text._thread_timeout
                0x0000000000009a48       0x9c rtthread.arm.lib(thread.o)
 .text._thread_init
                0x0000000000009ae4      0x114 rtthread.arm.lib(thread.o)
 .text.rt_thread_init
                0x0000000000009bf8       0x7c rtthread.arm.lib(thread.o)
                0x0000000000009bf8                arm_rt_thread_init
 .text.rt_thread_self
                0x0000000000009c74       0x38 rtthread.arm.lib(thread.o)
                0x0000000000009c74                arm_rt_thread_self
 .text.rt_thread_startup
                0x0000000000009cac       0xa0 rtthread.arm.lib(thread.o)
                0x0000000000009cac                arm_rt_thread_startup
 .text.rt_thread_detach
                0x0000000000009d4c       0xc4 rtthread.arm.lib(thread.o)
                0x0000000000009d4c                arm_rt_thread_detach
 .text.rt_thread_create
                0x0000000000009e10       0x70 rtthread.arm.lib(thread.o)
                0x0000000000009e10                arm_rt_thread_create
 .text.rt_thread_delete
                0x0000000000009e80       0xc4 rtthread.arm.lib(thread.o)
                0x0000000000009e80                arm_rt_thread_delete
 .text.rt_thread_control
                0x0000000000009f44      0x158 rtthread.arm.lib(thread.o)
                0x0000000000009f44                arm_rt_thread_control
 .text.rt_thread_suspend
                0x000000000000a09c       0xe4 rtthread.arm.lib(thread.o)
                0x000000000000a09c                arm_rt_thread_suspend
 .text.rt_thread_resume
                0x000000000000a180       0xa8 rtthread.arm.lib(thread.o)
                0x000000000000a180                arm_rt_thread_resume
 .text.rt_thread_find
                0x000000000000a228       0x1c rtthread.arm.lib(thread.o)
                0x000000000000a228                arm_rt_thread_find
 .text.rt_interrupt_get_nest
                0x000000000000a244       0x2e rtthread.arm.lib(irq.o)
                0x000000000000a244                arm_rt_interrupt_get_nest
 *fill*         0x000000000000a272        0x2 
 .text.rt_hw_stack_init
                0x000000000000a274       0x84 rtthread.arm.lib(cpuport.o)
                0x000000000000a274                arm_rt_hw_stack_init
 .text.rt_hw_hard_fault_exception
                0x000000000000a2f8       0xb8 rtthread.arm.lib(cpuport.o)
                0x000000000000a2f8                arm_rt_hw_hard_fault_exception
 .text.rt_poll_add
                0x000000000000a3b0       0x32 rtthread.arm.lib(serial.o)
 .text.serial_fops_rx_ind
                0x000000000000a3e2       0x20 rtthread.arm.lib(serial.o)
 *fill*         0x000000000000a402        0x2 
 .text.serial_fops_open
                0x000000000000a404       0xd4 rtthread.arm.lib(serial.o)
 .text.serial_fops_close
                0x000000000000a4d8       0x2a rtthread.arm.lib(serial.o)
 *fill*         0x000000000000a502        0x2 
 .text.serial_fops_ioctl
                0x000000000000a504       0x64 rtthread.arm.lib(serial.o)
 .text.serial_fops_read
                0x000000000000a568       0x62 rtthread.arm.lib(serial.o)
 .text.serial_fops_write
                0x000000000000a5ca       0x2a rtthread.arm.lib(serial.o)
 .text.serial_fops_poll
                0x000000000000a5f4       0xa4 rtthread.arm.lib(serial.o)
 .text._serial_poll_rx
                0x000000000000a698       0x84 rtthread.arm.lib(serial.o)
 .text._serial_poll_tx
                0x000000000000a71c       0x80 rtthread.arm.lib(serial.o)
 .text._serial_int_rx
                0x000000000000a79c       0xe8 rtthread.arm.lib(serial.o)
 .text._serial_int_tx
                0x000000000000a884       0xd0 rtthread.arm.lib(serial.o)
 .text._serial_check_buffer_size
                0x000000000000a954       0x30 rtthread.arm.lib(serial.o)
 .text._serial_fifo_calc_recved_len
                0x000000000000a984       0x8c rtthread.arm.lib(serial.o)
 .text.rt_serial_init
                0x000000000000aa10       0x64 rtthread.arm.lib(serial.o)
 .text.rt_serial_open
                0x000000000000aa74      0x24c rtthread.arm.lib(serial.o)
 .text.rt_serial_close
                0x000000000000acc0      0x118 rtthread.arm.lib(serial.o)
 .text.rt_serial_read
                0x000000000000add8       0x70 rtthread.arm.lib(serial.o)
 .text.rt_serial_write
                0x000000000000ae48       0x70 rtthread.arm.lib(serial.o)
 .text.rt_serial_control
                0x000000000000aeb8      0x34c rtthread.arm.lib(serial.o)
 .text.rt_hw_serial_register
                0x000000000000b204       0xac rtthread.arm.lib(serial.o)
                0x000000000000b204                arm_rt_hw_serial_register
 .text.rt_hw_serial_isr
                0x000000000000b2b0      0x15c rtthread.arm.lib(serial.o)
                0x000000000000b2b0                arm_rt_hw_serial_isr
 .text.finsh_getchar
                0x000000000000b40c       0x2e rtthread.arm.lib(shell.o)
                0x000000000000b40c                arm_finsh_getchar
 *fill*         0x000000000000b43a        0x2 
 .text.msh_help
                0x000000000000b43c       0x60 rtthread.arm.lib(msh.o)
                0x000000000000b43c                arm_msh_help
 .text.cmd_ps   0x000000000000b49c       0x18 rtthread.arm.lib(msh.o)
                0x000000000000b49c                arm_cmd_ps
 .text.cmd_free
                0x000000000000b4b4       0x64 rtthread.arm.lib(msh.o)
                0x000000000000b4b4                arm_cmd_free
 .text.rt_list_isempty
                0x000000000000b518       0x1e rtthread.arm.lib(cmd.o)
 .text.rt_list_len
                0x000000000000b536       0x32 rtthread.arm.lib(cmd.o)
 .text.clear    0x000000000000b568       0x18 rtthread.arm.lib(cmd.o)
 .text.version  0x000000000000b580       0x10 rtthread.arm.lib(cmd.o)
                0x000000000000b580                arm_version
 .text.object_split
                0x000000000000b590       0x2c rtthread.arm.lib(cmd.o)
 .text.list_find_init
                0x000000000000b5bc       0x50 rtthread.arm.lib(cmd.o)
 .text.list_get_next
                0x000000000000b60c       0xca rtthread.arm.lib(cmd.o)
 *fill*         0x000000000000b6d6        0x2 
 .text.list_thread
                0x000000000000b6d8      0x2b8 rtthread.arm.lib(cmd.o)
                0x000000000000b6d8                arm_list_thread
 .text.show_wait_queue
                0x000000000000b990       0x54 rtthread.arm.lib(cmd.o)
 .text.list_sem
                0x000000000000b9e4      0x138 rtthread.arm.lib(cmd.o)
                0x000000000000b9e4                arm_list_sem
 .text.list_event
                0x000000000000bb1c      0x128 rtthread.arm.lib(cmd.o)
                0x000000000000bb1c                arm_list_event
 .text.list_mutex
                0x000000000000bc44       0xf8 rtthread.arm.lib(cmd.o)
                0x000000000000bc44                arm_list_mutex
 .text.list_mailbox
                0x000000000000bd3c      0x148 rtthread.arm.lib(cmd.o)
                0x000000000000bd3c                arm_list_mailbox
 .text.list_msgqueue
                0x000000000000be84      0x138 rtthread.arm.lib(cmd.o)
                0x000000000000be84                arm_list_msgqueue
 .text.list_mempool
                0x000000000000bfbc      0x15c rtthread.arm.lib(cmd.o)
                0x000000000000bfbc                arm_list_mempool
 .text.list_timer
                0x000000000000c118      0x140 rtthread.arm.lib(cmd.o)
                0x000000000000c118                arm_list_timer
 .text.list_device
                0x000000000000c258      0x110 rtthread.arm.lib(cmd.o)
                0x000000000000c258                arm_list_device
 .text.rt_slist_first
                0x000000000000c368       0x14 rtthread.arm.lib(ulog.o)
 .text.rt_slist_next
                0x000000000000c37c       0x14 rtthread.arm.lib(ulog.o)
 .text.ulog_strcpy
                0x000000000000c390       0x78 rtthread.arm.lib(ulog.o)
                0x000000000000c390                arm_ulog_strcpy
 .text.ulog_ultoa
                0x000000000000c408       0xa6 rtthread.arm.lib(ulog.o)
                0x000000000000c408                arm_ulog_ultoa
 *fill*         0x000000000000c4ae        0x2 
 .text.output_unlock
                0x000000000000c4b0       0x44 rtthread.arm.lib(ulog.o)
 .text.output_lock
                0x000000000000c4f4       0x48 rtthread.arm.lib(ulog.o)
 .text.get_log_buf
                0x000000000000c53c       0x20 rtthread.arm.lib(ulog.o)
 .text.ulog_formater
                0x000000000000c55c      0x2f4 rtthread.arm.lib(ulog.o)
                0x000000000000c55c                arm_ulog_formater
 .text.ulog_output_to_all_backend
                0x000000000000c850      0x138 rtthread.arm.lib(ulog.o)
 .text.do_output
                0x000000000000c988       0x48 rtthread.arm.lib(ulog.o)
 .text.ulog_voutput
                0x000000000000c9d0       0xf4 rtthread.arm.lib(ulog.o)
                0x000000000000c9d0                arm_ulog_voutput
 .text.ulog_output
                0x000000000000cac4       0x34 rtthread.arm.lib(ulog.o)
                0x000000000000cac4                arm_ulog_output
 .text.enc32    0x000000000000caf8      0x6ca rtthread.arm.lib(main.o)
                0x000000000000caf8                arm_enc32
 *fill*         0x000000000000d1c2        0x2 
 .text.cipher_thread
                0x000000000000d1c4      0x310 rtthread.arm.lib(main.o)
 .text.main     0x000000000000d4d4       0x8c rtthread.arm.lib(main.o)
                0x000000000000d4d4                arm_main
 .text.BOARD_InitPins_Core1
                0x000000000000d560        0xa rtthread.arm.lib(pin_mux.o)
                0x000000000000d560                arm_BOARD_InitPins_Core1
 *fill*         0x000000000000d56a        0x2 
 .text.plug_holes
                0x000000000000d56c       0xf8 rtthread.arm.lib(mem.o)
 .text.rt_smem_init
                0x000000000000d664      0x114 rtthread.arm.lib(mem.o)
                0x000000000000d664                arm_rt_smem_init
 .text.rt_smem_alloc
                0x000000000000d778      0x278 rtthread.arm.lib(mem.o)
                0x000000000000d778                arm_rt_smem_alloc
 .text.rt_smem_realloc
                0x000000000000d9f0      0x1f0 rtthread.arm.lib(mem.o)
                0x000000000000d9f0                arm_rt_smem_realloc
 .text.rt_smem_free
                0x000000000000dbe0      0x158 rtthread.arm.lib(mem.o)
                0x000000000000dbe0                arm_rt_smem_free
 .text.open     0x000000000000dd38       0x80 rtthread.arm.lib(dfs_posix.o)
                0x000000000000dd38                arm_open
 .text.close    0x000000000000ddb8       0x64 rtthread.arm.lib(dfs_posix.o)
                0x000000000000ddb8                arm_close
 .text.read     0x000000000000de1c       0x6c rtthread.arm.lib(dfs_posix.o)
                0x000000000000de1c                arm_read
 .text.write    0x000000000000de88       0x6c rtthread.arm.lib(dfs_posix.o)
                0x000000000000de88                arm_write
 .text.lseek    0x000000000000def4       0xd4 rtthread.arm.lib(dfs_posix.o)
                0x000000000000def4                arm_lseek
 .text.rename   0x000000000000dfc8       0x38 rtthread.arm.lib(dfs_posix.o)
                0x000000000000dfc8                arm_rename
 .text.unlink   0x000000000000e000       0x32 rtthread.arm.lib(dfs_posix.o)
                0x000000000000e000                arm_unlink
 .text.stat     0x000000000000e032       0x38 rtthread.arm.lib(dfs_posix.o)
                0x000000000000e032                arm_stat
 *fill*         0x000000000000e06a        0x2 
 .text.mkdir    0x000000000000e06c       0x90 rtthread.arm.lib(dfs_posix.o)
                0x000000000000e06c                arm_mkdir
 .text.opendir  0x000000000000e0fc       0xb4 rtthread.arm.lib(dfs_posix.o)
                0x000000000000e0fc                arm_opendir
 .text.readdir  0x000000000000e1b0       0xe0 rtthread.arm.lib(dfs_posix.o)
                0x000000000000e1b0                arm_readdir
 .text.closedir
                0x000000000000e290       0x6e rtthread.arm.lib(dfs_posix.o)
                0x000000000000e290                arm_closedir
 *fill*         0x000000000000e2fe        0x2 
 .text.chdir    0x000000000000e300       0xc8 rtthread.arm.lib(dfs_posix.o)
                0x000000000000e300                arm_chdir
 .text.dfs_filesystem_lookup
                0x000000000000e3c8       0xc8 rtthread.arm.lib(dfs_fs.o)
                0x000000000000e3c8                arm_dfs_filesystem_lookup
 .text.dfs_mount
                0x000000000000e490      0x25c rtthread.arm.lib(dfs_fs.o)
                0x000000000000e490                arm_dfs_mount
 .text.dfs_unmount
                0x000000000000e6ec       0xec rtthread.arm.lib(dfs_fs.o)
                0x000000000000e6ec                arm_dfs_unmount
 .text.dfs_mkfs
                0x000000000000e7d8      0x104 rtthread.arm.lib(dfs_fs.o)
                0x000000000000e7d8                arm_dfs_mkfs
 .text.dfs_statfs
                0x000000000000e8dc       0x44 rtthread.arm.lib(dfs_fs.o)
                0x000000000000e8dc                arm_dfs_statfs
 .text.df       0x000000000000e920      0x1c8 rtthread.arm.lib(dfs_fs.o)
                0x000000000000e920                arm_df
 .text.dfs_lock
                0x000000000000eae8       0x4c rtthread.arm.lib(dfs.o)
                0x000000000000eae8                arm_dfs_lock
 .text.dfs_unlock
                0x000000000000eb34       0x18 rtthread.arm.lib(dfs.o)
                0x000000000000eb34                arm_dfs_unlock
 .text.fd_alloc
                0x000000000000eb4c      0x112 rtthread.arm.lib(dfs.o)
 *fill*         0x000000000000ec5e        0x2 
 .text.fd_new   0x000000000000ec60       0x74 rtthread.arm.lib(dfs.o)
                0x000000000000ec60                arm_fd_new
 .text.fd_get   0x000000000000ecd4       0x88 rtthread.arm.lib(dfs.o)
                0x000000000000ecd4                arm_fd_get
 .text.fd_put   0x000000000000ed5c       0x90 rtthread.arm.lib(dfs.o)
                0x000000000000ed5c                arm_fd_put
 .text.fd_is_open
                0x000000000000edec       0xf6 rtthread.arm.lib(dfs.o)
                0x000000000000edec                arm_fd_is_open
 .text.dfs_subdir
                0x000000000000eee2       0x56 rtthread.arm.lib(dfs.o)
                0x000000000000eee2                arm_dfs_subdir
 .text.dfs_normalize_path
                0x000000000000ef38      0x240 rtthread.arm.lib(dfs.o)
                0x000000000000ef38                arm_dfs_normalize_path
 .text.dfs_fdtable_get
                0x000000000000f178       0x18 rtthread.arm.lib(dfs.o)
                0x000000000000f178                arm_dfs_fdtable_get
 .text.list_fd  0x000000000000f190      0x1b0 rtthread.arm.lib(dfs.o)
                0x000000000000f190                arm_list_fd
 .text.dfs_file_open
                0x000000000000f340      0x160 rtthread.arm.lib(dfs_file.o)
                0x000000000000f340                arm_dfs_file_open
 .text.dfs_file_close
                0x000000000000f4a0       0x56 rtthread.arm.lib(dfs_file.o)
                0x000000000000f4a0                arm_dfs_file_close
 .text.dfs_file_read
                0x000000000000f4f6       0x5c rtthread.arm.lib(dfs_file.o)
                0x000000000000f4f6                arm_dfs_file_read
 .text.dfs_file_getdents
                0x000000000000f552       0x48 rtthread.arm.lib(dfs_file.o)
                0x000000000000f552                arm_dfs_file_getdents
 *fill*         0x000000000000f59a        0x2 
 .text.dfs_file_unlink
                0x000000000000f59c       0xe0 rtthread.arm.lib(dfs_file.o)
                0x000000000000f59c                arm_dfs_file_unlink
 .text.dfs_file_write
                0x000000000000f67c       0x40 rtthread.arm.lib(dfs_file.o)
                0x000000000000f67c                arm_dfs_file_write
 .text.dfs_file_lseek
                0x000000000000f6bc       0x4e rtthread.arm.lib(dfs_file.o)
                0x000000000000f6bc                arm_dfs_file_lseek
 *fill*         0x000000000000f70a        0x2 
 .text.dfs_file_stat
                0x000000000000f70c      0x138 rtthread.arm.lib(dfs_file.o)
                0x000000000000f70c                arm_dfs_file_stat
 .text.dfs_file_rename
                0x000000000000f844       0xf4 rtthread.arm.lib(dfs_file.o)
                0x000000000000f844                arm_dfs_file_rename
 .text.ls       0x000000000000f938      0x154 rtthread.arm.lib(dfs_file.o)
                0x000000000000f938                arm_ls
 .text.cat      0x000000000000fa8c       0x84 rtthread.arm.lib(dfs_file.o)
                0x000000000000fa8c                arm_cat
 .text.copyfile
                0x000000000000fb10      0x100 rtthread.arm.lib(dfs_file.o)
 .text.copydir  0x000000000000fc10      0x1e4 rtthread.arm.lib(dfs_file.o)
 .text._get_path_lastname
                0x000000000000fdf4       0x30 rtthread.arm.lib(dfs_file.o)
 .text.copy     0x000000000000fe24      0x190 rtthread.arm.lib(dfs_file.o)
                0x000000000000fe24                arm_copy
 .text.rt_list_init
                0x000000000000ffb4       0x1e rtthread.arm.lib(completion.o)
 .text.rt_list_insert_before
                0x000000000000ffd2       0x2e rtthread.arm.lib(completion.o)
 .text.rt_list_isempty
                0x0000000000010000       0x1e rtthread.arm.lib(completion.o)
 *fill*         0x000000000001001e        0x2 
 .text.rt_completion_init
                0x0000000000010020       0x4c rtthread.arm.lib(completion.o)
                0x0000000000010020                arm_rt_completion_init
 .text.rt_completion_wait
                0x000000000001006c       0xdc rtthread.arm.lib(completion.o)
                0x000000000001006c                arm_rt_completion_wait
 .text.rt_completion_done
                0x0000000000010148       0x78 rtthread.arm.lib(completion.o)
                0x0000000000010148                arm_rt_completion_done
 .text.rt_list_init
                0x00000000000101c0       0x1e rtthread.arm.lib(waitqueue.o)
 .text.rt_list_insert_before
                0x00000000000101de       0x2e rtthread.arm.lib(waitqueue.o)
 .text.rt_list_remove
                0x000000000001020c       0x32 rtthread.arm.lib(waitqueue.o)
 .text.rt_list_isempty
                0x000000000001023e       0x1e rtthread.arm.lib(waitqueue.o)
 .text.rt_wqueue_add
                0x000000000001025c       0x32 rtthread.arm.lib(waitqueue.o)
                0x000000000001025c                arm_rt_wqueue_add
 .text.rt_wqueue_remove
                0x000000000001028e       0x2a rtthread.arm.lib(waitqueue.o)
                0x000000000001028e                arm_rt_wqueue_remove
 .text.__wqueue_default_wake
                0x00000000000102b8       0x14 rtthread.arm.lib(waitqueue.o)
                0x00000000000102b8                arm___wqueue_default_wake
 .text.rt_wqueue_wakeup
                0x00000000000102cc       0x8c rtthread.arm.lib(waitqueue.o)
                0x00000000000102cc                arm_rt_wqueue_wakeup
 .text.rt_wqueue_wait
                0x0000000000010358       0xe0 rtthread.arm.lib(waitqueue.o)
                0x0000000000010358                arm_rt_wqueue_wait
 .text.cmd_ls   0x0000000000010438       0x34 rtthread.arm.lib(msh_file.o)
 .text.cmd_cp   0x000000000001046c       0x48 rtthread.arm.lib(msh_file.o)
 .text.cmd_mv   0x00000000000104b4      0x14c rtthread.arm.lib(msh_file.o)
 .text.cmd_cat  0x0000000000010600       0x5c rtthread.arm.lib(msh_file.o)
 .text.directory_delete_for_msh
                0x000000000001065c      0x17c rtthread.arm.lib(msh_file.o)
 .text.cmd_rm   0x00000000000107d8      0x1ec rtthread.arm.lib(msh_file.o)
 .text.cmd_cd   0x00000000000109c4       0x5c rtthread.arm.lib(msh_file.o)
 .text.cmd_pwd  0x0000000000010a20       0x28 rtthread.arm.lib(msh_file.o)
 .text.cmd_mkdir
                0x0000000000010a48       0x44 rtthread.arm.lib(msh_file.o)
 .text.cmd_mkfs
                0x0000000000010a8c       0x9c rtthread.arm.lib(msh_file.o)
 .text.cmd_mount
                0x0000000000010b28       0xe8 rtthread.arm.lib(msh_file.o)
 .text.cmd_umount
                0x0000000000010c10       0x6c rtthread.arm.lib(msh_file.o)
 .text.cmd_df   0x0000000000010c7c       0x74 rtthread.arm.lib(msh_file.o)
 .text.cmd_echo
                0x0000000000010cf0       0xa0 rtthread.arm.lib(msh_file.o)
 .text.cmd_tail
                0x0000000000010d90      0x1ec rtthread.arm.lib(msh_file.o)
 .text.mdelay   0x0000000000010f7c       0x24 rtthread.arm.lib(delay.o)
                0x0000000000010f7c                arm_mdelay
 .text.libc_stdio_get_console
                0x0000000000010fa0       0x28 rtthread.arm.lib(libc.o)
                0x0000000000010fa0                arm_libc_stdio_get_console
 .text.posix_sem_insert
                0x0000000000010fc8       0x24 rtthread.arm.lib(semaphore.o)
 .text.sem_init
                0x0000000000010fec       0xa4 rtthread.arm.lib(semaphore.o)
                0x0000000000010fec                arm_sem_init
 .text.sem_post
                0x0000000000011090       0x44 rtthread.arm.lib(semaphore.o)
                0x0000000000011090                arm_sem_post
 .text.sem_wait
                0x00000000000110d4       0x4a rtthread.arm.lib(semaphore.o)
                0x00000000000110d4                arm_sem_wait
 *fill*         0x000000000001111e        0x2 
 .text._pthread_get_data
                0x0000000000011120       0x58 rtthread.arm.lib(pthread.o)
                0x0000000000011120                arm__pthread_get_data
 .text._pthread_data_get_pth
                0x0000000000011178       0x50 rtthread.arm.lib(pthread.o)
                0x0000000000011178                arm__pthread_data_get_pth
 .text._pthread_data_create
                0x00000000000111c8       0xac rtthread.arm.lib(pthread.o)
                0x00000000000111c8                arm__pthread_data_create
 .text._pthread_data_destroy
                0x0000000000011274       0xe4 rtthread.arm.lib(pthread.o)
                0x0000000000011274                arm__pthread_data_destroy
 .text._pthread_cleanup
                0x0000000000011358       0x28 rtthread.arm.lib(pthread.o)
 .text.pthread_entry_stub
                0x0000000000011380       0x46 rtthread.arm.lib(pthread.o)
 *fill*         0x00000000000113c6        0x2 
 .text.pthread_create
                0x00000000000113c8      0x1e0 rtthread.arm.lib(pthread.o)
                0x00000000000113c8                arm_pthread_create
 .text.pthread_join
                0x00000000000115a8       0x82 rtthread.arm.lib(pthread.o)
                0x00000000000115a8                arm_pthread_join
 .text.ulog_console_backend_output
                0x000000000001162a       0x5a rtthread.arm.lib(console_be.o)
                0x000000000001162a                arm_ulog_console_backend_output
 .text.pthread_attr_init
                0x0000000000011684       0x3c rtthread.arm.lib(pthread_attr.o)
                0x0000000000011684                arm_pthread_attr_init
 .text.sdcard_reader_thread
                0x00000000000116c0      0x4da rtthread.risc-v.lib(main.o)
 .text.sdcard_writer_thread
                0x0000000000011b9a      0x69a rtthread.risc-v.lib(main.o)
 .text.main     0x0000000000012234      0x158 rtthread.risc-v.lib(main.o)
                0x0000000000012234                riscv_main
 .text.CLOCK_SetIpSrc
                0x000000000001238c       0x8c rtthread.risc-v.lib(board.o)
 .text.EnableIRQ
                0x0000000000012418       0x52 rtthread.risc-v.lib(board.o)
 .text.LPIT_GetCurrentTimerCount
                0x000000000001246a       0x26 rtthread.risc-v.lib(board.o)
 .text.MU_GetFlags
                0x0000000000012490       0x1a rtthread.risc-v.lib(board.o)
 .text.MU_GetStatusFlags
                0x00000000000124aa       0x22 rtthread.risc-v.lib(board.o)
 .text.MU_ClearStatusFlags
                0x00000000000124cc       0x56 rtthread.risc-v.lib(board.o)
 .text.MU_EnableInterrupts
                0x0000000000012522       0x40 rtthread.risc-v.lib(board.o)
 .text.XRDC_SetGlobalValid
                0x0000000000012562       0x44 rtthread.risc-v.lib(board.o)
 .text.XRDC_GetDefaultProcessorDomainAssignment
                0x00000000000125a6       0x48 rtthread.risc-v.lib(board.o)
 .text.XRDC_SetProcessorDomainAssignment
                0x00000000000125ee       0xf2 rtthread.risc-v.lib(board.o)
 .text.SEMA42_Unlock
                0x00000000000126e0       0x60 rtthread.risc-v.lib(board.o)
 .text.SEMA42_ResetAllGates
                0x0000000000012740       0x28 rtthread.risc-v.lib(board.o)
 .text.GPIO_WritePinOutput
                0x0000000000012768       0x44 rtthread.risc-v.lib(board.o)
 .text.APP_InitDomain
                0x00000000000127ac      0x2fc rtthread.risc-v.lib(board.o)
                0x00000000000127ac                riscv_APP_InitDomain
 .text.APP_DeinitDomain
                0x0000000000012aa8       0x20 rtthread.risc-v.lib(board.o)
                0x0000000000012aa8                riscv_APP_DeinitDomain
 .text.LPIT0_IRQHandler
                0x0000000000012ac8       0x22 rtthread.risc-v.lib(board.o)
                0x0000000000012ac8                riscv_LPIT0_IRQHandler
 .text.rt_hw_systick_init
                0x0000000000012aea       0x76 rtthread.risc-v.lib(board.o)
                0x0000000000012aea                riscv_rt_hw_systick_init
 .text.rt_hw_usec_get
                0x0000000000012b60       0x8e rtthread.risc-v.lib(board.o)
                0x0000000000012b60                riscv_rt_hw_usec_get
 .text.BOARD_InitLedPin
                0x0000000000012bee       0x30 rtthread.risc-v.lib(board.o)
 .text.rt_hw_cpu_id
                0x0000000000012c1e       0x10 rtthread.risc-v.lib(board.o)
                0x0000000000012c1e                riscv_rt_hw_cpu_id
 .text.rt_hw_spin_lock_init
                0x0000000000012c2e       0x1a rtthread.risc-v.lib(board.o)
                0x0000000000012c2e                riscv_rt_hw_spin_lock_init
 .text.rt_hw_spin_lock
                0x0000000000012c48       0x3a rtthread.risc-v.lib(board.o)
                0x0000000000012c48                riscv_rt_hw_spin_lock
 .text.rt_hw_spin_unlock
                0x0000000000012c82       0x3a rtthread.risc-v.lib(board.o)
                0x0000000000012c82                riscv_rt_hw_spin_unlock
 .text.rt_hw_ipi_send
                0x0000000000012cbc       0x84 rtthread.risc-v.lib(board.o)
                0x0000000000012cbc                riscv_rt_hw_ipi_send
 .text.MUA_IRQHandler
                0x0000000000012d40       0x9c rtthread.risc-v.lib(board.o)
                0x0000000000012d40                riscv_MUA_IRQHandler
 .text.rt_hw_secondary_cpu_up
                0x0000000000012ddc        0xe rtthread.risc-v.lib(board.o)
                0x0000000000012ddc                riscv_rt_hw_secondary_cpu_up
 .text.rt_hw_secondary_cpu_idle_exec
                0x0000000000012dea       0x12 rtthread.risc-v.lib(board.o)
                0x0000000000012dea                riscv_rt_hw_secondary_cpu_idle_exec
 .text.rt_hw_cpu_shutdown
                0x0000000000012dfc       0x54 rtthread.risc-v.lib(board.o)
                0x0000000000012dfc                riscv_rt_hw_cpu_shutdown
 .text.rt_hw_us_delay
                0x0000000000012e50       0x5a rtthread.risc-v.lib(board.o)
                0x0000000000012e50                riscv_rt_hw_us_delay
 .text.rt_hw_object_delete
                0x0000000000012eaa       0x5e rtthread.risc-v.lib(board.o)
                0x0000000000012eaa                riscv_rt_hw_object_delete
 .text.rt_hw_object_trytake
                0x0000000000012f08       0x12 rtthread.risc-v.lib(board.o)
                0x0000000000012f08                riscv_rt_hw_object_trytake
 .text.rt_hw_object_take
                0x0000000000012f1a       0xf2 rtthread.risc-v.lib(board.o)
                0x0000000000012f1a                riscv_rt_hw_object_take
 .text.rt_hw_object_put
                0x000000000001300c       0x70 rtthread.risc-v.lib(board.o)
                0x000000000001300c                riscv_rt_hw_object_put
 .text.rt_hw_object_dump
                0x000000000001307c       0x94 rtthread.risc-v.lib(board.o)
                0x000000000001307c                riscv_rt_hw_object_dump
 .text.rt_hw_board_init
                0x0000000000013110      0x184 rtthread.risc-v.lib(board.o)
                0x0000000000013110                riscv_rt_hw_board_init
 .text.mnt_init
                0x0000000000013294       0x48 rtthread.risc-v.lib(mnt.o)
                0x0000000000013294                riscv_mnt_init
 .text.CLOCK_SetVlprModeSysClkConfig
                0x00000000000132dc       0x4c rtthread.risc-v.lib(clock_config.o)
 .text.CLOCK_SetRunModeSysClkConfig
                0x0000000000013328       0x4c rtthread.risc-v.lib(clock_config.o)
 .text.CLOCK_SetHsrunModeSysClkConfig
                0x0000000000013374       0x4c rtthread.risc-v.lib(clock_config.o)
 .text.CLOCK_GetCurSysClkConfig
                0x00000000000133c0       0x4c rtthread.risc-v.lib(clock_config.o)
 .text.SMC_SetPowerModeProtection
                0x000000000001340c       0x22 rtthread.risc-v.lib(clock_config.o)
 .text.SMC_GetPowerModeState
                0x000000000001342e       0x1c rtthread.risc-v.lib(clock_config.o)
 .text.CLOCK_CONFIG_FircSafeConfig
                0x000000000001344a       0xaa rtthread.risc-v.lib(clock_config.o)
 .text.BOARD_InitBootClocks
                0x00000000000134f4       0x1a rtthread.risc-v.lib(clock_config.o)
                0x00000000000134f4                riscv_BOARD_InitBootClocks
 .text.BOARD_BootClockRUN
                0x000000000001350e       0x80 rtthread.risc-v.lib(clock_config.o)
                0x000000000001350e                riscv_BOARD_BootClockRUN
 .text.BOARD_BootClockHSRUN
                0x000000000001358e       0xb4 rtthread.risc-v.lib(clock_config.o)
                0x000000000001358e                riscv_BOARD_BootClockHSRUN
 .text.BOARD_BootClockVLPR
                0x0000000000013642       0xb2 rtthread.risc-v.lib(clock_config.o)
                0x0000000000013642                riscv_BOARD_BootClockVLPR
 .text.CLOCK_EnableClock
                0x00000000000136f4       0x56 rtthread.risc-v.lib(pin_mux.o)
 .text.PORT_SetPinConfig
                0x000000000001374a       0x68 rtthread.risc-v.lib(pin_mux.o)
 .text.PORT_SetPinMux
                0x00000000000137b2       0x46 rtthread.risc-v.lib(pin_mux.o)
 .text.BOARD_InitBootPins
                0x00000000000137f8       0x1a rtthread.risc-v.lib(pin_mux.o)
                0x00000000000137f8                riscv_BOARD_InitBootPins
 .text.BOARD_InitPins
                0x0000000000013812      0x204 rtthread.risc-v.lib(pin_mux.o)
                0x0000000000013812                riscv_BOARD_InitPins
 .text.entry    0x0000000000013a16       0x1c rtthread.risc-v.lib(startup.o)
                0x0000000000013a16                riscv_entry
 .text.main_thread_entry
                0x0000000000013a32       0x2e rtthread.risc-v.lib(startup.o)
                0x0000000000013a32                riscv_main_thread_entry
 .text.rt_application_init
                0x0000000000013a60       0x82 rtthread.risc-v.lib(startup.o)
                0x0000000000013a60                riscv_rt_application_init
 .text.rtthread_startup
                0x0000000000013ae2       0x6c rtthread.risc-v.lib(startup.o)
                0x0000000000013ae2                riscv_rtthread_startup
 .text.CLOCK_SetIpSrc
                0x0000000000013b4e       0x8c rtthread.risc-v.lib(drv_uart.o)
 .text.EnableIRQ
                0x0000000000013bda       0x52 rtthread.risc-v.lib(drv_uart.o)
 .text.DisableIRQ
                0x0000000000013c2c       0x54 rtthread.risc-v.lib(drv_uart.o)
 .text.LPUART_WriteByte
                0x0000000000013c80       0x22 rtthread.risc-v.lib(drv_uart.o)
 .text.LPUART_ReadByte
                0x0000000000013ca2       0x80 rtthread.risc-v.lib(drv_uart.o)
 .text.LPUART0_IRQHandler
                0x0000000000013d22       0x22 rtthread.risc-v.lib(drv_uart.o)
                0x0000000000013d22                riscv_LPUART0_IRQHandler
 .text.rt_hw_uart_init
                0x0000000000013d44      0x10c rtthread.risc-v.lib(drv_uart.o)
                0x0000000000013d44                riscv_rt_hw_uart_init
 .text.uart_configure
                0x0000000000013e50      0x1b2 rtthread.risc-v.lib(drv_uart.o)
 .text.uart_control
                0x0000000000014002       0x80 rtthread.risc-v.lib(drv_uart.o)
 .text.uart_putc
                0x0000000000014082       0x7c rtthread.risc-v.lib(drv_uart.o)
 .text.uart_getc
                0x00000000000140fe       0x7c rtthread.risc-v.lib(drv_uart.o)
 .text.uart_dma_transmit
                0x000000000001417a       0x20 rtthread.risc-v.lib(drv_uart.o)
 .text.uart_isr
                0x000000000001419a       0xba rtthread.risc-v.lib(drv_uart.o)
 .text.CLOCK_SetIpSrc
                0x0000000000014254       0x8c rtthread.risc-v.lib(drv_sdcard.o)
 .text.vega_sdcard_init
                0x00000000000142e0       0x14 rtthread.risc-v.lib(drv_sdcard.o)
 .text.vega_sdcard_open
                0x00000000000142f4       0x1a rtthread.risc-v.lib(drv_sdcard.o)
 .text.vega_sdcard_close
                0x000000000001430e       0x14 rtthread.risc-v.lib(drv_sdcard.o)
 .text.vega_sdcard_read
                0x0000000000014322       0x7a rtthread.risc-v.lib(drv_sdcard.o)
 .text.vega_sdcard_write
                0x000000000001439c       0x7a rtthread.risc-v.lib(drv_sdcard.o)
 .text.vega_sdcard_control
                0x0000000000014416       0x7c rtthread.risc-v.lib(drv_sdcard.o)
 .text.rt_hw_sdcard_init
                0x0000000000014492      0x1e0 rtthread.risc-v.lib(drv_sdcard.o)
                0x0000000000014492                riscv_rt_hw_sdcard_init
 .text.CLOCK_EnableClock
                0x0000000000014672       0x56 rtthread.risc-v.lib(system_RV32M1_ri5cy.o)
 .text.EnableIRQ
                0x00000000000146c8       0x52 rtthread.risc-v.lib(system_RV32M1_ri5cy.o)
 .text.copy_section
                0x000000000001471a       0x48 rtthread.risc-v.lib(system_RV32M1_ri5cy.o)
 .text.zero_section
                0x0000000000014762       0x3e rtthread.risc-v.lib(system_RV32M1_ri5cy.o)
 .text.DMA0_0_4_8_12_IRQHandler
                0x00000000000147a0       0x1a rtthread.risc-v.lib(system_RV32M1_ri5cy.o)
                0x00000000000147a0                riscv_DMA0_0_4_8_12_IRQHandler
 .text.DMA0_1_5_9_13_IRQHandler
                0x00000000000147ba       0x1a rtthread.risc-v.lib(system_RV32M1_ri5cy.o)
                0x00000000000147ba                riscv_DMA0_1_5_9_13_IRQHandler
 .text.DMA0_2_6_10_14_IRQHandler
                0x00000000000147d4       0x1a rtthread.risc-v.lib(system_RV32M1_ri5cy.o)
                0x00000000000147d4                riscv_DMA0_2_6_10_14_IRQHandler
 .text.DMA0_3_7_11_15_IRQHandler
                0x00000000000147ee       0x1a rtthread.risc-v.lib(system_RV32M1_ri5cy.o)
                0x00000000000147ee                riscv_DMA0_3_7_11_15_IRQHandler
 .text.FLEXIO0_IRQHandler
                0x0000000000014808       0x1a rtthread.risc-v.lib(system_RV32M1_ri5cy.o)
                0x0000000000014808                riscv_FLEXIO0_IRQHandler
 .text.LPI2C0_IRQHandler
                0x0000000000014822       0x1a rtthread.risc-v.lib(system_RV32M1_ri5cy.o)
                0x0000000000014822                riscv_LPI2C0_IRQHandler
 .text.LPI2C1_IRQHandler
                0x000000000001483c       0x1a rtthread.risc-v.lib(system_RV32M1_ri5cy.o)
                0x000000000001483c                riscv_LPI2C1_IRQHandler
 .text.LPI2C2_IRQHandler
                0x0000000000014856       0x1a rtthread.risc-v.lib(system_RV32M1_ri5cy.o)
                0x0000000000014856                riscv_LPI2C2_IRQHandler
 .text.I2S0_IRQHandler
                0x0000000000014870       0x1a rtthread.risc-v.lib(system_RV32M1_ri5cy.o)
                0x0000000000014870                riscv_I2S0_IRQHandler
 .text.USDHC0_IRQHandler
                0x000000000001488a       0x1a rtthread.risc-v.lib(system_RV32M1_ri5cy.o)
                0x000000000001488a                riscv_USDHC0_IRQHandler
 .text.LPSPI0_IRQHandler
                0x00000000000148a4       0x1a rtthread.risc-v.lib(system_RV32M1_ri5cy.o)
                0x00000000000148a4                riscv_LPSPI0_IRQHandler
 .text.LPSPI1_IRQHandler
                0x00000000000148be       0x1a rtthread.risc-v.lib(system_RV32M1_ri5cy.o)
                0x00000000000148be                riscv_LPSPI1_IRQHandler
 .text.LPSPI2_IRQHandler
                0x00000000000148d8       0x1a rtthread.risc-v.lib(system_RV32M1_ri5cy.o)
                0x00000000000148d8                riscv_LPSPI2_IRQHandler
 .text.LPUART0_IRQHandler
                0x00000000000148f2       0x1a rtthread.risc-v.lib(system_RV32M1_ri5cy.o)
 .text.LPUART1_IRQHandler
                0x000000000001490c       0x1a rtthread.risc-v.lib(system_RV32M1_ri5cy.o)
                0x000000000001490c                riscv_LPUART1_IRQHandler
 .text.LPUART2_IRQHandler
                0x0000000000014926       0x1a rtthread.risc-v.lib(system_RV32M1_ri5cy.o)
                0x0000000000014926                riscv_LPUART2_IRQHandler
 .text.LPI2C3_IRQHandler
                0x0000000000014940       0x1a rtthread.risc-v.lib(system_RV32M1_ri5cy.o)
                0x0000000000014940                riscv_LPI2C3_IRQHandler
 .text.LPSPI3_IRQHandler
                0x000000000001495a       0x1a rtthread.risc-v.lib(system_RV32M1_ri5cy.o)
                0x000000000001495a                riscv_LPSPI3_IRQHandler
 .text.LPUART3_IRQHandler
                0x0000000000014974       0x1a rtthread.risc-v.lib(system_RV32M1_ri5cy.o)
                0x0000000000014974                riscv_LPUART3_IRQHandler
 .text.INTMUX0_0_IRQHandler
                0x000000000001498e       0x1a rtthread.risc-v.lib(system_RV32M1_ri5cy.o)
                0x000000000001498e                riscv_INTMUX0_0_IRQHandler
 .text.INTMUX0_1_IRQHandler
                0x00000000000149a8       0x1a rtthread.risc-v.lib(system_RV32M1_ri5cy.o)
                0x00000000000149a8                riscv_INTMUX0_1_IRQHandler
 .text.INTMUX0_2_IRQHandler
                0x00000000000149c2       0x1a rtthread.risc-v.lib(system_RV32M1_ri5cy.o)
                0x00000000000149c2                riscv_INTMUX0_2_IRQHandler
 .text.INTMUX0_3_IRQHandler
                0x00000000000149dc       0x1a rtthread.risc-v.lib(system_RV32M1_ri5cy.o)
                0x00000000000149dc                riscv_INTMUX0_3_IRQHandler
 .text.INTMUX0_4_IRQHandler
                0x00000000000149f6       0x1a rtthread.risc-v.lib(system_RV32M1_ri5cy.o)
                0x00000000000149f6                riscv_INTMUX0_4_IRQHandler
 .text.INTMUX0_5_IRQHandler
                0x0000000000014a10       0x1a rtthread.risc-v.lib(system_RV32M1_ri5cy.o)
                0x0000000000014a10                riscv_INTMUX0_5_IRQHandler
 .text.INTMUX0_6_IRQHandler
                0x0000000000014a2a       0x1a rtthread.risc-v.lib(system_RV32M1_ri5cy.o)
                0x0000000000014a2a                riscv_INTMUX0_6_IRQHandler
 .text.INTMUX0_7_IRQHandler
                0x0000000000014a44       0x1a rtthread.risc-v.lib(system_RV32M1_ri5cy.o)
                0x0000000000014a44                riscv_INTMUX0_7_IRQHandler
 .text.DefaultIRQHandler
                0x0000000000014a5e        0x8 rtthread.risc-v.lib(system_RV32M1_ri5cy.o)
                0x0000000000014a5e                riscv_LPI2C2_DriverIRQHandler
                0x0000000000014a5e                riscv_LPSPI1_DriverIRQHandler
                0x0000000000014a5e                riscv_LPIT1_IRQHandler
                0x0000000000014a5e                riscv_RF0_0_IRQHandler
                0x0000000000014a5e                riscv_DMA0_Error_IRQHandler
                0x0000000000014a5e                riscv_INTMUX0_8_DriverIRQHandler
                0x0000000000014a5e                riscv_CAU3_Task_Complete_IRQHandler
                0x0000000000014a5e                riscv_LPTMR0_IRQHandler
                0x0000000000014a5e                riscv_INTMUX0_0_DriverIRQHandler
                0x0000000000014a5e                riscv_TPM0_IRQHandler
                0x0000000000014a5e                riscv_LPTMR1_IRQHandler
                0x0000000000014a5e                riscv_SPM_IRQHandler
                0x0000000000014a5e                riscv_I2S0_DriverIRQHandler
                0x0000000000014a5e                riscv_LPI2C1_DriverIRQHandler
                0x0000000000014a5e                riscv_TPM2_IRQHandler
                0x0000000000014a5e                riscv_TRNG_IRQHandler
                0x0000000000014a5e                riscv_PORTC_IRQHandler
                0x0000000000014a5e                riscv_WDOG0_IRQHandler
                0x0000000000014a5e                riscv_DMA0_1_5_9_13_DriverIRQHandler
                0x0000000000014a5e                riscv_LPI2C3_DriverIRQHandler
                0x0000000000014a5e                riscv_RTC_IRQHandler
                0x0000000000014a5e                riscv_DMA0_0_4_8_12_DriverIRQHandler
                0x0000000000014a5e                riscv_INTMUX0_6_DriverIRQHandler
                0x0000000000014a5e                riscv_LPSPI0_DriverIRQHandler
                0x0000000000014a5e                riscv_DMA0_3_7_11_15_DriverIRQHandler
                0x0000000000014a5e                riscv_LPCMP1_IRQHandler
                0x0000000000014a5e                riscv_INTMUX0_7_DriverIRQHandler
                0x0000000000014a5e                riscv_PORTD_IRQHandler
                0x0000000000014a5e                riscv_LLWU0_IRQHandler
                0x0000000000014a5e                riscv_LPSPI3_DriverIRQHandler
                0x0000000000014a5e                riscv_USB0_IRQHandler
                0x0000000000014a5e                riscv_PORTA_IRQHandler
                0x0000000000014a5e                riscv_FTFE_Read_Collision_IRQHandler
                0x0000000000014a5e                riscv_FLEXIO0_DriverIRQHandler
                0x0000000000014a5e                riscv_INTMUX0_2_DriverIRQHandler
                0x0000000000014a5e                riscv_CMC0_IRQHandler
                0x0000000000014a5e                riscv_LPI2C0_DriverIRQHandler
                0x0000000000014a5e                riscv_FTFE_Command_Complete_IRQHandler
                0x0000000000014a5e                riscv_INTMUX0_1_DriverIRQHandler
                0x0000000000014a5e                riscv_TPM1_IRQHandler
                0x0000000000014a5e                riscv_LPCMP0_IRQHandler
                0x0000000000014a5e                riscv_LPTMR2_IRQHandler
                0x0000000000014a5e                riscv_EMVSIM0_IRQHandler
                0x0000000000014a5e                riscv_TPM3_IRQHandler
                0x0000000000014a5e                riscv_ADC0_IRQHandler
                0x0000000000014a5e                riscv_INTMUX0_3_DriverIRQHandler
                0x0000000000014a5e                riscv_INTMUX0_5_DriverIRQHandler
                0x0000000000014a5e                riscv_LPSPI2_DriverIRQHandler
                0x0000000000014a5e                riscv_PORTB_IRQHandler
                0x0000000000014a5e                riscv_EWM_IRQHandler
                0x0000000000014a5e                riscv_SCG_IRQHandler
                0x0000000000014a5e                riscv_CAU3_Security_Violation_IRQHandler
                0x0000000000014a5e                riscv_RF0_1_IRQHandler
                0x0000000000014a5e                riscv_INTMUX0_4_DriverIRQHandler
                0x0000000000014a5e                riscv_PORTE_IRQHandler
                0x0000000000014a5e                riscv_DMA0_2_6_10_14_DriverIRQHandler
                0x0000000000014a5e                riscv_LPDAC0_IRQHandler
 .text.SystemInit
                0x0000000000014a66       0xb6 rtthread.risc-v.lib(system_RV32M1_ri5cy.o)
                0x0000000000014a66                riscv_SystemInit
 .text.SystemCoreClockUpdate
                0x0000000000014b1c       0xe6 rtthread.risc-v.lib(system_RV32M1_ri5cy.o)
                0x0000000000014b1c                riscv_SystemCoreClockUpdate
 .text.SystemInitHook
                0x0000000000014c02        0xe rtthread.risc-v.lib(system_RV32M1_ri5cy.o)
                0x0000000000014c02                riscv_SystemInitHook
 .text.SystemIrqHandler
                0x0000000000014c10       0x82 rtthread.risc-v.lib(system_RV32M1_ri5cy.o)
                0x0000000000014c10                riscv_SystemIrqHandler
 .text.SystemSetupSystick
                0x0000000000014c92       0xba rtthread.risc-v.lib(system_RV32M1_ri5cy.o)
                0x0000000000014c92                riscv_SystemSetupSystick
 .text.SystemGetIRQNestingLevel
                0x0000000000014d4c       0x16 rtthread.risc-v.lib(system_RV32M1_ri5cy.o)
                0x0000000000014d4c                riscv_SystemGetIRQNestingLevel
 .text.SystemClearSystickFlag
                0x0000000000014d62       0x16 rtthread.risc-v.lib(system_RV32M1_ri5cy.o)
                0x0000000000014d62                riscv_SystemClearSystickFlag
 .text.EVENT_SetIRQPriority
                0x0000000000014d78       0x8a rtthread.risc-v.lib(system_RV32M1_ri5cy.o)
                0x0000000000014d78                riscv_EVENT_SetIRQPriority
 .text.EVENT_GetIRQPriority
                0x0000000000014e02       0x64 rtthread.risc-v.lib(system_RV32M1_ri5cy.o)
                0x0000000000014e02                riscv_EVENT_GetIRQPriority
 .text.SystemInISR
                0x0000000000014e66       0x1c rtthread.risc-v.lib(system_RV32M1_ri5cy.o)
                0x0000000000014e66                riscv_SystemInISR
 .text.EVENT_SystemReset
                0x0000000000014e82       0x24 rtthread.risc-v.lib(system_RV32M1_ri5cy.o)
                0x0000000000014e82                riscv_EVENT_SystemReset
 .text.CLOCK_EnableClock
                0x0000000000014ea6       0x56 rtthread.risc-v.lib(fsl_lpuart.o)
 .text.CLOCK_DisableClock
                0x0000000000014efc       0x58 rtthread.risc-v.lib(fsl_lpuart.o)
 .text.EnableIRQ
                0x0000000000014f54       0x52 rtthread.risc-v.lib(fsl_lpuart.o)
 .text.LPUART_SoftwareReset
                0x0000000000014fa6       0x32 rtthread.risc-v.lib(fsl_lpuart.o)
 .text.LPUART_GetInstance
                0x0000000000014fd8       0x80 rtthread.risc-v.lib(fsl_lpuart.o)
                0x0000000000014fd8                riscv_LPUART_GetInstance
 .text.LPUART_TransferGetRxRingBufferLength
                0x0000000000015058       0xb2 rtthread.risc-v.lib(fsl_lpuart.o)
 .text.LPUART_TransferIsRxRingBufferFull
                0x000000000001510a       0x72 rtthread.risc-v.lib(fsl_lpuart.o)
 .text.LPUART_WriteNonBlocking
                0x000000000001517c       0x7a rtthread.risc-v.lib(fsl_lpuart.o)
 .text.LPUART_ReadNonBlocking
                0x00000000000151f6       0xee rtthread.risc-v.lib(fsl_lpuart.o)
 .text.LPUART_Init
                0x00000000000152e4      0x4b8 rtthread.risc-v.lib(fsl_lpuart.o)
                0x00000000000152e4                riscv_LPUART_Init
 .text.LPUART_Deinit
                0x000000000001579c       0xa0 rtthread.risc-v.lib(fsl_lpuart.o)
                0x000000000001579c                riscv_LPUART_Deinit
 .text.LPUART_GetDefaultConfig
                0x000000000001583c       0xbc rtthread.risc-v.lib(fsl_lpuart.o)
                0x000000000001583c                riscv_LPUART_GetDefaultConfig
 .text.LPUART_SetBaudRate
                0x00000000000158f8      0x1fe rtthread.risc-v.lib(fsl_lpuart.o)
                0x00000000000158f8                riscv_LPUART_SetBaudRate
 .text.LPUART_EnableInterrupts
                0x0000000000015af6       0x6e rtthread.risc-v.lib(fsl_lpuart.o)
                0x0000000000015af6                riscv_LPUART_EnableInterrupts
 .text.LPUART_DisableInterrupts
                0x0000000000015b64       0x7a rtthread.risc-v.lib(fsl_lpuart.o)
                0x0000000000015b64                riscv_LPUART_DisableInterrupts
 .text.LPUART_GetEnabledInterrupts
                0x0000000000015bde       0x50 rtthread.risc-v.lib(fsl_lpuart.o)
                0x0000000000015bde                riscv_LPUART_GetEnabledInterrupts
 .text.LPUART_GetStatusFlags
                0x0000000000015c2e       0x36 rtthread.risc-v.lib(fsl_lpuart.o)
                0x0000000000015c2e                riscv_LPUART_GetStatusFlags
 .text.LPUART_ClearStatusFlags
                0x0000000000015c64       0xfc rtthread.risc-v.lib(fsl_lpuart.o)
                0x0000000000015c64                riscv_LPUART_ClearStatusFlags
 .text.LPUART_WriteBlocking
                0x0000000000015d60       0x7e rtthread.risc-v.lib(fsl_lpuart.o)
                0x0000000000015d60                riscv_LPUART_WriteBlocking
 .text.LPUART_ReadBlocking
                0x0000000000015dde      0x188 rtthread.risc-v.lib(fsl_lpuart.o)
                0x0000000000015dde                riscv_LPUART_ReadBlocking
 .text.LPUART_TransferCreateHandle
                0x0000000000015f66      0x12c rtthread.risc-v.lib(fsl_lpuart.o)
                0x0000000000015f66                riscv_LPUART_TransferCreateHandle
 .text.LPUART_TransferStartRingBuffer
                0x0000000000016092       0xaa rtthread.risc-v.lib(fsl_lpuart.o)
                0x0000000000016092                riscv_LPUART_TransferStartRingBuffer
 .text.LPUART_TransferStopRingBuffer
                0x000000000001613c       0x86 rtthread.risc-v.lib(fsl_lpuart.o)
                0x000000000001613c                riscv_LPUART_TransferStopRingBuffer
 .text.LPUART_TransferSendNonBlocking
                0x00000000000161c2      0x12c rtthread.risc-v.lib(fsl_lpuart.o)
                0x00000000000161c2                riscv_LPUART_TransferSendNonBlocking
 .text.LPUART_TransferAbortSend
                0x00000000000162ee       0x64 rtthread.risc-v.lib(fsl_lpuart.o)
                0x00000000000162ee                riscv_LPUART_TransferAbortSend
 .text.LPUART_TransferGetSendCount
                0x0000000000016352       0x9a rtthread.risc-v.lib(fsl_lpuart.o)
                0x0000000000016352                riscv_LPUART_TransferGetSendCount
 .text.LPUART_TransferReceiveNonBlocking
                0x00000000000163ec      0x2a8 rtthread.risc-v.lib(fsl_lpuart.o)
                0x00000000000163ec                riscv_LPUART_TransferReceiveNonBlocking
 .text.LPUART_TransferAbortReceive
                0x0000000000016694       0x6e rtthread.risc-v.lib(fsl_lpuart.o)
                0x0000000000016694                riscv_LPUART_TransferAbortReceive
 .text.LPUART_TransferGetReceiveCount
                0x0000000000016702       0x9e rtthread.risc-v.lib(fsl_lpuart.o)
                0x0000000000016702                riscv_LPUART_TransferGetReceiveCount
 .text.LPUART_TransferHandleIRQ
                0x00000000000167a0      0x51e rtthread.risc-v.lib(fsl_lpuart.o)
                0x00000000000167a0                riscv_LPUART_TransferHandleIRQ
 .text.LPUART_TransferHandleErrorIRQ
                0x0000000000016cbe       0x16 rtthread.risc-v.lib(fsl_lpuart.o)
                0x0000000000016cbe                riscv_LPUART_TransferHandleErrorIRQ
 .text.LPUART0_DriverIRQHandler
                0x0000000000016cd4       0x2a rtthread.risc-v.lib(fsl_lpuart.o)
                0x0000000000016cd4                riscv_LPUART0_DriverIRQHandler
 .text.LPUART1_DriverIRQHandler
                0x0000000000016cfe       0x2c rtthread.risc-v.lib(fsl_lpuart.o)
                0x0000000000016cfe                riscv_LPUART1_DriverIRQHandler
 .text.LPUART2_DriverIRQHandler
                0x0000000000016d2a       0x2c rtthread.risc-v.lib(fsl_lpuart.o)
                0x0000000000016d2a                riscv_LPUART2_DriverIRQHandler
 .text.LPUART3_DriverIRQHandler
                0x0000000000016d56       0x2c rtthread.risc-v.lib(fsl_lpuart.o)
                0x0000000000016d56                riscv_LPUART3_DriverIRQHandler
 .text.SMC_SetPowerModeRun
                0x0000000000016d82       0x34 rtthread.risc-v.lib(fsl_msmc.o)
                0x0000000000016d82                riscv_SMC_SetPowerModeRun
 .text.SMC_SetPowerModeHsrun
                0x0000000000016db6       0x40 rtthread.risc-v.lib(fsl_msmc.o)
                0x0000000000016db6                riscv_SMC_SetPowerModeHsrun
 .text.SMC_SetPowerModeWait
                0x0000000000016df6       0x34 rtthread.risc-v.lib(fsl_msmc.o)
                0x0000000000016df6                riscv_SMC_SetPowerModeWait
 .text.SMC_SetPowerModeStop
                0x0000000000016e2a       0x6e rtthread.risc-v.lib(fsl_msmc.o)
                0x0000000000016e2a                riscv_SMC_SetPowerModeStop
 .text.SMC_SetPowerModeVlpr
                0x0000000000016e98       0x40 rtthread.risc-v.lib(fsl_msmc.o)
                0x0000000000016e98                riscv_SMC_SetPowerModeVlpr
 .text.SMC_SetPowerModeVlpw
                0x0000000000016ed8       0x34 rtthread.risc-v.lib(fsl_msmc.o)
                0x0000000000016ed8                riscv_SMC_SetPowerModeVlpw
 .text.SMC_SetPowerModeVlps
                0x0000000000016f0c       0x60 rtthread.risc-v.lib(fsl_msmc.o)
                0x0000000000016f0c                riscv_SMC_SetPowerModeVlps
 .text.SMC_SetPowerModeLls
                0x0000000000016f6c       0x60 rtthread.risc-v.lib(fsl_msmc.o)
                0x0000000000016f6c                riscv_SMC_SetPowerModeLls
 .text.SMC_SetPowerModeVlls0
                0x0000000000016fcc       0x60 rtthread.risc-v.lib(fsl_msmc.o)
                0x0000000000016fcc                riscv_SMC_SetPowerModeVlls0
 .text.SMC_SetPowerModeVlls2
                0x000000000001702c       0x60 rtthread.risc-v.lib(fsl_msmc.o)
                0x000000000001702c                riscv_SMC_SetPowerModeVlls2
 .text.SMC_ConfigureResetPinFilter
                0x000000000001708c       0x6e rtthread.risc-v.lib(fsl_msmc.o)
                0x000000000001708c                riscv_SMC_ConfigureResetPinFilter
 .text.CLOCK_EnableClock
                0x00000000000170fa       0x56 rtthread.risc-v.lib(fsl_xrdc.o)
 .text.CLOCK_DisableClock
                0x0000000000017150       0x58 rtthread.risc-v.lib(fsl_xrdc.o)
 .text.DisableGlobalIRQ
                0x00000000000171a8       0x1a rtthread.risc-v.lib(fsl_xrdc.o)
 .text.EnableGlobalIRQ
                0x00000000000171c2       0x1a rtthread.risc-v.lib(fsl_xrdc.o)
 .text.XRDC_GetCurrentMasterDomainId
                0x00000000000171dc       0x24 rtthread.risc-v.lib(fsl_xrdc.o)
 .text.XRDC_CountLeadingZeros
                0x0000000000017200       0x44 rtthread.risc-v.lib(fsl_xrdc.o)
 .text.XRDC_Init
                0x0000000000017244       0x4c rtthread.risc-v.lib(fsl_xrdc.o)
                0x0000000000017244                riscv_XRDC_Init
 .text.XRDC_Deinit
                0x0000000000017290       0x4c rtthread.risc-v.lib(fsl_xrdc.o)
                0x0000000000017290                riscv_XRDC_Deinit
 .text.XRDC_GetHardwareConfig
                0x00000000000172dc       0xb8 rtthread.risc-v.lib(fsl_xrdc.o)
                0x00000000000172dc                riscv_XRDC_GetHardwareConfig
 .text.XRDC_GetAndClearFirstDomainError
                0x0000000000017394       0x3c rtthread.risc-v.lib(fsl_xrdc.o)
                0x0000000000017394                riscv_XRDC_GetAndClearFirstDomainError
 .text.XRDC_GetAndClearFirstSpecificDomainError
                0x00000000000173d0      0x13a rtthread.risc-v.lib(fsl_xrdc.o)
                0x00000000000173d0                riscv_XRDC_GetAndClearFirstSpecificDomainError
 .text.XRDC_GetMemAccessDefaultConfig
                0x000000000001750a       0xb4 rtthread.risc-v.lib(fsl_xrdc.o)
                0x000000000001750a                riscv_XRDC_GetMemAccessDefaultConfig
 .text.XRDC_SetMemAccessConfig
                0x00000000000175be      0x19e rtthread.risc-v.lib(fsl_xrdc.o)
                0x00000000000175be                riscv_XRDC_SetMemAccessConfig
 .text.XRDC_SetMemExclAccessLockMode
                0x000000000001775c       0x94 rtthread.risc-v.lib(fsl_xrdc.o)
                0x000000000001775c                riscv_XRDC_SetMemExclAccessLockMode
 .text.XRDC_ForceMemExclAccessLockRelease
                0x00000000000177f0       0x66 rtthread.risc-v.lib(fsl_xrdc.o)
                0x00000000000177f0                riscv_XRDC_ForceMemExclAccessLockRelease
 .text.XRDC_SetMemAccsetLock
                0x0000000000017856       0xa4 rtthread.risc-v.lib(fsl_xrdc.o)
                0x0000000000017856                riscv_XRDC_SetMemAccsetLock
 .text.XRDC_GetPeriphAccessDefaultConfig
                0x00000000000178fa       0x7a rtthread.risc-v.lib(fsl_xrdc.o)
                0x00000000000178fa                riscv_XRDC_GetPeriphAccessDefaultConfig
 .text.XRDC_SetPeriphAccessConfig
                0x0000000000017974       0xf6 rtthread.risc-v.lib(fsl_xrdc.o)
                0x0000000000017974                riscv_XRDC_SetPeriphAccessConfig
 .text.XRDC_ForcePeriphExclAccessLockRelease
                0x0000000000017a6a       0x66 rtthread.risc-v.lib(fsl_xrdc.o)
                0x0000000000017a6a                riscv_XRDC_ForcePeriphExclAccessLockRelease
 .text.__assert_func
                0x0000000000017ad0       0x1a rtthread.risc-v.lib(fsl_common.o)
                0x0000000000017ad0                riscv___assert_func
 .text.CLOCK_EnableClock
                0x0000000000017aea       0x56 rtthread.risc-v.lib(fsl_clock.o)
 .text.CLOCK_SetIpSrc
                0x0000000000017b40       0x8c rtthread.risc-v.lib(fsl_clock.o)
 .text.CLOCK_GetLpoClkFreq
                0x0000000000017bcc       0x12 rtthread.risc-v.lib(fsl_clock.o)
 .text.CLOCK_GetCurSysClkConfig
                0x0000000000017bde       0x4c rtthread.risc-v.lib(fsl_clock.o)
 .text.CLOCK_GetOsc32kClkFreq
                0x0000000000017c2a       0x48 rtthread.risc-v.lib(fsl_clock.o)
                0x0000000000017c2a                riscv_CLOCK_GetOsc32kClkFreq
 .text.CLOCK_GetFlashClkFreq
                0x0000000000017c72       0x1e rtthread.risc-v.lib(fsl_clock.o)
                0x0000000000017c72                riscv_CLOCK_GetFlashClkFreq
 .text.CLOCK_GetBusClkFreq
                0x0000000000017c90       0x1e rtthread.risc-v.lib(fsl_clock.o)
                0x0000000000017c90                riscv_CLOCK_GetBusClkFreq
 .text.CLOCK_GetPlatClkFreq
                0x0000000000017cae       0x1e rtthread.risc-v.lib(fsl_clock.o)
                0x0000000000017cae                riscv_CLOCK_GetPlatClkFreq
 .text.CLOCK_GetCoreSysClkFreq
                0x0000000000017ccc       0x1e rtthread.risc-v.lib(fsl_clock.o)
                0x0000000000017ccc                riscv_CLOCK_GetCoreSysClkFreq
 .text.CLOCK_GetExtClkFreq
                0x0000000000017cea       0x1e rtthread.risc-v.lib(fsl_clock.o)
                0x0000000000017cea                riscv_CLOCK_GetExtClkFreq
 .text.CLOCK_GetFreq
                0x0000000000017d08      0x194 rtthread.risc-v.lib(fsl_clock.o)
                0x0000000000017d08                riscv_CLOCK_GetFreq
 .text.CLOCK_GetIpFreq
                0x0000000000017e9c      0x14a rtthread.risc-v.lib(fsl_clock.o)
                0x0000000000017e9c                riscv_CLOCK_GetIpFreq
 .text.CLOCK_EnableUsbfs0Clock
                0x0000000000017fe6       0xaa rtthread.risc-v.lib(fsl_clock.o)
                0x0000000000017fe6                riscv_CLOCK_EnableUsbfs0Clock
 .text.CLOCK_GetSysClkFreq
                0x0000000000018090      0x114 rtthread.risc-v.lib(fsl_clock.o)
                0x0000000000018090                riscv_CLOCK_GetSysClkFreq
 .text.CLOCK_InitSysOsc
                0x00000000000181a4       0xdc rtthread.risc-v.lib(fsl_clock.o)
                0x00000000000181a4                riscv_CLOCK_InitSysOsc
 .text.CLOCK_DeinitSysOsc
                0x0000000000018280       0x4c rtthread.risc-v.lib(fsl_clock.o)
                0x0000000000018280                riscv_CLOCK_DeinitSysOsc
 .text.CLOCK_GetSysOscFreq
                0x00000000000182cc       0x5c rtthread.risc-v.lib(fsl_clock.o)
                0x00000000000182cc                riscv_CLOCK_GetSysOscFreq
 .text.CLOCK_GetSysOscAsyncFreq
                0x0000000000018328       0x92 rtthread.risc-v.lib(fsl_clock.o)
                0x0000000000018328                riscv_CLOCK_GetSysOscAsyncFreq
 .text.CLOCK_InitSirc
                0x00000000000183ba       0xc2 rtthread.risc-v.lib(fsl_clock.o)
                0x00000000000183ba                riscv_CLOCK_InitSirc
 .text.CLOCK_DeinitSirc
                0x000000000001847c       0x48 rtthread.risc-v.lib(fsl_clock.o)
                0x000000000001847c                riscv_CLOCK_DeinitSirc
 .text.CLOCK_GetSircFreq
                0x00000000000184c4       0x3a rtthread.risc-v.lib(fsl_clock.o)
                0x00000000000184c4                riscv_CLOCK_GetSircFreq
 .text.CLOCK_GetSircAsyncFreq
                0x00000000000184fe       0x92 rtthread.risc-v.lib(fsl_clock.o)
                0x00000000000184fe                riscv_CLOCK_GetSircAsyncFreq
 .text.CLOCK_InitFirc
                0x0000000000018590      0x15c rtthread.risc-v.lib(fsl_clock.o)
                0x0000000000018590                riscv_CLOCK_InitFirc
 .text.CLOCK_DeinitFirc
                0x00000000000186ec       0x4c rtthread.risc-v.lib(fsl_clock.o)
                0x00000000000186ec                riscv_CLOCK_DeinitFirc
 .text.CLOCK_GetFircFreq
                0x0000000000018738       0x3c rtthread.risc-v.lib(fsl_clock.o)
                0x0000000000018738                riscv_CLOCK_GetFircFreq
 .text.CLOCK_GetFircAsyncFreq
                0x0000000000018774       0x92 rtthread.risc-v.lib(fsl_clock.o)
                0x0000000000018774                riscv_CLOCK_GetFircAsyncFreq
 .text.CLOCK_GetRtcOscFreq
                0x0000000000018806       0x5c rtthread.risc-v.lib(fsl_clock.o)
                0x0000000000018806                riscv_CLOCK_GetRtcOscFreq
 .text.CLOCK_InitLpFll
                0x0000000000018862      0x188 rtthread.risc-v.lib(fsl_clock.o)
                0x0000000000018862                riscv_CLOCK_InitLpFll
 .text.CLOCK_DeinitLpFll
                0x00000000000189ea       0x4c rtthread.risc-v.lib(fsl_clock.o)
                0x00000000000189ea                riscv_CLOCK_DeinitLpFll
 .text.CLOCK_GetLpFllFreq
                0x0000000000018a36       0x3c rtthread.risc-v.lib(fsl_clock.o)
                0x0000000000018a36                riscv_CLOCK_GetLpFllFreq
 .text.CLOCK_GetLpFllAsyncFreq
                0x0000000000018a72       0x76 rtthread.risc-v.lib(fsl_clock.o)
                0x0000000000018a72                riscv_CLOCK_GetLpFllAsyncFreq
 .text.GPIO_WritePinOutput
                0x0000000000018ae8       0x44 rtthread.risc-v.lib(fsl_gpio.o)
 .text.GPIO_GetInstance
                0x0000000000018b2c       0x80 rtthread.risc-v.lib(fsl_gpio.o)
 .text.GPIO_PinInit
                0x0000000000018bac       0xa0 rtthread.risc-v.lib(fsl_gpio.o)
                0x0000000000018bac                riscv_GPIO_PinInit
 .text.GPIO_GetPinsInterruptFlags
                0x0000000000018c4c       0x46 rtthread.risc-v.lib(fsl_gpio.o)
                0x0000000000018c4c                riscv_GPIO_GetPinsInterruptFlags
 .text.GPIO_ClearPinsInterruptFlags
                0x0000000000018c92       0x4e rtthread.risc-v.lib(fsl_gpio.o)
                0x0000000000018c92                riscv_GPIO_ClearPinsInterruptFlags
 .text.CLOCK_EnableClock
                0x0000000000018ce0       0x56 rtthread.risc-v.lib(fsl_sema42.o)
 .text.CLOCK_DisableClock
                0x0000000000018d36       0x58 rtthread.risc-v.lib(fsl_sema42.o)
 .text.SEMA42_GetInstance
                0x0000000000018d8e       0x80 rtthread.risc-v.lib(fsl_sema42.o)
                0x0000000000018d8e                riscv_SEMA42_GetInstance
 .text.SEMA42_Init
                0x0000000000018e0e       0x3e rtthread.risc-v.lib(fsl_sema42.o)
                0x0000000000018e0e                riscv_SEMA42_Init
 .text.SEMA42_Deinit
                0x0000000000018e4c       0x3e rtthread.risc-v.lib(fsl_sema42.o)
                0x0000000000018e4c                riscv_SEMA42_Deinit
 .text.SEMA42_TryLock
                0x0000000000018e8a       0xa0 rtthread.risc-v.lib(fsl_sema42.o)
                0x0000000000018e8a                riscv_SEMA42_TryLock
 .text.SEMA42_Lock
                0x0000000000018f2a       0xb8 rtthread.risc-v.lib(fsl_sema42.o)
                0x0000000000018f2a                riscv_SEMA42_Lock
 .text.SEMA42_ResetGate
                0x0000000000018fe2       0xa0 rtthread.risc-v.lib(fsl_sema42.o)
                0x0000000000018fe2                riscv_SEMA42_ResetGate
 .text.CLOCK_EnableClock
                0x0000000000019082       0x56 rtthread.risc-v.lib(fsl_mu.o)
 .text.CLOCK_DisableClock
                0x00000000000190d8       0x58 rtthread.risc-v.lib(fsl_mu.o)
 .text.MU_SetFlagsNonBlocking
                0x0000000000019130       0x42 rtthread.risc-v.lib(fsl_mu.o)
 .text.MU_GetInstance
                0x0000000000019172       0x6a rtthread.risc-v.lib(fsl_mu.o)
 .text.MU_Init  0x00000000000191dc       0x34 rtthread.risc-v.lib(fsl_mu.o)
                0x00000000000191dc                riscv_MU_Init
 .text.MU_Deinit
                0x0000000000019210       0x34 rtthread.risc-v.lib(fsl_mu.o)
                0x0000000000019210                riscv_MU_Deinit
 .text.MU_SendMsg
                0x0000000000019244       0x78 rtthread.risc-v.lib(fsl_mu.o)
                0x0000000000019244                riscv_MU_SendMsg
 .text.MU_ReceiveMsg
                0x00000000000192bc       0x70 rtthread.risc-v.lib(fsl_mu.o)
                0x00000000000192bc                riscv_MU_ReceiveMsg
 .text.MU_SetFlags
                0x000000000001932c       0x38 rtthread.risc-v.lib(fsl_mu.o)
                0x000000000001932c                riscv_MU_SetFlags
 .text.MU_TriggerInterrupts
                0x0000000000019364       0x52 rtthread.risc-v.lib(fsl_mu.o)
                0x0000000000019364                riscv_MU_TriggerInterrupts
 .text.MU_BootCoreB
                0x00000000000193b6       0x5a rtthread.risc-v.lib(fsl_mu.o)
                0x00000000000193b6                riscv_MU_BootCoreB
 .text.MU_BootOtherCore
                0x0000000000019410       0x2a rtthread.risc-v.lib(fsl_mu.o)
                0x0000000000019410                riscv_MU_BootOtherCore
 .text.MU_HardwareResetOtherCore
                0x000000000001943a       0xc0 rtthread.risc-v.lib(fsl_mu.o)
                0x000000000001943a                riscv_MU_HardwareResetOtherCore
 .text.USDHC_GetPresentStatusFlags
                0x00000000000194fa       0x18 rtthread.risc-v.lib(fsl_sd.o)
 .text.USDHC_SetDataBusWidth
                0x0000000000019512       0x30 rtthread.risc-v.lib(fsl_sd.o)
 .text.USDHC_EnableDDRMode
                0x0000000000019542       0x60 rtthread.risc-v.lib(fsl_sd.o)
 .text.SD_SelectCard
                0x00000000000195a2       0x6a rtthread.risc-v.lib(fsl_sd.o)
 .text.SD_SendApplicationCmd
                0x000000000001960c       0x62 rtthread.risc-v.lib(fsl_sd.o)
 .text.SD_GoIdle
                0x000000000001966e       0x5a rtthread.risc-v.lib(fsl_sd.o)
 .text.SD_SetBlockSize
                0x00000000000196c8       0x62 rtthread.risc-v.lib(fsl_sd.o)
 .text.SD_ExecuteTuning
                0x000000000001972a       0x60 rtthread.risc-v.lib(fsl_sd.o)
 .text.SD_SwitchVoltage
                0x000000000001978a       0x5a rtthread.risc-v.lib(fsl_sd.o)
 .text.SD_Transfer
                0x00000000000197e4      0x152 rtthread.risc-v.lib(fsl_sd.o)
 .text.SD_WaitWriteComplete
                0x0000000000019936       0xe0 rtthread.risc-v.lib(fsl_sd.o)
 .text.SD_StopTransmission
                0x0000000000019a16       0xc0 rtthread.risc-v.lib(fsl_sd.o)
 .text.SD_SendRca
                0x0000000000019ad6       0xc0 rtthread.risc-v.lib(fsl_sd.o)
 .text.SD_SwitchFunction
                0x0000000000019b96      0x16a rtthread.risc-v.lib(fsl_sd.o)
 .text.SD_DecodeScr
                0x0000000000019d00      0x214 rtthread.risc-v.lib(fsl_sd.o)
 .text.SD_SendScr
                0x0000000000019f14      0x210 rtthread.risc-v.lib(fsl_sd.o)
 .text.SD_SelectFunction
                0x000000000001a124      0x43c rtthread.risc-v.lib(fsl_sd.o)
 .text.SD_SetDataBusWidth
                0x000000000001a560       0xfe rtthread.risc-v.lib(fsl_sd.o)
 .text.SD_DecodeCsd
                0x000000000001a65e      0x510 rtthread.risc-v.lib(fsl_sd.o)
 .text.SD_SendCsd
                0x000000000001ab6e       0xea rtthread.risc-v.lib(fsl_sd.o)
 .text.SD_DecodeCid
                0x000000000001ac58      0x172 rtthread.risc-v.lib(fsl_sd.o)
 .text.SD_AllSendCid
                0x000000000001adca       0xe2 rtthread.risc-v.lib(fsl_sd.o)
 .text.SD_ApplicationSendOperationCondition
                0x000000000001aeac      0x146 rtthread.risc-v.lib(fsl_sd.o)
 .text.SD_SendInterfaceCondition
                0x000000000001aff2       0xf6 rtthread.risc-v.lib(fsl_sd.o)
 .text.SD_SelectBusTiming
                0x000000000001b0e8      0x276 rtthread.risc-v.lib(fsl_sd.o)
 .text.SD_SetDriverStrength
                0x000000000001b35e       0x66 rtthread.risc-v.lib(fsl_sd.o)
 .text.SD_SetMaxCurrent
                0x000000000001b3c4       0x66 rtthread.risc-v.lib(fsl_sd.o)
 .text.SD_Read  0x000000000001b42a      0x262 rtthread.risc-v.lib(fsl_sd.o)
 .text.SD_Write
                0x000000000001b68c      0x284 rtthread.risc-v.lib(fsl_sd.o)
 .text.SD_Erase
                0x000000000001b910      0x1e0 rtthread.risc-v.lib(fsl_sd.o)
 .text.SD_Init  0x000000000001baf0      0x310 rtthread.risc-v.lib(fsl_sd.o)
                0x000000000001baf0                riscv_SD_Init
 .text.SD_Deinit
                0x000000000001be00       0x64 rtthread.risc-v.lib(fsl_sd.o)
                0x000000000001be00                riscv_SD_Deinit
 .text.SD_CheckReadOnly
                0x000000000001be64       0x68 rtthread.risc-v.lib(fsl_sd.o)
                0x000000000001be64                riscv_SD_CheckReadOnly
 .text.SD_ReadBlocks
                0x000000000001becc      0x15a rtthread.risc-v.lib(fsl_sd.o)
                0x000000000001becc                riscv_SD_ReadBlocks
 .text.SD_WriteBlocks
                0x000000000001c026      0x15a rtthread.risc-v.lib(fsl_sd.o)
                0x000000000001c026                riscv_SD_WriteBlocks
 .text.SD_EraseBlocks
                0x000000000001c180      0x11a rtthread.risc-v.lib(fsl_sd.o)
                0x000000000001c180                riscv_SD_EraseBlocks
 .text.USDHC_GetPresentStatusFlags
                0x000000000001c29a       0x18 rtthread.risc-v.lib(fsl_sdmmc.o)
 .text.USDHC_ForceClockOn
                0x000000000001c2b2       0x48 rtthread.risc-v.lib(fsl_sdmmc.o)
 .text.UDSHC_SelectVoltage
                0x000000000001c2fa       0x48 rtthread.risc-v.lib(fsl_sdmmc.o)
 .text.SDMMC_Delay
                0x000000000001c342       0x4e rtthread.risc-v.lib(fsl_sdmmc.o)
                0x000000000001c342                riscv_SDMMC_Delay
 .text.SDMMC_SelectCard
                0x000000000001c390       0xde rtthread.risc-v.lib(fsl_sdmmc.o)
                0x000000000001c390                riscv_SDMMC_SelectCard
 .text.SDMMC_SendApplicationCommand
                0x000000000001c46e       0xda rtthread.risc-v.lib(fsl_sdmmc.o)
                0x000000000001c46e                riscv_SDMMC_SendApplicationCommand
 .text.SDMMC_SetBlockCount
                0x000000000001c548       0xc6 rtthread.risc-v.lib(fsl_sdmmc.o)
                0x000000000001c548                riscv_SDMMC_SetBlockCount
 .text.SDMMC_GoIdle
                0x000000000001c60e       0xa4 rtthread.risc-v.lib(fsl_sdmmc.o)
                0x000000000001c60e                riscv_SDMMC_GoIdle
 .text.SDMMC_SetBlockSize
                0x000000000001c6b2       0xc6 rtthread.risc-v.lib(fsl_sdmmc.o)
                0x000000000001c6b2                riscv_SDMMC_SetBlockSize
 .text.SDMMC_SetCardInactive
                0x000000000001c778       0xae rtthread.risc-v.lib(fsl_sdmmc.o)
                0x000000000001c778                riscv_SDMMC_SetCardInactive
 .text.SDMMC_SwitchVoltage
                0x000000000001c826      0x128 rtthread.risc-v.lib(fsl_sdmmc.o)
                0x000000000001c826                riscv_SDMMC_SwitchVoltage
 .text.SDMMC_ExecuteTuning
                0x000000000001c94e       0xf8 rtthread.risc-v.lib(fsl_sdmmc.o)
                0x000000000001c94e                riscv_SDMMC_ExecuteTuning
 .text.rt_list_insert_after
                0x000000000001ca46       0x42 rtthread.risc-v.lib(idle.o)
 .text.rt_list_remove
                0x000000000001ca88       0x44 rtthread.risc-v.lib(idle.o)
 .text.rt_thread_idle_sethook
                0x000000000001cacc       0x82 rtthread.risc-v.lib(idle.o)
                0x000000000001cacc                riscv_rt_thread_idle_sethook
 .text.rt_thread_idle_delhook
                0x000000000001cb4e       0x86 rtthread.risc-v.lib(idle.o)
                0x000000000001cb4e                riscv_rt_thread_idle_delhook
 .text.rt_thread_defunct_enqueue
                0x000000000001cbd4       0x3e rtthread.risc-v.lib(idle.o)
                0x000000000001cbd4                riscv_rt_thread_defunct_enqueue
 .text.rt_thread_defunct_dequeue
                0x000000000001cc12       0x68 rtthread.risc-v.lib(idle.o)
                0x000000000001cc12                riscv_rt_thread_defunct_dequeue
 .text.rt_defunct_execute
                0x000000000001cc7a       0x8a rtthread.risc-v.lib(idle.o)
 .text.rt_thread_idle_entry
                0x000000000001cd04       0x16 rtthread.risc-v.lib(idle.o)
 .text.rt_thread_system_entry
                0x000000000001cd1a       0x28 rtthread.risc-v.lib(idle.o)
 .text.rt_thread_idle_init
                0x000000000001cd42      0x156 rtthread.risc-v.lib(idle.o)
                0x000000000001cd42                riscv_rt_thread_idle_init
 .text.rt_thread_idle_gethandler
                0x000000000001ce98       0x30 rtthread.risc-v.lib(idle.o)
                0x000000000001ce98                riscv_rt_thread_idle_gethandler
 .text.rt_list_init
                0x000000000001cec8       0x28 rtthread.risc-v.lib(scheduler.o)
 .text.rt_list_insert_before
                0x000000000001cef0       0x42 rtthread.risc-v.lib(scheduler.o)
 .text.rt_list_remove
                0x000000000001cf32       0x44 rtthread.risc-v.lib(scheduler.o)
 .text.rt_list_isempty
                0x000000000001cf76       0x28 rtthread.risc-v.lib(scheduler.o)
 .text.rt_scheduler_sethook
                0x000000000001cf9e       0x1e rtthread.risc-v.lib(scheduler.o)
                0x000000000001cf9e                riscv_rt_scheduler_sethook
 .text.rt_scheduler_switch_sethook
                0x000000000001cfbc       0x1e rtthread.risc-v.lib(scheduler.o)
                0x000000000001cfbc                riscv_rt_scheduler_switch_sethook
 .text._scheduler_stack_check
                0x000000000001cfda       0xd0 rtthread.risc-v.lib(scheduler.o)
 .text._scheduler_get_highest_priority_thread
                0x000000000001d0aa       0xa8 rtthread.risc-v.lib(scheduler.o)
 .text.rt_system_scheduler_init
                0x000000000001d152       0xc8 rtthread.risc-v.lib(scheduler.o)
                0x000000000001d152                riscv_rt_system_scheduler_init
 .text.rt_system_scheduler_start
                0x000000000001d21a       0x68 rtthread.risc-v.lib(scheduler.o)
                0x000000000001d21a                riscv_rt_system_scheduler_start
 .text.rt_scheduler_ipi_handler
                0x000000000001d282       0x22 rtthread.risc-v.lib(scheduler.o)
                0x000000000001d282                riscv_rt_scheduler_ipi_handler
 .text.rt_schedule
                0x000000000001d2a4      0x252 rtthread.risc-v.lib(scheduler.o)
                0x000000000001d2a4                riscv_rt_schedule
 .text.rt_scheduler_do_irq_switch
                0x000000000001d4f6      0x21e rtthread.risc-v.lib(scheduler.o)
                0x000000000001d4f6                riscv_rt_scheduler_do_irq_switch
 .text.rt_schedule_insert_thread
                0x000000000001d714      0x1b2 rtthread.risc-v.lib(scheduler.o)
                0x000000000001d714                riscv_rt_schedule_insert_thread
 .text.rt_schedule_remove_thread
                0x000000000001d8c6      0x102 rtthread.risc-v.lib(scheduler.o)
                0x000000000001d8c6                riscv_rt_schedule_remove_thread
 .text.rt_enter_critical
                0x000000000001d9c8       0x90 rtthread.risc-v.lib(scheduler.o)
                0x000000000001d9c8                riscv_rt_enter_critical
 .text.rt_exit_critical
                0x000000000001da58       0xa2 rtthread.risc-v.lib(scheduler.o)
                0x000000000001da58                riscv_rt_exit_critical
 .text.rt_critical_level
                0x000000000001dafa       0x2a rtthread.risc-v.lib(scheduler.o)
                0x000000000001dafa                riscv_rt_critical_level
 .text.rt_list_init
                0x000000000001db24       0x28 rtthread.risc-v.lib(ipc.o)
 .text.rt_list_insert_before
                0x000000000001db4c       0x42 rtthread.risc-v.lib(ipc.o)
 .text.rt_list_isempty
                0x000000000001db8e       0x28 rtthread.risc-v.lib(ipc.o)
 .text._ipc_object_init
                0x000000000001dbb6       0x28 rtthread.risc-v.lib(ipc.o)
 .text._ipc_list_suspend
                0x000000000001dbde       0xf0 rtthread.risc-v.lib(ipc.o)
 .text._ipc_list_resume
                0x000000000001dcce       0x30 rtthread.risc-v.lib(ipc.o)
 .text._ipc_list_resume_all
                0x000000000001dcfe       0x62 rtthread.risc-v.lib(ipc.o)
 .text.rt_sem_init
                0x000000000001dd60       0xda rtthread.risc-v.lib(ipc.o)
                0x000000000001dd60                riscv_rt_sem_init
 .text.rt_sem_detach
                0x000000000001de3a       0xba rtthread.risc-v.lib(ipc.o)
                0x000000000001de3a                riscv_rt_sem_detach
 .text.rt_sem_create
                0x000000000001def4       0xc0 rtthread.risc-v.lib(ipc.o)
                0x000000000001def4                riscv_rt_sem_create
 .text.rt_sem_delete
                0x000000000001dfb4       0xba rtthread.risc-v.lib(ipc.o)
                0x000000000001dfb4                riscv_rt_sem_delete
 .text.rt_sem_take
                0x000000000001e06e      0x184 rtthread.risc-v.lib(ipc.o)
                0x000000000001e06e                riscv_rt_sem_take
 .text.rt_sem_trytake
                0x000000000001e1f2       0x26 rtthread.risc-v.lib(ipc.o)
                0x000000000001e1f2                riscv_rt_sem_trytake
 .text.rt_sem_release
                0x000000000001e218      0x11c rtthread.risc-v.lib(ipc.o)
                0x000000000001e218                riscv_rt_sem_release
 .text.rt_sem_control
                0x000000000001e334       0xce rtthread.risc-v.lib(ipc.o)
                0x000000000001e334                riscv_rt_sem_control
 .text.rt_mutex_init
                0x000000000001e402       0x94 rtthread.risc-v.lib(ipc.o)
                0x000000000001e402                riscv_rt_mutex_init
 .text.rt_mutex_detach
                0x000000000001e496       0xba rtthread.risc-v.lib(ipc.o)
                0x000000000001e496                riscv_rt_mutex_detach
 .text.rt_mutex_create
                0x000000000001e550       0x7a rtthread.risc-v.lib(ipc.o)
                0x000000000001e550                riscv_rt_mutex_create
 .text.rt_mutex_delete
                0x000000000001e5ca       0xba rtthread.risc-v.lib(ipc.o)
                0x000000000001e5ca                riscv_rt_mutex_delete
 .text.rt_mutex_take
                0x000000000001e684      0x260 rtthread.risc-v.lib(ipc.o)
                0x000000000001e684                riscv_rt_mutex_take
 .text.rt_mutex_trytake
                0x000000000001e8e4       0x26 rtthread.risc-v.lib(ipc.o)
                0x000000000001e8e4                riscv_rt_mutex_trytake
 .text.rt_mutex_release
                0x000000000001e90a      0x20e rtthread.risc-v.lib(ipc.o)
                0x000000000001e90a                riscv_rt_mutex_release
 .text.rt_mutex_control
                0x000000000001eb18       0x76 rtthread.risc-v.lib(ipc.o)
                0x000000000001eb18                riscv_rt_mutex_control
 .text.rt_event_init
                0x000000000001eb8e       0xa6 rtthread.risc-v.lib(ipc.o)
                0x000000000001eb8e                riscv_rt_event_init
 .text.rt_event_detach
                0x000000000001ec34       0xba rtthread.risc-v.lib(ipc.o)
                0x000000000001ec34                riscv_rt_event_detach
 .text.rt_event_create
                0x000000000001ecee       0x8c rtthread.risc-v.lib(ipc.o)
                0x000000000001ecee                riscv_rt_event_create
 .text.rt_event_delete
                0x000000000001ed7a       0xba rtthread.risc-v.lib(ipc.o)
                0x000000000001ed7a                riscv_rt_event_delete
 .text.rt_event_send
                0x000000000001ee34      0x1ca rtthread.risc-v.lib(ipc.o)
                0x000000000001ee34                riscv_rt_event_send
 .text.rt_event_recv
                0x000000000001effe      0x274 rtthread.risc-v.lib(ipc.o)
                0x000000000001effe                riscv_rt_event_recv
 .text.rt_event_control
                0x000000000001f272       0xbc rtthread.risc-v.lib(ipc.o)
                0x000000000001f272                riscv_rt_event_control
 .text.rt_mb_init
                0x000000000001f32e       0xec rtthread.risc-v.lib(ipc.o)
                0x000000000001f32e                riscv_rt_mb_init
 .text.rt_mb_detach
                0x000000000001f41a       0xcc rtthread.risc-v.lib(ipc.o)
                0x000000000001f41a                riscv_rt_mb_detach
 .text.rt_mb_create
                0x000000000001f4e6       0xfa rtthread.risc-v.lib(ipc.o)
                0x000000000001f4e6                riscv_rt_mb_create
 .text.rt_mb_delete
                0x000000000001f5e0       0xdc rtthread.risc-v.lib(ipc.o)
                0x000000000001f5e0                riscv_rt_mb_delete
 .text.rt_mb_send_wait
                0x000000000001f6bc      0x2a2 rtthread.risc-v.lib(ipc.o)
                0x000000000001f6bc                riscv_rt_mb_send_wait
 .text.rt_mb_send
                0x000000000001f95e       0x2e rtthread.risc-v.lib(ipc.o)
                0x000000000001f95e                riscv_rt_mb_send
 .text.rt_mb_urgent
                0x000000000001f98c      0x174 rtthread.risc-v.lib(ipc.o)
                0x000000000001f98c                riscv_rt_mb_urgent
 .text.rt_mb_recv
                0x000000000001fb00      0x2c0 rtthread.risc-v.lib(ipc.o)
                0x000000000001fb00                riscv_rt_mb_recv
 .text.rt_mb_control
                0x000000000001fdc0       0xe2 rtthread.risc-v.lib(ipc.o)
                0x000000000001fdc0                riscv_rt_mb_control
 .text.rt_mq_init
                0x000000000001fea2      0x17e rtthread.risc-v.lib(ipc.o)
                0x000000000001fea2                riscv_rt_mq_init
 .text.rt_mq_detach
                0x0000000000020020       0xd2 rtthread.risc-v.lib(ipc.o)
                0x0000000000020020                riscv_rt_mq_detach
 .text.rt_mq_create
                0x00000000000200f2      0x18a rtthread.risc-v.lib(ipc.o)
                0x00000000000200f2                riscv_rt_mq_create
 .text.rt_mq_delete
                0x000000000002027c       0xe2 rtthread.risc-v.lib(ipc.o)
                0x000000000002027c                riscv_rt_mq_delete
 .text.rt_mq_send_wait
                0x000000000002035e      0x32a rtthread.risc-v.lib(ipc.o)
                0x000000000002035e                riscv_rt_mq_send_wait
 .text.rt_mq_send
                0x0000000000020688       0x36 rtthread.risc-v.lib(ipc.o)
                0x0000000000020688                riscv_rt_mq_send
 .text.rt_mq_urgent
                0x00000000000206be      0x204 rtthread.risc-v.lib(ipc.o)
                0x00000000000206be                riscv_rt_mq_urgent
 .text.rt_mq_recv
                0x00000000000208c2      0x344 rtthread.risc-v.lib(ipc.o)
                0x00000000000208c2                riscv_rt_mq_recv
 .text.rt_mq_control
                0x0000000000020c06      0x11e rtthread.risc-v.lib(ipc.o)
                0x0000000000020c06                riscv_rt_mq_control
 .text.rti_start
                0x0000000000020d24       0x10 rtthread.risc-v.lib(components.o)
 .text.rti_board_start
                0x0000000000020d34       0x10 rtthread.risc-v.lib(components.o)
 .text.rti_board_end
                0x0000000000020d44       0x10 rtthread.risc-v.lib(components.o)
 .text.rti_end  0x0000000000020d54       0x10 rtthread.risc-v.lib(components.o)
 .text.rt_components_board_init
                0x0000000000020d64       0x42 rtthread.risc-v.lib(components.o)
                0x0000000000020d64                riscv_rt_components_board_init
 .text.rt_components_init
                0x0000000000020da6       0x42 rtthread.risc-v.lib(components.o)
                0x0000000000020da6                riscv_rt_components_init
 .text.rt_tick_sethook
                0x0000000000020de8       0x1e rtthread.risc-v.lib(clock.o)
                0x0000000000020de8                riscv_rt_tick_sethook
 .text.rt_tick_get
                0x0000000000020e06       0x2c rtthread.risc-v.lib(clock.o)
                0x0000000000020e06                riscv_rt_tick_get
 .text.rt_tick_set
                0x0000000000020e32       0x4c rtthread.risc-v.lib(clock.o)
                0x0000000000020e32                riscv_rt_tick_set
 .text.rt_tick_increase
                0x0000000000020e7e       0xea rtthread.risc-v.lib(clock.o)
                0x0000000000020e7e                riscv_rt_tick_increase
 .text.rt_tick_from_millisecond
                0x0000000000020f68       0x6a rtthread.risc-v.lib(clock.o)
                0x0000000000020f68                riscv_rt_tick_from_millisecond
 .text.rt_tick_get_millisecond
                0x0000000000020fd2       0x24 rtthread.risc-v.lib(clock.o)
                0x0000000000020fd2                riscv_rt_tick_get_millisecond
 .text._cpu_preempt_disable
                0x0000000000020ff6       0x48 rtthread.risc-v.lib(cpu.o)
 .text._cpu_preempt_enable
                0x000000000002103e       0x50 rtthread.risc-v.lib(cpu.o)
 .text.rt_spin_lock_init
                0x000000000002108e       0x24 rtthread.risc-v.lib(cpu.o)
                0x000000000002108e                riscv_rt_spin_lock_init
 .text.rt_spin_lock
                0x00000000000210b2       0x2c rtthread.risc-v.lib(cpu.o)
                0x00000000000210b2                riscv_rt_spin_lock
 .text.rt_spin_unlock
                0x00000000000210de       0x2c rtthread.risc-v.lib(cpu.o)
                0x00000000000210de                riscv_rt_spin_unlock
 .text.rt_spin_lock_irqsave
                0x000000000002110a       0x3e rtthread.risc-v.lib(cpu.o)
                0x000000000002110a                riscv_rt_spin_lock_irqsave
 .text.rt_spin_unlock_irqrestore
                0x0000000000021148       0x3c rtthread.risc-v.lib(cpu.o)
                0x0000000000021148                riscv_rt_spin_unlock_irqrestore
 .text.rt_cpu_self
                0x0000000000021184       0x2e rtthread.risc-v.lib(cpu.o)
                0x0000000000021184                riscv_rt_cpu_self
 .text.rt_cpu_index
                0x00000000000211b2       0x28 rtthread.risc-v.lib(cpu.o)
                0x00000000000211b2                riscv_rt_cpu_index
 .text.rt_cpus_lock
                0x00000000000211da       0x74 rtthread.risc-v.lib(cpu.o)
                0x00000000000211da                riscv_rt_cpus_lock
 .text.rt_cpus_unlock
                0x000000000002124e       0x70 rtthread.risc-v.lib(cpu.o)
                0x000000000002124e                riscv_rt_cpus_unlock
 .text.rt_cpus_lock_status_restore
                0x00000000000212be       0x3c rtthread.risc-v.lib(cpu.o)
                0x00000000000212be                riscv_rt_cpus_lock_status_restore
 .text.rt_hw_us_delay
                0x00000000000212fa       0x3e rtthread.risc-v.lib(kservice.o)
 .text.rt_get_errno
                0x0000000000021338       0x4a rtthread.risc-v.lib(kservice.o)
                0x0000000000021338                riscv_rt_get_errno
 .text.rt_set_errno
                0x0000000000021382       0x58 rtthread.risc-v.lib(kservice.o)
                0x0000000000021382                riscv_rt_set_errno
 .text._rt_errno
                0x00000000000213da       0x4c rtthread.risc-v.lib(kservice.o)
                0x00000000000213da                riscv__rt_errno
 .text.rt_memset
                0x0000000000021426      0x122 rtthread.risc-v.lib(kservice.o)
                0x0000000000021426                riscv_rt_memset
 .text.rt_memcpy
                0x0000000000021548      0x156 rtthread.risc-v.lib(kservice.o)
                0x0000000000021548                riscv_rt_memcpy
 .text.rt_memmove
                0x000000000002169e       0xcc rtthread.risc-v.lib(kservice.o)
                0x000000000002169e                riscv_rt_memmove
 .text.rt_memcmp
                0x000000000002176a       0x7c rtthread.risc-v.lib(kservice.o)
                0x000000000002176a                riscv_rt_memcmp
 .text.rt_strstr
                0x00000000000217e6       0x8e rtthread.risc-v.lib(kservice.o)
                0x00000000000217e6                riscv_rt_strstr
 .text.rt_strcasecmp
                0x0000000000021874       0xa4 rtthread.risc-v.lib(kservice.o)
                0x0000000000021874                riscv_rt_strcasecmp
 .text.rt_strncpy
                0x0000000000021918       0x8e rtthread.risc-v.lib(kservice.o)
                0x0000000000021918                riscv_rt_strncpy
 .text.rt_strcpy
                0x00000000000219a6       0x5a rtthread.risc-v.lib(kservice.o)
                0x00000000000219a6                riscv_rt_strcpy
 .text.rt_strncmp
                0x0000000000021a00       0x70 rtthread.risc-v.lib(kservice.o)
                0x0000000000021a00                riscv_rt_strncmp
 .text.rt_strcmp
                0x0000000000021a70       0x60 rtthread.risc-v.lib(kservice.o)
                0x0000000000021a70                riscv_rt_strcmp
 .text.rt_strlen
                0x0000000000021ad0       0x3c rtthread.risc-v.lib(kservice.o)
                0x0000000000021ad0                riscv_rt_strlen
 .text.rt_strnlen
                0x0000000000021b0c       0x56 rtthread.risc-v.lib(kservice.o)
                0x0000000000021b0c                riscv_rt_strnlen
 .text.rt_strdup
                0x0000000000021b62       0x5c rtthread.risc-v.lib(kservice.o)
                0x0000000000021b62                riscv_rt_strdup
 .text.rt_show_version
                0x0000000000021bbe       0x68 rtthread.risc-v.lib(kservice.o)
                0x0000000000021bbe                riscv_rt_show_version
 .text.divide   0x0000000000021c26       0x6a rtthread.risc-v.lib(kservice.o)
 .text.skip_atoi
                0x0000000000021c90       0x5e rtthread.risc-v.lib(kservice.o)
 .text.print_number
                0x0000000000021cee      0x2ce rtthread.risc-v.lib(kservice.o)
 .text.rt_vsnprintf
                0x0000000000021fbc      0x654 rtthread.risc-v.lib(kservice.o)
                0x0000000000021fbc                riscv_rt_vsnprintf
 .text.rt_snprintf
                0x0000000000022610       0x58 rtthread.risc-v.lib(kservice.o)
                0x0000000000022610                riscv_rt_snprintf
 .text.rt_vsprintf
                0x0000000000022668       0x36 rtthread.risc-v.lib(kservice.o)
                0x0000000000022668                riscv_rt_vsprintf
 .text.rt_sprintf
                0x000000000002269e       0x52 rtthread.risc-v.lib(kservice.o)
                0x000000000002269e                riscv_rt_sprintf
 .text.rt_console_get_device
                0x00000000000226f0       0x16 rtthread.risc-v.lib(kservice.o)
                0x00000000000226f0                riscv_rt_console_get_device
 .text.rt_console_set_device
                0x0000000000022706       0x84 rtthread.risc-v.lib(kservice.o)
                0x0000000000022706                riscv_rt_console_set_device
 .text.rt_hw_console_output
                0x000000000002278a       0x12 rtthread.risc-v.lib(kservice.o)
                0x000000000002278a                riscv_rt_hw_console_output
 .text.rt_kputs
                0x000000000002279c       0x62 rtthread.risc-v.lib(kservice.o)
                0x000000000002279c                riscv_rt_kputs
 .text.rt_kprintf
                0x00000000000227fe       0xaa rtthread.risc-v.lib(kservice.o)
                0x00000000000227fe                riscv_rt_kprintf
 .text.rt_malloc_sethook
                0x00000000000228a8       0x1e rtthread.risc-v.lib(kservice.o)
                0x00000000000228a8                riscv_rt_malloc_sethook
 .text.rt_free_sethook
                0x00000000000228c6       0x1e rtthread.risc-v.lib(kservice.o)
                0x00000000000228c6                riscv_rt_free_sethook
 .text._heap_lock_init
                0x00000000000228e4       0x2c rtthread.risc-v.lib(kservice.o)
 .text._heap_lock
                0x0000000000022910       0x36 rtthread.risc-v.lib(kservice.o)
 .text._heap_unlock
                0x0000000000022946       0x54 rtthread.risc-v.lib(kservice.o)
 .text._smem_info
                0x000000000002299a       0x5c rtthread.risc-v.lib(kservice.o)
 .text.rt_system_heap_init
                0x00000000000229f6       0x94 rtthread.risc-v.lib(kservice.o)
                0x00000000000229f6                riscv_rt_system_heap_init
 .text.rt_malloc
                0x0000000000022a8a       0x68 rtthread.risc-v.lib(kservice.o)
                0x0000000000022a8a                riscv_rt_malloc
 .text.rt_realloc
                0x0000000000022af2       0x54 rtthread.risc-v.lib(kservice.o)
                0x0000000000022af2                riscv_rt_realloc
 .text.rt_calloc
                0x0000000000022b46       0x5a rtthread.risc-v.lib(kservice.o)
                0x0000000000022b46                riscv_rt_calloc
 .text.rt_free  0x0000000000022ba0       0x52 rtthread.risc-v.lib(kservice.o)
                0x0000000000022ba0                riscv_rt_free
 .text.rt_memory_info
                0x0000000000022bf2       0x4a rtthread.risc-v.lib(kservice.o)
                0x0000000000022bf2                riscv_rt_memory_info
 .text.rt_malloc_align
                0x0000000000022c3c       0xcc rtthread.risc-v.lib(kservice.o)
                0x0000000000022c3c                riscv_rt_malloc_align
 .text.rt_free_align
                0x0000000000022d08       0x2e rtthread.risc-v.lib(kservice.o)
                0x0000000000022d08                riscv_rt_free_align
 .text.__rt_ffs
                0x0000000000022d36       0xaa rtthread.risc-v.lib(kservice.o)
                0x0000000000022d36                riscv___rt_ffs
 .text.rt_assert_set_hook
                0x0000000000022de0       0x1e rtthread.risc-v.lib(kservice.o)
                0x0000000000022de0                riscv_rt_assert_set_hook
 .text.rt_assert_handler
                0x0000000000022dfe       0x6c rtthread.risc-v.lib(kservice.o)
                0x0000000000022dfe                riscv_rt_assert_handler
 .text.rt_list_init
                0x0000000000022e6a       0x28 rtthread.risc-v.lib(thread.o)
 .text.rt_list_remove
                0x0000000000022e92       0x44 rtthread.risc-v.lib(thread.o)
 .text.rt_thread_suspend_sethook
                0x0000000000022ed6       0x1e rtthread.risc-v.lib(thread.o)
                0x0000000000022ed6                riscv_rt_thread_suspend_sethook
 .text.rt_thread_resume_sethook
                0x0000000000022ef4       0x1e rtthread.risc-v.lib(thread.o)
                0x0000000000022ef4                riscv_rt_thread_resume_sethook
 .text.rt_thread_inited_sethook
                0x0000000000022f12       0x1e rtthread.risc-v.lib(thread.o)
                0x0000000000022f12                riscv_rt_thread_inited_sethook
 .text._thread_exit
                0x0000000000022f30       0x66 rtthread.risc-v.lib(thread.o)
 .text._thread_timeout
                0x0000000000022f96       0xe4 rtthread.risc-v.lib(thread.o)
 .text._thread_init
                0x000000000002307a      0x18e rtthread.risc-v.lib(thread.o)
 .text.rt_thread_init
                0x0000000000023208       0xb6 rtthread.risc-v.lib(thread.o)
                0x0000000000023208                riscv_rt_thread_init
 .text.rt_thread_self
                0x00000000000232be       0x50 rtthread.risc-v.lib(thread.o)
                0x00000000000232be                riscv_rt_thread_self
 .text.rt_thread_startup
                0x000000000002330e       0xd6 rtthread.risc-v.lib(thread.o)
                0x000000000002330e                riscv_rt_thread_startup
 .text.rt_thread_detach
                0x00000000000233e4      0x106 rtthread.risc-v.lib(thread.o)
                0x00000000000233e4                riscv_rt_thread_detach
 .text.rt_thread_create
                0x00000000000234ea       0x9c rtthread.risc-v.lib(thread.o)
                0x00000000000234ea                riscv_rt_thread_create
 .text.rt_thread_delete
                0x0000000000023586      0x106 rtthread.risc-v.lib(thread.o)
                0x0000000000023586                riscv_rt_thread_delete
 .text.rt_thread_yield
                0x000000000002368c       0x64 rtthread.risc-v.lib(thread.o)
                0x000000000002368c                riscv_rt_thread_yield
 .text.rt_thread_sleep
                0x00000000000236f0       0xf0 rtthread.risc-v.lib(thread.o)
                0x00000000000236f0                riscv_rt_thread_sleep
 .text.rt_thread_delay
                0x00000000000237e0       0x24 rtthread.risc-v.lib(thread.o)
                0x00000000000237e0                riscv_rt_thread_delay
 .text.rt_thread_delay_until
                0x0000000000023804      0x174 rtthread.risc-v.lib(thread.o)
                0x0000000000023804                riscv_rt_thread_delay_until
 .text.rt_thread_mdelay
                0x0000000000023978       0x34 rtthread.risc-v.lib(thread.o)
                0x0000000000023978                riscv_rt_thread_mdelay
 .text.rt_thread_control
                0x00000000000239ac      0x1b6 rtthread.risc-v.lib(thread.o)
                0x00000000000239ac                riscv_rt_thread_control
 .text.rt_thread_suspend
                0x0000000000023b62      0x134 rtthread.risc-v.lib(thread.o)
                0x0000000000023b62                riscv_rt_thread_suspend
 .text.rt_thread_resume
                0x0000000000023c96       0xe0 rtthread.risc-v.lib(thread.o)
                0x0000000000023c96                riscv_rt_thread_resume
 .text.rt_thread_find
                0x0000000000023d76       0x26 rtthread.risc-v.lib(thread.o)
                0x0000000000023d76                riscv_rt_thread_find
 .text.plug_holes
                0x0000000000023d9c      0x164 rtthread.risc-v.lib(mem.o)
 .text.rt_smem_init
                0x0000000000023f00      0x194 rtthread.risc-v.lib(mem.o)
                0x0000000000023f00                riscv_rt_smem_init
 .text.rt_smem_detach
                0x0000000000024094       0xaa rtthread.risc-v.lib(mem.o)
                0x0000000000024094                riscv_rt_smem_detach
 .text.rt_smem_alloc
                0x000000000002413e      0x362 rtthread.risc-v.lib(mem.o)
                0x000000000002413e                riscv_rt_smem_alloc
 .text.rt_smem_realloc
                0x00000000000244a0      0x2c8 rtthread.risc-v.lib(mem.o)
                0x00000000000244a0                riscv_rt_smem_realloc
 .text.rt_smem_free
                0x0000000000024768      0x1d0 rtthread.risc-v.lib(mem.o)
                0x0000000000024768                riscv_rt_smem_free
 .text.rt_list_init
                0x0000000000024938       0x28 rtthread.risc-v.lib(device.o)
 .text.rt_wqueue_init
                0x0000000000024960       0x50 rtthread.risc-v.lib(device.o)
 .text.rt_device_register
                0x00000000000249b0       0x8a rtthread.risc-v.lib(device.o)
                0x00000000000249b0                riscv_rt_device_register
 .text.rt_device_unregister
                0x0000000000024a3a       0xaa rtthread.risc-v.lib(device.o)
                0x0000000000024a3a                riscv_rt_device_unregister
 .text.rt_device_find
                0x0000000000024ae4       0x26 rtthread.risc-v.lib(device.o)
                0x0000000000024ae4                riscv_rt_device_find
 .text.rt_device_create
                0x0000000000024b0a       0x74 rtthread.risc-v.lib(device.o)
                0x0000000000024b0a                riscv_rt_device_create
 .text.rt_device_destroy
                0x0000000000024b7e       0xb4 rtthread.risc-v.lib(device.o)
                0x0000000000024b7e                riscv_rt_device_destroy
 .text.rt_device_init
                0x0000000000024c32       0xb8 rtthread.risc-v.lib(device.o)
                0x0000000000024c32                riscv_rt_device_init
 .text.rt_device_open
                0x0000000000024cea      0x1b2 rtthread.risc-v.lib(device.o)
                0x0000000000024cea                riscv_rt_device_open
 .text.rt_device_close
                0x0000000000024e9c       0xd6 rtthread.risc-v.lib(device.o)
                0x0000000000024e9c                riscv_rt_device_close
 .text.rt_device_read
                0x0000000000024f72       0xc0 rtthread.risc-v.lib(device.o)
                0x0000000000024f72                riscv_rt_device_read
 .text.rt_device_write
                0x0000000000025032       0xc0 rtthread.risc-v.lib(device.o)
                0x0000000000025032                riscv_rt_device_write
 .text.rt_device_control
                0x00000000000250f2       0x96 rtthread.risc-v.lib(device.o)
                0x00000000000250f2                riscv_rt_device_control
 .text.rt_device_set_rx_indicate
                0x0000000000025188       0x7c rtthread.risc-v.lib(device.o)
                0x0000000000025188                riscv_rt_device_set_rx_indicate
 .text.rt_device_set_tx_complete
                0x0000000000025204       0x7c rtthread.risc-v.lib(device.o)
                0x0000000000025204                riscv_rt_device_set_tx_complete
 .text.rt_list_init
                0x0000000000025280       0x28 rtthread.risc-v.lib(timer.o)
 .text.rt_list_insert_after
                0x00000000000252a8       0x42 rtthread.risc-v.lib(timer.o)
 .text.rt_list_remove
                0x00000000000252ea       0x44 rtthread.risc-v.lib(timer.o)
 .text.rt_list_isempty
                0x000000000002532e       0x28 rtthread.risc-v.lib(timer.o)
 .text.rt_timer_enter_sethook
                0x0000000000025356       0x1e rtthread.risc-v.lib(timer.o)
                0x0000000000025356                riscv_rt_timer_enter_sethook
 .text.rt_timer_exit_sethook
                0x0000000000025374       0x1e rtthread.risc-v.lib(timer.o)
                0x0000000000025374                riscv_rt_timer_exit_sethook
 .text._timer_init
                0x0000000000025392       0xa2 rtthread.risc-v.lib(timer.o)
 .text._timer_list_next_timeout
                0x0000000000025434       0x6c rtthread.risc-v.lib(timer.o)
 .text._timer_remove
                0x00000000000254a0       0x48 rtthread.risc-v.lib(timer.o)
 .text.rt_timer_init
                0x00000000000254e8       0xcc rtthread.risc-v.lib(timer.o)
                0x00000000000254e8                riscv_rt_timer_init
 .text.rt_timer_detach
                0x00000000000255b4       0xe4 rtthread.risc-v.lib(timer.o)
                0x00000000000255b4                riscv_rt_timer_detach
 .text.rt_timer_create
                0x0000000000025698       0xb4 rtthread.risc-v.lib(timer.o)
                0x0000000000025698                riscv_rt_timer_create
 .text.rt_timer_delete
                0x000000000002574c       0xe4 rtthread.risc-v.lib(timer.o)
                0x000000000002574c                riscv_rt_timer_delete
 .text.rt_timer_start
                0x0000000000025830      0x29a rtthread.risc-v.lib(timer.o)
                0x0000000000025830                riscv_rt_timer_start
 .text.rt_timer_stop
                0x0000000000025aca       0xd2 rtthread.risc-v.lib(timer.o)
                0x0000000000025aca                riscv_rt_timer_stop
 .text.rt_timer_control
                0x0000000000025b9c      0x15a rtthread.risc-v.lib(timer.o)
                0x0000000000025b9c                riscv_rt_timer_control
 .text.rt_timer_check
                0x0000000000025cf6      0x178 rtthread.risc-v.lib(timer.o)
                0x0000000000025cf6                riscv_rt_timer_check
 .text.rt_timer_next_timeout_tick
                0x0000000000025e6e       0x32 rtthread.risc-v.lib(timer.o)
                0x0000000000025e6e                riscv_rt_timer_next_timeout_tick
 .text.rt_system_timer_init
                0x0000000000025ea0       0x44 rtthread.risc-v.lib(timer.o)
                0x0000000000025ea0                riscv_rt_system_timer_init
 .text.rt_system_timer_thread_init
                0x0000000000025ee4        0xe rtthread.risc-v.lib(timer.o)
                0x0000000000025ee4                riscv_rt_system_timer_thread_init
 .text.rt_list_insert_after
                0x0000000000025ef2       0x42 rtthread.risc-v.lib(object.o)
 .text.rt_list_remove
                0x0000000000025f34       0x44 rtthread.risc-v.lib(object.o)
 .text.rt_object_attach_sethook
                0x0000000000025f78       0x1e rtthread.risc-v.lib(object.o)
                0x0000000000025f78                riscv_rt_object_attach_sethook
 .text.rt_object_detach_sethook
                0x0000000000025f96       0x1e rtthread.risc-v.lib(object.o)
                0x0000000000025f96                riscv_rt_object_detach_sethook
 .text.rt_object_trytake_sethook
                0x0000000000025fb4       0x1e rtthread.risc-v.lib(object.o)
                0x0000000000025fb4                riscv_rt_object_trytake_sethook
 .text.rt_object_take_sethook
                0x0000000000025fd2       0x1e rtthread.risc-v.lib(object.o)
                0x0000000000025fd2                riscv_rt_object_take_sethook
 .text.rt_object_put_sethook
                0x0000000000025ff0       0x1e rtthread.risc-v.lib(object.o)
                0x0000000000025ff0                riscv_rt_object_put_sethook
 .text.rt_object_get_information
                0x000000000002600e       0x5c rtthread.risc-v.lib(object.o)
                0x000000000002600e                riscv_rt_object_get_information
 .text.rt_object_get_length
                0x000000000002606a       0x86 rtthread.risc-v.lib(object.o)
                0x000000000002606a                riscv_rt_object_get_length
 .text.rt_object_get_pointers
                0x00000000000260f0       0xc6 rtthread.risc-v.lib(object.o)
                0x00000000000260f0                riscv_rt_object_get_pointers
 .text.rt_object_init
                0x00000000000261b6      0x136 rtthread.risc-v.lib(object.o)
                0x00000000000261b6                riscv_rt_object_init
 .text.rt_object_detach
                0x00000000000262ec       0x80 rtthread.risc-v.lib(object.o)
                0x00000000000262ec                riscv_rt_object_detach
 .text.rt_object_allocate
                0x000000000002636c       0xfa rtthread.risc-v.lib(object.o)
                0x000000000002636c                riscv_rt_object_allocate
 .text.rt_object_delete
                0x0000000000026466       0xb8 rtthread.risc-v.lib(object.o)
                0x0000000000026466                riscv_rt_object_delete
 .text.rt_object_is_systemobject
                0x000000000002651e       0x4e rtthread.risc-v.lib(object.o)
                0x000000000002651e                riscv_rt_object_is_systemobject
 .text.rt_object_get_type
                0x000000000002656c       0x48 rtthread.risc-v.lib(object.o)
                0x000000000002656c                riscv_rt_object_get_type
 .text.rt_object_find
                0x00000000000265b4       0xb0 rtthread.risc-v.lib(object.o)
                0x00000000000265b4                riscv_rt_object_find
 .text.rt_hw_stack_init
                0x0000000000026664       0xa4 rtthread.risc-v.lib(cpuport.o)
                0x0000000000026664                riscv_rt_hw_stack_init
 .text.rt_hw_cpu_shutdown
                0x0000000000026708       0x52 rtthread.risc-v.lib(cpuport.o)
 .text.dfs_register
                0x000000000002675a       0xee rtthread.risc-v.lib(dfs_fs.o)
                0x000000000002675a                riscv_dfs_register
 .text.dfs_filesystem_lookup
                0x0000000000026848      0x11a rtthread.risc-v.lib(dfs_fs.o)
                0x0000000000026848                riscv_dfs_filesystem_lookup
 .text.dfs_filesystem_get_mounted_path
                0x0000000000026962       0x7a rtthread.risc-v.lib(dfs_fs.o)
                0x0000000000026962                riscv_dfs_filesystem_get_mounted_path
 .text.dfs_filesystem_get_partition
                0x00000000000269dc      0x1ea rtthread.risc-v.lib(dfs_fs.o)
                0x00000000000269dc                riscv_dfs_filesystem_get_partition
 .text.dfs_mount
                0x0000000000026bc6      0x308 rtthread.risc-v.lib(dfs_fs.o)
                0x0000000000026bc6                riscv_dfs_mount
 .text.dfs_unmount
                0x0000000000026ece      0x12e rtthread.risc-v.lib(dfs_fs.o)
                0x0000000000026ece                riscv_dfs_unmount
 .text.dfs_mkfs
                0x0000000000026ffc      0x15a rtthread.risc-v.lib(dfs_fs.o)
                0x0000000000026ffc                riscv_dfs_mkfs
 .text.dfs_statfs
                0x0000000000027156       0x52 rtthread.risc-v.lib(dfs_fs.o)
                0x0000000000027156                riscv_dfs_statfs
 .text.mkfs     0x00000000000271a8       0x2a rtthread.risc-v.lib(dfs_fs.o)
                0x00000000000271a8                riscv_mkfs
 .text.df       0x00000000000271d2      0x376 rtthread.risc-v.lib(dfs_fs.o)
                0x00000000000271d2                riscv_df
 .text.dfs_init
                0x0000000000027548       0xdc rtthread.risc-v.lib(dfs.o)
                0x0000000000027548                riscv_dfs_init
 .text.dfs_lock
                0x0000000000027624       0x5c rtthread.risc-v.lib(dfs.o)
                0x0000000000027624                riscv_dfs_lock
 .text.dfs_unlock
                0x0000000000027680       0x22 rtthread.risc-v.lib(dfs.o)
                0x0000000000027680                riscv_dfs_unlock
 .text.fd_alloc
                0x00000000000276a2      0x180 rtthread.risc-v.lib(dfs.o)
 .text.fd_new   0x0000000000027822       0xa0 rtthread.risc-v.lib(dfs.o)
                0x0000000000027822                riscv_fd_new
 .text.fd_get   0x00000000000278c2       0xc2 rtthread.risc-v.lib(dfs.o)
                0x00000000000278c2                riscv_fd_get
 .text.fd_put   0x0000000000027984       0xc4 rtthread.risc-v.lib(dfs.o)
                0x0000000000027984                riscv_fd_put
 .text.fd_is_open
                0x0000000000027a48      0x14e rtthread.risc-v.lib(dfs.o)
                0x0000000000027a48                riscv_fd_is_open
 .text.dfs_subdir
                0x0000000000027b96       0x84 rtthread.risc-v.lib(dfs.o)
                0x0000000000027b96                riscv_dfs_subdir
 .text.dfs_normalize_path
                0x0000000000027c1a      0x332 rtthread.risc-v.lib(dfs.o)
                0x0000000000027c1a                riscv_dfs_normalize_path
 .text.dfs_fdtable_get
                0x0000000000027f4c       0x1e rtthread.risc-v.lib(dfs.o)
                0x0000000000027f4c                riscv_dfs_fdtable_get
 .text.list_fd  0x0000000000027f6a      0x23e rtthread.risc-v.lib(dfs.o)
                0x0000000000027f6a                riscv_list_fd
 .text.dfs_file_open
                0x00000000000281a8      0x1c8 rtthread.risc-v.lib(dfs_file.o)
                0x00000000000281a8                riscv_dfs_file_open
 .text.dfs_file_close
                0x0000000000028370       0x6a rtthread.risc-v.lib(dfs_file.o)
                0x0000000000028370                riscv_dfs_file_close
 .text.dfs_file_ioctl
                0x00000000000283da       0xbe rtthread.risc-v.lib(dfs_file.o)
                0x00000000000283da                riscv_dfs_file_ioctl
 .text.dfs_file_read
                0x0000000000028498       0x74 rtthread.risc-v.lib(dfs_file.o)
                0x0000000000028498                riscv_dfs_file_read
 .text.dfs_file_getdents
                0x000000000002850c       0x5e rtthread.risc-v.lib(dfs_file.o)
                0x000000000002850c                riscv_dfs_file_getdents
 .text.dfs_file_unlink
                0x000000000002856a      0x112 rtthread.risc-v.lib(dfs_file.o)
                0x000000000002856a                riscv_dfs_file_unlink
 .text.dfs_file_write
                0x000000000002867c       0x50 rtthread.risc-v.lib(dfs_file.o)
                0x000000000002867c                riscv_dfs_file_write
 .text.dfs_file_flush
                0x00000000000286cc       0x40 rtthread.risc-v.lib(dfs_file.o)
                0x00000000000286cc                riscv_dfs_file_flush
 .text.dfs_file_lseek
                0x000000000002870c       0x60 rtthread.risc-v.lib(dfs_file.o)
                0x000000000002870c                riscv_dfs_file_lseek
 .text.dfs_file_stat
                0x000000000002876c      0x198 rtthread.risc-v.lib(dfs_file.o)
                0x000000000002876c                riscv_dfs_file_stat
 .text.dfs_file_rename
                0x0000000000028904      0x13e rtthread.risc-v.lib(dfs_file.o)
                0x0000000000028904                riscv_dfs_file_rename
 .text.dfs_file_ftruncate
                0x0000000000028a42       0x78 rtthread.risc-v.lib(dfs_file.o)
                0x0000000000028a42                riscv_dfs_file_ftruncate
 .text.ls       0x0000000000028aba      0x1b6 rtthread.risc-v.lib(dfs_file.o)
                0x0000000000028aba                riscv_ls
 .text.rm       0x0000000000028c70       0x3c rtthread.risc-v.lib(dfs_file.o)
                0x0000000000028c70                riscv_rm
 .text.cat      0x0000000000028cac       0xbc rtthread.risc-v.lib(dfs_file.o)
                0x0000000000028cac                riscv_cat
 .text.copyfile
                0x0000000000028d68      0x15a rtthread.risc-v.lib(dfs_file.o)
 .text.copydir  0x0000000000028ec2      0x1f2 rtthread.risc-v.lib(dfs_file.o)
 .text._get_path_lastname
                0x00000000000290b4       0x44 rtthread.risc-v.lib(dfs_file.o)
 .text.copy     0x00000000000290f8      0x1f0 rtthread.risc-v.lib(dfs_file.o)
                0x00000000000290f8                riscv_copy
 .text.dfs_device_fs_mount
                0x00000000000292e8       0x1c rtthread.risc-v.lib(devfs.o)
                0x00000000000292e8                riscv_dfs_device_fs_mount
 .text.dfs_device_fs_ioctl
                0x0000000000029304       0x92 rtthread.risc-v.lib(devfs.o)
                0x0000000000029304                riscv_dfs_device_fs_ioctl
 .text.dfs_device_fs_read
                0x0000000000029396       0xa4 rtthread.risc-v.lib(devfs.o)
                0x0000000000029396                riscv_dfs_device_fs_read
 .text.dfs_device_fs_write
                0x000000000002943a       0xa4 rtthread.risc-v.lib(devfs.o)
                0x000000000002943a                riscv_dfs_device_fs_write
 .text.dfs_device_fs_close
                0x00000000000294de       0xd2 rtthread.risc-v.lib(devfs.o)
                0x00000000000294de                riscv_dfs_device_fs_close
 .text.dfs_device_fs_open
                0x00000000000295b0      0x24c rtthread.risc-v.lib(devfs.o)
                0x00000000000295b0                riscv_dfs_device_fs_open
 .text.dfs_device_fs_stat
                0x00000000000297fc      0x130 rtthread.risc-v.lib(devfs.o)
                0x00000000000297fc                riscv_dfs_device_fs_stat
 .text.dfs_device_fs_getdents
                0x000000000002992c      0x138 rtthread.risc-v.lib(devfs.o)
                0x000000000002992c                riscv_dfs_device_fs_getdents
 .text.dfs_device_fs_poll
                0x0000000000029a64       0x1e rtthread.risc-v.lib(devfs.o)
 .text.devfs_init
                0x0000000000029a82       0x24 rtthread.risc-v.lib(devfs.o)
                0x0000000000029a82                riscv_devfs_init
 .text.elm_result_to_dfs
                0x0000000000029aa6       0x74 rtthread.risc-v.lib(dfs_elm.o)
 .text.get_disk
                0x0000000000029b1a       0x4e rtthread.risc-v.lib(dfs_elm.o)
 .text.dfs_elm_mount
                0x0000000000029b68      0x1e8 rtthread.risc-v.lib(dfs_elm.o)
                0x0000000000029b68                riscv_dfs_elm_mount
 .text.dfs_elm_unmount
                0x0000000000029d50       0xe2 rtthread.risc-v.lib(dfs_elm.o)
                0x0000000000029d50                riscv_dfs_elm_unmount
 .text.dfs_elm_mkfs
                0x0000000000029e32      0x20e rtthread.risc-v.lib(dfs_elm.o)
                0x0000000000029e32                riscv_dfs_elm_mkfs
 .text.dfs_elm_statfs
                0x000000000002a040      0x10c rtthread.risc-v.lib(dfs_elm.o)
                0x000000000002a040                riscv_dfs_elm_statfs
 .text.dfs_elm_open
                0x000000000002a14c      0x28a rtthread.risc-v.lib(dfs_elm.o)
                0x000000000002a14c                riscv_dfs_elm_open
 .text.dfs_elm_close
                0x000000000002a3d6       0xc8 rtthread.risc-v.lib(dfs_elm.o)
                0x000000000002a3d6                riscv_dfs_elm_close
 .text.dfs_elm_ioctl
                0x000000000002a49e       0xca rtthread.risc-v.lib(dfs_elm.o)
                0x000000000002a49e                riscv_dfs_elm_ioctl
 .text.dfs_elm_read
                0x000000000002a568       0xa2 rtthread.risc-v.lib(dfs_elm.o)
                0x000000000002a568                riscv_dfs_elm_read
 .text.dfs_elm_write
                0x000000000002a60a       0xae rtthread.risc-v.lib(dfs_elm.o)
                0x000000000002a60a                riscv_dfs_elm_write
 .text.dfs_elm_flush
                0x000000000002a6b8       0x60 rtthread.risc-v.lib(dfs_elm.o)
                0x000000000002a6b8                riscv_dfs_elm_flush
 .text.dfs_elm_lseek
                0x000000000002a718      0x104 rtthread.risc-v.lib(dfs_elm.o)
                0x000000000002a718                riscv_dfs_elm_lseek
 .text.dfs_elm_getdents
                0x000000000002a81c      0x192 rtthread.risc-v.lib(dfs_elm.o)
                0x000000000002a81c                riscv_dfs_elm_getdents
 .text.dfs_elm_unlink
                0x000000000002a9ae       0x9e rtthread.risc-v.lib(dfs_elm.o)
                0x000000000002a9ae                riscv_dfs_elm_unlink
 .text.dfs_elm_rename
                0x000000000002aa4c       0xae rtthread.risc-v.lib(dfs_elm.o)
                0x000000000002aa4c                riscv_dfs_elm_rename
 .text.dfs_elm_stat
                0x000000000002aafa      0x1fc rtthread.risc-v.lib(dfs_elm.o)
                0x000000000002aafa                riscv_dfs_elm_stat
 .text.elm_init
                0x000000000002acf6       0x24 rtthread.risc-v.lib(dfs_elm.o)
                0x000000000002acf6                elm_init
 .text.disk_initialize
                0x000000000002ad1a       0x16 rtthread.risc-v.lib(dfs_elm.o)
                0x000000000002ad1a                riscv_disk_initialize
 .text.disk_status
                0x000000000002ad30       0x16 rtthread.risc-v.lib(dfs_elm.o)
                0x000000000002ad30                riscv_disk_status
 .text.disk_read
                0x000000000002ad46       0x6a rtthread.risc-v.lib(dfs_elm.o)
                0x000000000002ad46                riscv_disk_read
 .text.disk_write
                0x000000000002adb0       0x6a rtthread.risc-v.lib(dfs_elm.o)
                0x000000000002adb0                riscv_disk_write
 .text.disk_ioctl
                0x000000000002ae1a      0x150 rtthread.risc-v.lib(dfs_elm.o)
                0x000000000002ae1a                riscv_disk_ioctl
 .text.get_fattime
                0x000000000002af6a       0x9c rtthread.risc-v.lib(dfs_elm.o)
                0x000000000002af6a                riscv_get_fattime
 .text.ff_cre_syncobj
                0x000000000002b006       0x64 rtthread.risc-v.lib(dfs_elm.o)
                0x000000000002b006                riscv_ff_cre_syncobj
 .text.ff_del_syncobj
                0x000000000002b06a       0x2a rtthread.risc-v.lib(dfs_elm.o)
                0x000000000002b06a                riscv_ff_del_syncobj
 .text.ff_req_grant
                0x000000000002b094       0x32 rtthread.risc-v.lib(dfs_elm.o)
                0x000000000002b094                riscv_ff_req_grant
 .text.ff_rel_grant
                0x000000000002b0c6       0x22 rtthread.risc-v.lib(dfs_elm.o)
                0x000000000002b0c6                riscv_ff_rel_grant
 .text.ff_memalloc
                0x000000000002b0e8       0x24 rtthread.risc-v.lib(dfs_elm.o)
                0x000000000002b0e8                riscv_ff_memalloc
 .text.ff_memfree
                0x000000000002b10c       0x22 rtthread.risc-v.lib(dfs_elm.o)
                0x000000000002b10c                riscv_ff_memfree
 .text.rt_poll_add
                0x000000000002b12e       0x3e rtthread.risc-v.lib(serial.o)
 .text.serial_fops_rx_ind
                0x000000000002b16c       0x30 rtthread.risc-v.lib(serial.o)
 .text.serial_fops_open
                0x000000000002b19c       0xf2 rtthread.risc-v.lib(serial.o)
 .text.serial_fops_close
                0x000000000002b28e       0x3c rtthread.risc-v.lib(serial.o)
 .text.serial_fops_ioctl
                0x000000000002b2ca       0xa2 rtthread.risc-v.lib(serial.o)
 .text.serial_fops_read
                0x000000000002b36c       0x86 rtthread.risc-v.lib(serial.o)
 .text.serial_fops_write
                0x000000000002b3f2       0x40 rtthread.risc-v.lib(serial.o)
 .text.serial_fops_poll
                0x000000000002b432       0xee rtthread.risc-v.lib(serial.o)
 .text._serial_poll_rx
                0x000000000002b520       0xbc rtthread.risc-v.lib(serial.o)
 .text._serial_poll_tx
                0x000000000002b5dc       0xb4 rtthread.risc-v.lib(serial.o)
 .text._serial_int_rx
                0x000000000002b690      0x154 rtthread.risc-v.lib(serial.o)
 .text._serial_int_tx
                0x000000000002b7e4      0x114 rtthread.risc-v.lib(serial.o)
 .text._serial_check_buffer_size
                0x000000000002b8f8       0x42 rtthread.risc-v.lib(serial.o)
 .text._serial_fifo_calc_recved_len
                0x000000000002b93a       0xc8 rtthread.risc-v.lib(serial.o)
 .text.rt_serial_init
                0x000000000002ba02       0x7e rtthread.risc-v.lib(serial.o)
 .text.rt_serial_open
                0x000000000002ba80      0x2d2 rtthread.risc-v.lib(serial.o)
 .text.rt_serial_close
                0x000000000002bd52      0x176 rtthread.risc-v.lib(serial.o)
 .text.rt_serial_read
                0x000000000002bec8       0x96 rtthread.risc-v.lib(serial.o)
 .text.rt_serial_write
                0x000000000002bf5e       0x96 rtthread.risc-v.lib(serial.o)
 .text.rt_serial_control
                0x000000000002bff4      0x41e rtthread.risc-v.lib(serial.o)
 .text.rt_hw_serial_register
                0x000000000002c412       0xf2 rtthread.risc-v.lib(serial.o)
                0x000000000002c412                riscv_rt_hw_serial_register
 .text.rt_hw_serial_isr
                0x000000000002c504      0x1fe rtthread.risc-v.lib(serial.o)
                0x000000000002c504                riscv_rt_hw_serial_isr
 .text.finsh_set_prompt
                0x000000000002c702       0x86 rtthread.risc-v.lib(shell.o)
                0x000000000002c702                riscv_finsh_set_prompt
 .text.finsh_get_prompt
                0x000000000002c788       0xe8 rtthread.risc-v.lib(shell.o)
                0x000000000002c788                riscv_finsh_get_prompt
 .text.finsh_get_prompt_mode
                0x000000000002c870       0x4c rtthread.risc-v.lib(shell.o)
                0x000000000002c870                riscv_finsh_get_prompt_mode
 .text.finsh_set_prompt_mode
                0x000000000002c8bc       0x64 rtthread.risc-v.lib(shell.o)
                0x000000000002c8bc                riscv_finsh_set_prompt_mode
 .text.finsh_getchar
                0x000000000002c920       0x36 rtthread.risc-v.lib(shell.o)
                0x000000000002c920                riscv_finsh_getchar
 .text.finsh_set_echo
                0x000000000002c956       0x62 rtthread.risc-v.lib(shell.o)
                0x000000000002c956                riscv_finsh_set_echo
 .text.finsh_get_echo
                0x000000000002c9b8       0x4a rtthread.risc-v.lib(shell.o)
                0x000000000002c9b8                riscv_finsh_get_echo
 .text.shell_auto_complete
                0x000000000002ca02       0x52 rtthread.risc-v.lib(shell.o)
 .text.shell_handle_history
                0x000000000002ca54       0x4e rtthread.risc-v.lib(shell.o)
 .text.shell_push_history
                0x000000000002caa2      0x20e rtthread.risc-v.lib(shell.o)
 .text.finsh_thread_entry
                0x000000000002ccb0      0x82e rtthread.risc-v.lib(shell.o)
                0x000000000002ccb0                riscv_finsh_thread_entry
 .text.finsh_system_function_init
                0x000000000002d4de       0x2e rtthread.risc-v.lib(shell.o)
                0x000000000002d4de                riscv_finsh_system_function_init
 .text.finsh_system_init
                0x000000000002d50c       0xea rtthread.risc-v.lib(shell.o)
                0x000000000002d50c                riscv_finsh_system_init
 .text.msh_help
                0x000000000002d5f6       0x84 rtthread.risc-v.lib(msh.o)
                0x000000000002d5f6                riscv_msh_help
 .text.cmd_ps   0x000000000002d67a       0x24 rtthread.risc-v.lib(msh.o)
                0x000000000002d67a                riscv_cmd_ps
 .text.cmd_free
                0x000000000002d69e       0x84 rtthread.risc-v.lib(msh.o)
                0x000000000002d69e                riscv_cmd_free
 .text.msh_split
                0x000000000002d722      0x240 rtthread.risc-v.lib(msh.o)
 .text.msh_get_cmd
                0x000000000002d962       0x86 rtthread.risc-v.lib(msh.o)
 .text._msh_exec_cmd
                0x000000000002d9e8      0x124 rtthread.risc-v.lib(msh.o)
 .text.msh_exec
                0x000000000002db0c       0xe4 rtthread.risc-v.lib(msh.o)
                0x000000000002db0c                riscv_msh_exec
 .text.str_common
                0x000000000002dbf0       0x68 rtthread.risc-v.lib(msh.o)
 .text.msh_auto_complete_path
                0x000000000002dc58      0x342 rtthread.risc-v.lib(msh.o)
                0x000000000002dc58                riscv_msh_auto_complete_path
 .text.msh_auto_complete
                0x000000000002df9a      0x158 rtthread.risc-v.lib(msh.o)
                0x000000000002df9a                riscv_msh_auto_complete
 .text.rt_list_isempty
                0x000000000002e0f2       0x28 rtthread.risc-v.lib(cmd.o)
 .text.rt_list_len
                0x000000000002e11a       0x46 rtthread.risc-v.lib(cmd.o)
 .text.clear    0x000000000002e160       0x24 rtthread.risc-v.lib(cmd.o)
 .text.version  0x000000000002e184       0x1c rtthread.risc-v.lib(cmd.o)
                0x000000000002e184                riscv_version
 .text.object_split
                0x000000000002e1a0       0x36 rtthread.risc-v.lib(cmd.o)
 .text.list_find_init
                0x000000000002e1d6       0x72 rtthread.risc-v.lib(cmd.o)
 .text.list_get_next
                0x000000000002e248      0x11a rtthread.risc-v.lib(cmd.o)
 .text.list_thread
                0x000000000002e362      0x2b6 rtthread.risc-v.lib(cmd.o)
                0x000000000002e362                riscv_list_thread
 .text.show_wait_queue
                0x000000000002e618       0x78 rtthread.risc-v.lib(cmd.o)
 .text.list_sem
                0x000000000002e690      0x1ba rtthread.risc-v.lib(cmd.o)
                0x000000000002e690                riscv_list_sem
 .text.list_event
                0x000000000002e84a      0x1a0 rtthread.risc-v.lib(cmd.o)
                0x000000000002e84a                riscv_list_event
 .text.list_mutex
                0x000000000002e9ea      0x15a rtthread.risc-v.lib(cmd.o)
                0x000000000002e9ea                riscv_list_mutex
 .text.list_mailbox
                0x000000000002eb44      0x1da rtthread.risc-v.lib(cmd.o)
                0x000000000002eb44                riscv_list_mailbox
 .text.list_msgqueue
                0x000000000002ed1e      0x1ba rtthread.risc-v.lib(cmd.o)
                0x000000000002ed1e                riscv_list_msgqueue
 .text.list_mempool
                0x000000000002eed8      0x1d0 rtthread.risc-v.lib(cmd.o)
                0x000000000002eed8                riscv_list_mempool
 .text.list_timer
                0x000000000002f0a8      0x1a6 rtthread.risc-v.lib(cmd.o)
                0x000000000002f0a8                riscv_list_timer
 .text.list_device
                0x000000000002f24e      0x172 rtthread.risc-v.lib(cmd.o)
                0x000000000002f24e                riscv_list_device
 .text.__isleap
                0x000000000002f3c0       0x3c rtthread.risc-v.lib(time.o)
 .text.num2str  0x000000000002f3fc       0x54 rtthread.risc-v.lib(time.o)
 .text.get_timeval
                0x000000000002f450       0x34 rtthread.risc-v.lib(time.o)
 .text.set_timeval
                0x000000000002f484       0x34 rtthread.risc-v.lib(time.o)
 .text.gmtime_r
                0x000000000002f4b8      0x1c6 rtthread.risc-v.lib(time.o)
                0x000000000002f4b8                riscv_gmtime_r
 .text.gmtime   0x000000000002f67e       0x2c rtthread.risc-v.lib(time.o)
                0x000000000002f67e                riscv_gmtime
 .text.localtime_r
                0x000000000002f6aa       0x54 rtthread.risc-v.lib(time.o)
                0x000000000002f6aa                riscv_localtime_r
 .text.localtime
                0x000000000002f6fe       0x2c rtthread.risc-v.lib(time.o)
                0x000000000002f6fe                riscv_localtime
 .text.mktime   0x000000000002f72a       0x4a rtthread.risc-v.lib(time.o)
                0x000000000002f72a                riscv_mktime
 .text.asctime_r
                0x000000000002f774      0x2f8 rtthread.risc-v.lib(time.o)
                0x000000000002f774                riscv_asctime_r
 .text.asctime  0x000000000002fa6c       0x2c rtthread.risc-v.lib(time.o)
                0x000000000002fa6c                riscv_asctime
 .text.ctime_r  0x000000000002fa98       0x3e rtthread.risc-v.lib(time.o)
                0x000000000002fa98                riscv_ctime_r
 .text.ctime    0x000000000002fad6       0x30 rtthread.risc-v.lib(time.o)
                0x000000000002fad6                riscv_ctime
 .text.difftime
                0x000000000002fb06       0x36 rtthread.risc-v.lib(time.o)
                0x000000000002fb06                riscv_difftime
 .text.time     0x000000000002fb3c       0x4a rtthread.risc-v.lib(time.o)
                0x000000000002fb3c                riscv_time
 .text.clock    0x000000000002fb86       0x1c rtthread.risc-v.lib(time.o)
                0x000000000002fb86                riscv_clock
 .text.stime    0x000000000002fba2       0x56 rtthread.risc-v.lib(time.o)
                0x000000000002fba2                riscv_stime
 .text.timegm   0x000000000002fbf8      0x33c rtthread.risc-v.lib(time.o)
                0x000000000002fbf8                riscv_timegm
 .text.gettimeofday
                0x000000000002ff34       0x6a rtthread.risc-v.lib(time.o)
                0x000000000002ff34                riscv_gettimeofday
 .text.settimeofday
                0x000000000002ff9e       0x4a rtthread.risc-v.lib(time.o)
                0x000000000002ff9e                riscv_settimeofday
 .text.nanosleep
                0x000000000002ffe8       0x3c rtthread.risc-v.lib(time.o)
                0x000000000002ffe8                riscv_nanosleep
 .text.clock_getres
                0x0000000000030024       0x38 rtthread.risc-v.lib(time.o)
                0x0000000000030024                riscv_clock_getres
 .text.clock_gettime
                0x000000000003005c       0x38 rtthread.risc-v.lib(time.o)
                0x000000000003005c                riscv_clock_gettime
 .text.clock_nanosleep
                0x0000000000030094       0x52 rtthread.risc-v.lib(time.o)
                0x0000000000030094                riscv_clock_nanosleep
 .text.clock_settime
                0x00000000000300e6       0x38 rtthread.risc-v.lib(time.o)
                0x00000000000300e6                riscv_clock_settime
 .text.rt_timespec_to_tick
                0x000000000003011e      0x108 rtthread.risc-v.lib(time.o)
                0x000000000003011e                riscv_rt_timespec_to_tick
 .text.tz_set   0x0000000000030226       0x3c rtthread.risc-v.lib(time.o)
                0x0000000000030226                riscv_tz_set
 .text.tz_get   0x0000000000030262       0x1a rtthread.risc-v.lib(time.o)
                0x0000000000030262                riscv_tz_get
 .text.tz_is_dst
                0x000000000003027c       0x10 rtthread.risc-v.lib(time.o)
                0x000000000003027c                riscv_tz_is_dst
 .text.msleep   0x000000000003028c       0x24 rtthread.risc-v.lib(delay.o)
                0x000000000003028c                riscv_msleep
 .text.ssleep   0x00000000000302b0       0x2c rtthread.risc-v.lib(delay.o)
                0x00000000000302b0                riscv_ssleep
 .text.mdelay   0x00000000000302dc       0x2c rtthread.risc-v.lib(delay.o)
                0x00000000000302dc                riscv_mdelay
 .text.udelay   0x0000000000030308       0x22 rtthread.risc-v.lib(delay.o)
                0x0000000000030308                riscv_udelay
 .text.ndelay   0x000000000003032a       0x20 rtthread.risc-v.lib(delay.o)
                0x000000000003032a                riscv_ndelay
 .text.sleep    0x000000000003034a       0x52 rtthread.risc-v.lib(delay.o)
                0x000000000003034a                riscv_sleep
 .text.usleep   0x000000000003039c       0x68 rtthread.risc-v.lib(delay.o)
                0x000000000003039c                riscv_usleep
 .text.libc_system_init
                0x0000000000030404       0x36 rtthread.risc-v.lib(libc.o)
                0x0000000000030404                riscv_libc_system_init
 .text.libc_stdio_set_console
                0x000000000003043a      0x170 rtthread.risc-v.lib(libc.o)
                0x000000000003043a                riscv_libc_stdio_set_console
 .text.libc_stdio_get_console
                0x00000000000305aa       0x34 rtthread.risc-v.lib(libc.o)
                0x00000000000305aa                riscv_libc_stdio_get_console
 .text.isatty   0x00000000000305de       0x44 rtthread.risc-v.lib(libc.o)
                0x00000000000305de                riscv_isatty
 .text.posix_sem_system_init
                0x0000000000030622       0x30 rtthread.risc-v.lib(semaphore.o)
                0x0000000000030622                riscv_posix_sem_system_init
 .text.posix_sem_insert
                0x0000000000030652       0x2c rtthread.risc-v.lib(semaphore.o)
 .text.posix_sem_delete
                0x000000000003067e       0xba rtthread.risc-v.lib(semaphore.o)
 .text.posix_sem_find
                0x0000000000030738       0x5e rtthread.risc-v.lib(semaphore.o)
 .text.sem_close
                0x0000000000030796       0x8a rtthread.risc-v.lib(semaphore.o)
                0x0000000000030796                riscv_sem_close
 .text.sem_destroy
                0x0000000000030820       0x9c rtthread.risc-v.lib(semaphore.o)
                0x0000000000030820                riscv_sem_destroy
 .text.sem_unlink
                0x00000000000308bc       0x8e rtthread.risc-v.lib(semaphore.o)
                0x00000000000308bc                riscv_sem_unlink
 .text.sem_getvalue
                0x000000000003094a       0x48 rtthread.risc-v.lib(semaphore.o)
                0x000000000003094a                riscv_sem_getvalue
 .text.sem_init
                0x0000000000030992       0xe4 rtthread.risc-v.lib(semaphore.o)
                0x0000000000030992                riscv_sem_init
 .text.sem_open
                0x0000000000030a76      0x1a6 rtthread.risc-v.lib(semaphore.o)
                0x0000000000030a76                riscv_sem_open
 .text.sem_post
                0x0000000000030c1c       0x54 rtthread.risc-v.lib(semaphore.o)
                0x0000000000030c1c                riscv_sem_post
 .text.sem_timedwait
                0x0000000000030c70       0x82 rtthread.risc-v.lib(semaphore.o)
                0x0000000000030c70                riscv_sem_timedwait
 .text.sem_trywait
                0x0000000000030cf2       0x6e rtthread.risc-v.lib(semaphore.o)
                0x0000000000030cf2                riscv_sem_trywait
 .text.sem_wait
                0x0000000000030d60       0x56 rtthread.risc-v.lib(semaphore.o)
                0x0000000000030d60                riscv_sem_wait
 .text._pthread_get_data
                0x0000000000030db6       0x7a rtthread.risc-v.lib(pthread.o)
                0x0000000000030db6                riscv__pthread_get_data
 .text._pthread_data_get_pth
                0x0000000000030e30       0x72 rtthread.risc-v.lib(pthread.o)
                0x0000000000030e30                riscv__pthread_data_get_pth
 .text._pthread_data_create
                0x0000000000030ea2       0xf8 rtthread.risc-v.lib(pthread.o)
                0x0000000000030ea2                riscv__pthread_data_create
 .text._pthread_data_destroy
                0x0000000000030f9a      0x134 rtthread.risc-v.lib(pthread.o)
                0x0000000000030f9a                riscv__pthread_data_destroy
 .text._pthread_cleanup
                0x00000000000310ce       0x3a rtthread.risc-v.lib(pthread.o)
 .text.pthread_entry_stub
                0x0000000000031108       0x62 rtthread.risc-v.lib(pthread.o)
 .text.pthread_create
                0x000000000003116a      0x2ae rtthread.risc-v.lib(pthread.o)
                0x000000000003116a                riscv_pthread_create
 .text.pthread_detach
                0x0000000000031418       0x9e rtthread.risc-v.lib(pthread.o)
                0x0000000000031418                riscv_pthread_detach
 .text.pthread_join
                0x00000000000314b6       0xa8 rtthread.risc-v.lib(pthread.o)
                0x00000000000314b6                riscv_pthread_join
 .text.pthread_self
                0x000000000003155e       0x6a rtthread.risc-v.lib(pthread.o)
                0x000000000003155e                riscv_pthread_self
 .text.pthread_getcpuclockid
                0x00000000000315c8       0x40 rtthread.risc-v.lib(pthread.o)
                0x00000000000315c8                riscv_pthread_getcpuclockid
 .text.pthread_getconcurrency
                0x0000000000031608       0x16 rtthread.risc-v.lib(pthread.o)
                0x0000000000031608                riscv_pthread_getconcurrency
 .text.pthread_setconcurrency
                0x000000000003161e       0x20 rtthread.risc-v.lib(pthread.o)
                0x000000000003161e                riscv_pthread_setconcurrency
 .text.pthread_getschedparam
                0x000000000003163e       0x58 rtthread.risc-v.lib(pthread.o)
                0x000000000003163e                riscv_pthread_getschedparam
 .text.pthread_setschedparam
                0x0000000000031696       0x58 rtthread.risc-v.lib(pthread.o)
                0x0000000000031696                riscv_pthread_setschedparam
 .text.pthread_setschedprio
                0x00000000000316ee       0x4a rtthread.risc-v.lib(pthread.o)
                0x00000000000316ee                riscv_pthread_setschedprio
 .text.pthread_exit
                0x0000000000031738       0xd8 rtthread.risc-v.lib(pthread.o)
                0x0000000000031738                riscv_pthread_exit
 .text.pthread_once
                0x0000000000031810       0x8e rtthread.risc-v.lib(pthread.o)
                0x0000000000031810                riscv_pthread_once
 .text.pthread_atfork
                0x000000000003189e       0x1e rtthread.risc-v.lib(pthread.o)
                0x000000000003189e                riscv_pthread_atfork
 .text.pthread_kill
                0x00000000000318bc       0x1a rtthread.risc-v.lib(pthread.o)
                0x00000000000318bc                riscv_pthread_kill
 .text.pthread_cleanup_pop
                0x00000000000318d6       0xaa rtthread.risc-v.lib(pthread.o)
                0x00000000000318d6                riscv_pthread_cleanup_pop
 .text.pthread_cleanup_push
                0x0000000000031980       0xa8 rtthread.risc-v.lib(pthread.o)
                0x0000000000031980                riscv_pthread_cleanup_push
 .text.pthread_setcancelstate
                0x0000000000031a28       0x9c rtthread.risc-v.lib(pthread.o)
                0x0000000000031a28                riscv_pthread_setcancelstate
 .text.pthread_setcanceltype
                0x0000000000031ac4       0x9c rtthread.risc-v.lib(pthread.o)
                0x0000000000031ac4                riscv_pthread_setcanceltype
 .text.pthread_testcancel
                0x0000000000031b60       0x84 rtthread.risc-v.lib(pthread.o)
                0x0000000000031b60                riscv_pthread_testcancel
 .text.pthread_cancel
                0x0000000000031be4       0xec rtthread.risc-v.lib(pthread.o)
                0x0000000000031be4                riscv_pthread_cancel
 .text.pthread_attr_init
                0x0000000000031cd0       0x6e rtthread.risc-v.lib(pthread_attr.o)
                0x0000000000031cd0                riscv_pthread_attr_init
 .text.pthread_attr_destroy
                0x0000000000031d3e       0x4a rtthread.risc-v.lib(pthread_attr.o)
                0x0000000000031d3e                riscv_pthread_attr_destroy
 .text.pthread_attr_setdetachstate
                0x0000000000031d88       0x5c rtthread.risc-v.lib(pthread_attr.o)
                0x0000000000031d88                riscv_pthread_attr_setdetachstate
 .text.pthread_attr_getdetachstate
                0x0000000000031de4       0x4a rtthread.risc-v.lib(pthread_attr.o)
                0x0000000000031de4                riscv_pthread_attr_getdetachstate
 .text.pthread_attr_setschedpolicy
                0x0000000000031e2e       0x48 rtthread.risc-v.lib(pthread_attr.o)
                0x0000000000031e2e                riscv_pthread_attr_setschedpolicy
 .text.pthread_attr_getschedpolicy
                0x0000000000031e76       0x4a rtthread.risc-v.lib(pthread_attr.o)
                0x0000000000031e76                riscv_pthread_attr_getschedpolicy
 .text.pthread_attr_setschedparam
                0x0000000000031ec0       0x6c rtthread.risc-v.lib(pthread_attr.o)
                0x0000000000031ec0                riscv_pthread_attr_setschedparam
 .text.pthread_attr_getschedparam
                0x0000000000031f2c       0x6c rtthread.risc-v.lib(pthread_attr.o)
                0x0000000000031f2c                riscv_pthread_attr_getschedparam
 .text.pthread_attr_setstacksize
                0x0000000000031f98       0x48 rtthread.risc-v.lib(pthread_attr.o)
                0x0000000000031f98                riscv_pthread_attr_setstacksize
 .text.pthread_attr_getstacksize
                0x0000000000031fe0       0x4c rtthread.risc-v.lib(pthread_attr.o)
                0x0000000000031fe0                riscv_pthread_attr_getstacksize
 .text.pthread_attr_setstackaddr
                0x000000000003202c       0x40 rtthread.risc-v.lib(pthread_attr.o)
                0x000000000003202c                riscv_pthread_attr_setstackaddr
 .text.pthread_attr_getstackaddr
                0x000000000003206c       0x40 rtthread.risc-v.lib(pthread_attr.o)
                0x000000000003206c                riscv_pthread_attr_getstackaddr
 .text.pthread_attr_setstack
                0x00000000000320ac       0x5a rtthread.risc-v.lib(pthread_attr.o)
                0x00000000000320ac                riscv_pthread_attr_setstack
 .text.pthread_attr_getstack
                0x0000000000032106       0x5c rtthread.risc-v.lib(pthread_attr.o)
                0x0000000000032106                riscv_pthread_attr_getstack
 .text.pthread_attr_setguardsize
                0x0000000000032162       0x1a rtthread.risc-v.lib(pthread_attr.o)
                0x0000000000032162                riscv_pthread_attr_setguardsize
 .text.pthread_attr_getguardsize
                0x000000000003217c       0x1a rtthread.risc-v.lib(pthread_attr.o)
                0x000000000003217c                riscv_pthread_attr_getguardsize
 .text.pthread_attr_setinheritsched
                0x0000000000032196       0x48 rtthread.risc-v.lib(pthread_attr.o)
                0x0000000000032196                riscv_pthread_attr_setinheritsched
 .text.pthread_attr_getinheritsched
                0x00000000000321de       0x4a rtthread.risc-v.lib(pthread_attr.o)
                0x00000000000321de                riscv_pthread_attr_getinheritsched
 .text.pthread_attr_setscope
                0x0000000000032228       0x32 rtthread.risc-v.lib(pthread_attr.o)
                0x0000000000032228                riscv_pthread_attr_setscope
 .text.pthread_attr_getscope
                0x000000000003225a       0x18 rtthread.risc-v.lib(pthread_attr.o)
                0x000000000003225a                riscv_pthread_attr_getscope
 .text.rt_slist_init
                0x0000000000032272       0x1a rtthread.risc-v.lib(ulog.o)
 .text.rt_slist_append
                0x000000000003228c       0x44 rtthread.risc-v.lib(ulog.o)
 .text.rt_slist_remove
                0x00000000000322d0       0x5a rtthread.risc-v.lib(ulog.o)
 .text.rt_slist_first
                0x000000000003232a       0x18 rtthread.risc-v.lib(ulog.o)
 .text.rt_slist_next
                0x0000000000032342       0x18 rtthread.risc-v.lib(ulog.o)
 .text.ulog_strcpy
                0x000000000003235a       0xba rtthread.risc-v.lib(ulog.o)
                0x000000000003235a                riscv_ulog_strcpy
 .text.ulog_ultoa
                0x0000000000032414       0xe4 rtthread.risc-v.lib(ulog.o)
                0x0000000000032414                riscv_ulog_ultoa
 .text.output_unlock
                0x00000000000324f8       0x60 rtthread.risc-v.lib(ulog.o)
 .text.output_lock
                0x0000000000032558       0x62 rtthread.risc-v.lib(ulog.o)
 .text.ulog_output_lock_enabled
                0x00000000000325ba       0x20 rtthread.risc-v.lib(ulog.o)
                0x00000000000325ba                riscv_ulog_output_lock_enabled
 .text.get_log_buf
                0x00000000000325da       0x30 rtthread.risc-v.lib(ulog.o)
 .text.ulog_formater
                0x000000000003260a      0x4e4 rtthread.risc-v.lib(ulog.o)
                0x000000000003260a                riscv_ulog_formater
 .text.ulog_output_to_all_backend
                0x0000000000032aee      0x1b2 rtthread.risc-v.lib(ulog.o)
 .text.do_output
                0x0000000000032ca0       0x6e rtthread.risc-v.lib(ulog.o)
 .text.ulog_voutput
                0x0000000000032d0e      0x152 rtthread.risc-v.lib(ulog.o)
                0x0000000000032d0e                riscv_ulog_voutput
 .text.ulog_output
                0x0000000000032e60       0x56 rtthread.risc-v.lib(ulog.o)
                0x0000000000032e60                riscv_ulog_output
 .text.ulog_raw
                0x0000000000032eb6       0xdc rtthread.risc-v.lib(ulog.o)
                0x0000000000032eb6                riscv_ulog_raw
 .text.ulog_hexdump
                0x0000000000032f92      0x4b6 rtthread.risc-v.lib(ulog.o)
                0x0000000000032f92                riscv_ulog_hexdump
 .text.ulog_backend_register
                0x0000000000033448      0x11a rtthread.risc-v.lib(ulog.o)
                0x0000000000033448                riscv_ulog_backend_register
 .text.ulog_backend_unregister
                0x0000000000033562       0xa6 rtthread.risc-v.lib(ulog.o)
                0x0000000000033562                riscv_ulog_backend_unregister
 .text.ulog_backend_set_filter
                0x0000000000033608       0x60 rtthread.risc-v.lib(ulog.o)
                0x0000000000033608                riscv_ulog_backend_set_filter
 .text.ulog_backend_find
                0x0000000000033668       0xb8 rtthread.risc-v.lib(ulog.o)
                0x0000000000033668                riscv_ulog_backend_find
 .text.ulog_flush
                0x0000000000033720       0x6a rtthread.risc-v.lib(ulog.o)
                0x0000000000033720                riscv_ulog_flush
 .text.ulog_init
                0x000000000003378a       0x62 rtthread.risc-v.lib(ulog.o)
                0x000000000003378a                riscv_ulog_init
 .text.ulog_deinit
                0x00000000000337ec       0x82 rtthread.risc-v.lib(ulog.o)
                0x00000000000337ec                riscv_ulog_deinit
 .text.USDHC_GetPresentStatusFlags
                0x000000000003386e       0x18 rtthread.risc-v.lib(fsl_host.o)
 .text.UDSHC_SelectVoltage
                0x0000000000033886       0x48 rtthread.risc-v.lib(fsl_host.o)
 .text.USDHC_EnableDDRMode
                0x00000000000338ce       0x60 rtthread.risc-v.lib(fsl_host.o)
 .text.CardInsertDetect
                0x000000000003392e       0x14 rtthread.risc-v.lib(fsl_host.o)
                0x000000000003392e                riscv_CardInsertDetect
 .text.USDHC_TransferFunction
                0x0000000000033942       0x86 rtthread.risc-v.lib(fsl_host.o)
 .text.Host_ErrorRecovery
                0x00000000000339c8       0x62 rtthread.risc-v.lib(fsl_host.o)
 .text.HOST_Init
                0x0000000000033a2a       0x82 rtthread.risc-v.lib(fsl_host.o)
                0x0000000000033a2a                riscv_HOST_Init
 .text.HOST_Reset
                0x0000000000033aac       0x34 rtthread.risc-v.lib(fsl_host.o)
                0x0000000000033aac                riscv_HOST_Reset
 .text.HOST_Deinit
                0x0000000000033ae0       0x2e rtthread.risc-v.lib(fsl_host.o)
                0x0000000000033ae0                riscv_HOST_Deinit
 .text.CLOCK_EnableClock
                0x0000000000033b0e       0x56 rtthread.risc-v.lib(fsl_usdhc.o)
 .text.CLOCK_DisableClock
                0x0000000000033b64       0x58 rtthread.risc-v.lib(fsl_usdhc.o)
 .text.EnableIRQ
                0x0000000000033bbc       0x52 rtthread.risc-v.lib(fsl_usdhc.o)
 .text.DisableIRQ
                0x0000000000033c0e       0x54 rtthread.risc-v.lib(fsl_usdhc.o)
 .text.USDHC_EnableInterruptStatus
                0x0000000000033c62       0x28 rtthread.risc-v.lib(fsl_usdhc.o)
 .text.USDHC_DisableInterruptStatus
                0x0000000000033c8a       0x2c rtthread.risc-v.lib(fsl_usdhc.o)
 .text.USDHC_EnableInterruptSignal
                0x0000000000033cb6       0x28 rtthread.risc-v.lib(fsl_usdhc.o)
 .text.USDHC_DisableInterruptSignal
                0x0000000000033cde       0x2c rtthread.risc-v.lib(fsl_usdhc.o)
 .text.USDHC_GetInterruptStatusFlags
                0x0000000000033d0a       0x18 rtthread.risc-v.lib(fsl_usdhc.o)
 .text.USDHC_ClearInterruptStatusFlags
                0x0000000000033d22       0x20 rtthread.risc-v.lib(fsl_usdhc.o)
 .text.USDHC_GetPresentStatusFlags
                0x0000000000033d42       0x18 rtthread.risc-v.lib(fsl_usdhc.o)
 .text.USDHC_WriteData
                0x0000000000033d5a       0x20 rtthread.risc-v.lib(fsl_usdhc.o)
 .text.USDHC_ReadData
                0x0000000000033d7a       0x18 rtthread.risc-v.lib(fsl_usdhc.o)
 .text.USDHC_GetInstance
                0x0000000000033d92       0x66 rtthread.risc-v.lib(fsl_usdhc.o)
 .text.USDHC_SetTransferInterrupt
                0x0000000000033df8       0x8e rtthread.risc-v.lib(fsl_usdhc.o)
 .text.USDHC_SetTransferConfig
                0x0000000000033e86      0x200 rtthread.risc-v.lib(fsl_usdhc.o)
 .text.USDHC_ReceiveCommandResponse
                0x0000000000034086      0x12c rtthread.risc-v.lib(fsl_usdhc.o)
 .text.USDHC_ReadDataPort
                0x00000000000341b2       0xfa rtthread.risc-v.lib(fsl_usdhc.o)
 .text.USDHC_ReadByDataPortBlocking
                0x00000000000342ac      0x134 rtthread.risc-v.lib(fsl_usdhc.o)
 .text.USDHC_WriteDataPort
                0x00000000000343e0       0xf6 rtthread.risc-v.lib(fsl_usdhc.o)
 .text.USDHC_WriteByDataPortBlocking
                0x00000000000344d6      0x156 rtthread.risc-v.lib(fsl_usdhc.o)
 .text.USDHC_SendCommand
                0x000000000003462c       0xd0 rtthread.risc-v.lib(fsl_usdhc.o)
                0x000000000003462c                riscv_USDHC_SendCommand
 .text.USDHC_WaitCommandDone
                0x00000000000346fc       0xce rtthread.risc-v.lib(fsl_usdhc.o)
 .text.USDHC_TransferDataBlocking
                0x00000000000347ca       0xd4 rtthread.risc-v.lib(fsl_usdhc.o)
 .text.USDHC_Init
                0x000000000003489e      0x22c rtthread.risc-v.lib(fsl_usdhc.o)
                0x000000000003489e                riscv_USDHC_Init
 .text.USDHC_Deinit
                0x0000000000034aca       0x34 rtthread.risc-v.lib(fsl_usdhc.o)
                0x0000000000034aca                riscv_USDHC_Deinit
 .text.USDHC_Reset
                0x0000000000034afe       0x62 rtthread.risc-v.lib(fsl_usdhc.o)
                0x0000000000034afe                riscv_USDHC_Reset
 .text.USDHC_GetCapability
                0x0000000000034b60       0xda rtthread.risc-v.lib(fsl_usdhc.o)
                0x0000000000034b60                riscv_USDHC_GetCapability
 .text.USDHC_SetSdClock
                0x0000000000034c3a      0x23a rtthread.risc-v.lib(fsl_usdhc.o)
                0x0000000000034c3a                riscv_USDHC_SetSdClock
 .text.USDHC_SetCardActive
                0x0000000000034e74       0x5e rtthread.risc-v.lib(fsl_usdhc.o)
                0x0000000000034e74                riscv_USDHC_SetCardActive
 .text.USDHC_SetMmcBootConfig
                0x0000000000034ed2      0x11c rtthread.risc-v.lib(fsl_usdhc.o)
                0x0000000000034ed2                riscv_USDHC_SetMmcBootConfig
 .text.USDHC_SetAdmaTableConfig
                0x0000000000034fee      0x492 rtthread.risc-v.lib(fsl_usdhc.o)
                0x0000000000034fee                riscv_USDHC_SetAdmaTableConfig
 .text.USDHC_TransferBlocking
                0x0000000000035480      0x1b4 rtthread.risc-v.lib(fsl_usdhc.o)
                0x0000000000035480                riscv_USDHC_TransferBlocking
 .text.USDHC_TransferNonBlocking
                0x0000000000035634      0x1dc rtthread.risc-v.lib(fsl_usdhc.o)
                0x0000000000035634                riscv_USDHC_TransferNonBlocking
 .text.USDHC_TransferHandleCardDetect
                0x0000000000035810       0x46 rtthread.risc-v.lib(fsl_usdhc.o)
 .text.USDHC_TransferHandleCommand
                0x0000000000035856       0xfa rtthread.risc-v.lib(fsl_usdhc.o)
 .text.USDHC_TransferHandleData
                0x0000000000035950      0x158 rtthread.risc-v.lib(fsl_usdhc.o)
 .text.USDHC_TransferHandleSdioInterrupt
                0x0000000000035aa8       0x26 rtthread.risc-v.lib(fsl_usdhc.o)
 .text.USDHC_TransferHandleReTuning
                0x0000000000035ace       0x52 rtthread.risc-v.lib(fsl_usdhc.o)
 .text.USDHC_TransferHandleSdioBlockGap
                0x0000000000035b20       0x26 rtthread.risc-v.lib(fsl_usdhc.o)
 .text.USDHC_TransferCreateHandle
                0x0000000000035b46      0x13e rtthread.risc-v.lib(fsl_usdhc.o)
                0x0000000000035b46                riscv_USDHC_TransferCreateHandle
 .text.USDHC_TransferHandleIRQ
                0x0000000000035c84      0x114 rtthread.risc-v.lib(fsl_usdhc.o)
                0x0000000000035c84                riscv_USDHC_TransferHandleIRQ
 .text.USDHC0_DriverIRQHandler
                0x0000000000035d98       0x2c rtthread.risc-v.lib(fsl_usdhc.o)
                0x0000000000035d98                riscv_USDHC0_DriverIRQHandler
 .text.rt_interrupt_enter_sethook
                0x0000000000035dc4       0x1e rtthread.risc-v.lib(irq.o)
                0x0000000000035dc4                riscv_rt_interrupt_enter_sethook
 .text.rt_interrupt_leave_sethook
                0x0000000000035de2       0x1e rtthread.risc-v.lib(irq.o)
                0x0000000000035de2                riscv_rt_interrupt_leave_sethook
 .text.rt_interrupt_enter
                0x0000000000035e00       0x56 rtthread.risc-v.lib(irq.o)
                0x0000000000035e00                riscv_rt_interrupt_enter
 .text.rt_interrupt_leave
                0x0000000000035e56       0x56 rtthread.risc-v.lib(irq.o)
                0x0000000000035e56                riscv_rt_interrupt_leave
 .text.rt_interrupt_get_nest
                0x0000000000035eac       0x40 rtthread.risc-v.lib(irq.o)
                0x0000000000035eac                riscv_rt_interrupt_get_nest
 .text.open     0x0000000000035eec       0xb4 rtthread.risc-v.lib(dfs_posix.o)
                0x0000000000035eec                riscv_open
 .text.creat    0x0000000000035fa0       0x30 rtthread.risc-v.lib(dfs_posix.o)
                0x0000000000035fa0                riscv_creat
 .text.close    0x0000000000035fd0       0x7c rtthread.risc-v.lib(dfs_posix.o)
                0x0000000000035fd0                riscv_close
 .text.read     0x000000000003604c       0x8e rtthread.risc-v.lib(dfs_posix.o)
                0x000000000003604c                riscv_read
 .text.write    0x00000000000360da       0x8e rtthread.risc-v.lib(dfs_posix.o)
                0x00000000000360da                riscv_write
 .text.lseek    0x0000000000036168      0x100 rtthread.risc-v.lib(dfs_posix.o)
                0x0000000000036168                riscv_lseek
 .text.rename   0x0000000000036268       0x48 rtthread.risc-v.lib(dfs_posix.o)
                0x0000000000036268                riscv_rename
 .text.unlink   0x00000000000362b0       0x40 rtthread.risc-v.lib(dfs_posix.o)
                0x00000000000362b0                riscv_unlink
 .text.stat     0x00000000000362f0       0x4a rtthread.risc-v.lib(dfs_posix.o)
                0x00000000000362f0                riscv_stat
 .text.fstat    0x000000000003633a       0xaa rtthread.risc-v.lib(dfs_posix.o)
                0x000000000003633a                riscv_fstat
 .text.fsync    0x00000000000363e4       0x5a rtthread.risc-v.lib(dfs_posix.o)
                0x00000000000363e4                riscv_fsync
 .text.fcntl    0x000000000003643e       0xac rtthread.risc-v.lib(dfs_posix.o)
                0x000000000003643e                riscv_fcntl
 .text.ioctl    0x00000000000364ea       0x5c rtthread.risc-v.lib(dfs_posix.o)
                0x00000000000364ea                riscv_ioctl
 .text.ftruncate
                0x0000000000036546       0xa6 rtthread.risc-v.lib(dfs_posix.o)
                0x0000000000036546                riscv_ftruncate
 .text.statfs   0x00000000000365ec       0x4a rtthread.risc-v.lib(dfs_posix.o)
                0x00000000000365ec                riscv_statfs
 .text.mkdir    0x0000000000036636       0xc0 rtthread.risc-v.lib(dfs_posix.o)
                0x0000000000036636                riscv_mkdir
 .text.rmdir    0x00000000000366f6       0x40 rtthread.risc-v.lib(dfs_posix.o)
                0x00000000000366f6                riscv_rmdir
 .text.opendir  0x0000000000036736       0xf2 rtthread.risc-v.lib(dfs_posix.o)
                0x0000000000036736                riscv_opendir
 .text.readdir  0x0000000000036828      0x104 rtthread.risc-v.lib(dfs_posix.o)
                0x0000000000036828                riscv_readdir
 .text.telldir  0x000000000003692c       0x6c rtthread.risc-v.lib(dfs_posix.o)
                0x000000000003692c                riscv_telldir
 .text.seekdir  0x0000000000036998       0x78 rtthread.risc-v.lib(dfs_posix.o)
                0x0000000000036998                riscv_seekdir
 .text.rewinddir
                0x0000000000036a10       0x72 rtthread.risc-v.lib(dfs_posix.o)
                0x0000000000036a10                riscv_rewinddir
 .text.closedir
                0x0000000000036a82       0x8c rtthread.risc-v.lib(dfs_posix.o)
                0x0000000000036a82                riscv_closedir
 .text.chdir    0x0000000000036b0e      0x102 rtthread.risc-v.lib(dfs_posix.o)
                0x0000000000036b0e                riscv_chdir
 .text.access   0x0000000000036c10       0x38 rtthread.risc-v.lib(dfs_posix.o)
                0x0000000000036c10                riscv_access
 .text.getcwd   0x0000000000036c48       0x46 rtthread.risc-v.lib(dfs_posix.o)
                0x0000000000036c48                riscv_getcwd
 .text.ld_word  0x0000000000036c8e       0x46 rtthread.risc-v.lib(ff.o)
 .text.ld_dword
                0x0000000000036cd4       0x64 rtthread.risc-v.lib(ff.o)
 .text.st_word  0x0000000000036d38       0x52 rtthread.risc-v.lib(ff.o)
 .text.st_dword
                0x0000000000036d8a       0x94 rtthread.risc-v.lib(ff.o)
 .text.dbc_1st  0x0000000000036e1e       0x20 rtthread.risc-v.lib(ff.o)
 .text.dbc_2nd  0x0000000000036e3e       0x20 rtthread.risc-v.lib(ff.o)
 .text.tchar2uni
                0x0000000000036e5e       0xcc rtthread.risc-v.lib(ff.o)
 .text.put_utf  0x0000000000036f2a       0xb4 rtthread.risc-v.lib(ff.o)
 .text.lock_fs  0x0000000000036fde       0x28 rtthread.risc-v.lib(ff.o)
 .text.unlock_fs
                0x0000000000037006       0x4e rtthread.risc-v.lib(ff.o)
 .text.sync_window
                0x0000000000037054       0xb0 rtthread.risc-v.lib(ff.o)
 .text.move_window
                0x0000000000037104       0x82 rtthread.risc-v.lib(ff.o)
 .text.sync_fs  0x0000000000037186      0x152 rtthread.risc-v.lib(ff.o)
 .text.clst2sect
                0x00000000000372d8       0x4e rtthread.risc-v.lib(ff.o)
 .text.get_fat  0x0000000000037326      0x1ca rtthread.risc-v.lib(ff.o)
 .text.put_fat  0x00000000000374f0      0x296 rtthread.risc-v.lib(ff.o)
 .text.remove_chain
                0x0000000000037786      0x11e rtthread.risc-v.lib(ff.o)
 .text.create_chain
                0x00000000000378a4      0x25a rtthread.risc-v.lib(ff.o)
 .text.clmt_clust
                0x0000000000037afe       0x94 rtthread.risc-v.lib(ff.o)
 .text.dir_clear
                0x0000000000037b92      0x1b6 rtthread.risc-v.lib(ff.o)
 .text.dir_sdi  0x0000000000037d48      0x160 rtthread.risc-v.lib(ff.o)
 .text.dir_next
                0x0000000000037ea8      0x19c rtthread.risc-v.lib(ff.o)
 .text.dir_alloc
                0x0000000000038044       0xc8 rtthread.risc-v.lib(ff.o)
 .text.ld_clust
                0x000000000003810c       0x60 rtthread.risc-v.lib(ff.o)
 .text.st_clust
                0x000000000003816c       0x64 rtthread.risc-v.lib(ff.o)
 .text.cmp_lfn  0x00000000000381d0      0x132 rtthread.risc-v.lib(ff.o)
 .text.pick_lfn
                0x0000000000038302      0x11c rtthread.risc-v.lib(ff.o)
 .text.put_lfn  0x000000000003841e      0x124 rtthread.risc-v.lib(ff.o)
 .text.gen_numname
                0x0000000000038542      0x1e2 rtthread.risc-v.lib(ff.o)
 .text.sum_sfn  0x0000000000038724       0x58 rtthread.risc-v.lib(ff.o)
 .text.dir_read
                0x000000000003877c      0x1d0 rtthread.risc-v.lib(ff.o)
 .text.dir_find
                0x000000000003894c      0x206 rtthread.risc-v.lib(ff.o)
 .text.dir_register
                0x0000000000038b52      0x28a rtthread.risc-v.lib(ff.o)
 .text.dir_remove
                0x0000000000038ddc       0xd0 rtthread.risc-v.lib(ff.o)
 .text.get_fileinfo
                0x0000000000038eac      0x340 rtthread.risc-v.lib(ff.o)
 .text.create_name
                0x00000000000391ec      0x52e rtthread.risc-v.lib(ff.o)
 .text.follow_path
                0x000000000003971a      0x134 rtthread.risc-v.lib(ff.o)
 .text.get_ldnumber
                0x000000000003984e       0xda rtthread.risc-v.lib(ff.o)
 .text.check_fs
                0x0000000000039928      0x1d4 rtthread.risc-v.lib(ff.o)
 .text.find_volume
                0x0000000000039afc      0x10c rtthread.risc-v.lib(ff.o)
 .text.mount_volume
                0x0000000000039c08      0x5b4 rtthread.risc-v.lib(ff.o)
 .text.validate
                0x000000000003a1bc       0xb8 rtthread.risc-v.lib(ff.o)
 .text.f_mount  0x000000000003a274      0x102 rtthread.risc-v.lib(ff.o)
                0x000000000003a274                riscv_f_mount
 .text.f_open   0x000000000003a376      0x454 rtthread.risc-v.lib(ff.o)
                0x000000000003a376                riscv_f_open
 .text.f_read   0x000000000003a7ca      0x438 rtthread.risc-v.lib(ff.o)
                0x000000000003a7ca                riscv_f_read
 .text.f_write  0x000000000003ac02      0x4ce rtthread.risc-v.lib(ff.o)
                0x000000000003ac02                riscv_f_write
 .text.f_sync   0x000000000003b0d0      0x1a2 rtthread.risc-v.lib(ff.o)
                0x000000000003b0d0                riscv_f_sync
 .text.f_close  0x000000000003b272       0x66 rtthread.risc-v.lib(ff.o)
                0x000000000003b272                riscv_f_close
 .text.f_lseek  0x000000000003b2d8      0x6cc rtthread.risc-v.lib(ff.o)
                0x000000000003b2d8                riscv_f_lseek
 .text.f_opendir
                0x000000000003b9a4      0x148 rtthread.risc-v.lib(ff.o)
                0x000000000003b9a4                riscv_f_opendir
 .text.f_closedir
                0x000000000003baec       0x50 rtthread.risc-v.lib(ff.o)
                0x000000000003baec                riscv_f_closedir
 .text.f_readdir
                0x000000000003bb3c       0xfe rtthread.risc-v.lib(ff.o)
                0x000000000003bb3c                riscv_f_readdir
 .text.f_seekdir
                0x000000000003bc3a       0x7c rtthread.risc-v.lib(ff.o)
                0x000000000003bc3a                riscv_f_seekdir
 .text.f_stat   0x000000000003bcb6       0xda rtthread.risc-v.lib(ff.o)
                0x000000000003bcb6                riscv_f_stat
 .text.f_getfree
                0x000000000003bd90      0x212 rtthread.risc-v.lib(ff.o)
                0x000000000003bd90                riscv_f_getfree
 .text.f_truncate
                0x000000000003bfa2      0x1f2 rtthread.risc-v.lib(ff.o)
                0x000000000003bfa2                riscv_f_truncate
 .text.f_unlink
                0x000000000003c194      0x1ac rtthread.risc-v.lib(ff.o)
                0x000000000003c194                riscv_f_unlink
 .text.f_mkdir  0x000000000003c340      0x28a rtthread.risc-v.lib(ff.o)
                0x000000000003c340                riscv_f_mkdir
 .text.f_rename
                0x000000000003c5ca      0x2bc rtthread.risc-v.lib(ff.o)
                0x000000000003c5ca                riscv_f_rename
 .text.create_partition
                0x000000000003c886      0x32c rtthread.risc-v.lib(ff.o)
 .text.f_mkfs   0x000000000003cbb2      0xd0c rtthread.risc-v.lib(ff.o)
                0x000000000003cbb2                riscv_f_mkfs
 .text.elm_get_vol
                0x000000000003d8be       0x4e rtthread.risc-v.lib(ff.o)
                0x000000000003d8be                riscv_elm_get_vol
 .text.ff_uni2oem
                0x000000000003d90c       0xa2 rtthread.risc-v.lib(ffunicode.o)
                0x000000000003d90c                riscv_ff_uni2oem
 .text.ff_oem2uni
                0x000000000003d9ae       0x7c rtthread.risc-v.lib(ffunicode.o)
                0x000000000003d9ae                riscv_ff_oem2uni
 .text.ff_wtoupper
                0x000000000003da2a      0x18e rtthread.risc-v.lib(ffunicode.o)
                0x000000000003da2a                riscv_ff_wtoupper
 .text.rt_list_init
                0x000000000003dbb8       0x28 rtthread.risc-v.lib(completion.o)
 .text.rt_list_insert_before
                0x000000000003dbe0       0x42 rtthread.risc-v.lib(completion.o)
 .text.rt_list_isempty
                0x000000000003dc22       0x28 rtthread.risc-v.lib(completion.o)
 .text.rt_completion_init
                0x000000000003dc4a       0x66 rtthread.risc-v.lib(completion.o)
                0x000000000003dc4a                riscv_rt_completion_init
 .text.rt_completion_wait
                0x000000000003dcb0      0x146 rtthread.risc-v.lib(completion.o)
                0x000000000003dcb0                riscv_rt_completion_wait
 .text.rt_completion_done
                0x000000000003ddf6       0xa8 rtthread.risc-v.lib(completion.o)
                0x000000000003ddf6                riscv_rt_completion_done
 .text.rt_list_init
                0x000000000003de9e       0x28 rtthread.risc-v.lib(waitqueue.o)
 .text.rt_list_insert_before
                0x000000000003dec6       0x42 rtthread.risc-v.lib(waitqueue.o)
 .text.rt_list_remove
                0x000000000003df08       0x44 rtthread.risc-v.lib(waitqueue.o)
 .text.rt_list_isempty
                0x000000000003df4c       0x28 rtthread.risc-v.lib(waitqueue.o)
 .text.rt_wqueue_add
                0x000000000003df74       0x4c rtthread.risc-v.lib(waitqueue.o)
                0x000000000003df74                riscv_rt_wqueue_add
 .text.rt_wqueue_remove
                0x000000000003dfc0       0x3e rtthread.risc-v.lib(waitqueue.o)
                0x000000000003dfc0                riscv_rt_wqueue_remove
 .text.__wqueue_default_wake
                0x000000000003dffe       0x18 rtthread.risc-v.lib(waitqueue.o)
                0x000000000003dffe                riscv___wqueue_default_wake
 .text.rt_wqueue_wakeup
                0x000000000003e016       0xca rtthread.risc-v.lib(waitqueue.o)
                0x000000000003e016                riscv_rt_wqueue_wakeup
 .text.rt_wqueue_wait
                0x000000000003e0e0      0x13a rtthread.risc-v.lib(waitqueue.o)
                0x000000000003e0e0                riscv_rt_wqueue_wait
 .text.msh_readline
                0x000000000003e21a       0xf2 rtthread.risc-v.lib(msh_file.o)
 .text.msh_exec_script
                0x000000000003e30c      0x22e rtthread.risc-v.lib(msh_file.o)
                0x000000000003e30c                riscv_msh_exec_script
 .text.cmd_ls   0x000000000003e53a       0x4a rtthread.risc-v.lib(msh_file.o)
 .text.cmd_cp   0x000000000003e584       0x64 rtthread.risc-v.lib(msh_file.o)
 .text.cmd_mv   0x000000000003e5e8      0x1ca rtthread.risc-v.lib(msh_file.o)
 .text.cmd_cat  0x000000000003e7b2       0x80 rtthread.risc-v.lib(msh_file.o)
 .text.directory_delete_for_msh
                0x000000000003e832      0x1dc rtthread.risc-v.lib(msh_file.o)
 .text.cmd_rm   0x000000000003ea0e      0x256 rtthread.risc-v.lib(msh_file.o)
 .text.cmd_cd   0x000000000003ec64       0x7a rtthread.risc-v.lib(msh_file.o)
 .text.cmd_pwd  0x000000000003ecde       0x34 rtthread.risc-v.lib(msh_file.o)
 .text.cmd_mkdir
                0x000000000003ed12       0x5c rtthread.risc-v.lib(msh_file.o)
 .text.cmd_mkfs
                0x000000000003ed6e       0xce rtthread.risc-v.lib(msh_file.o)
 .text.cmd_mount
                0x000000000003ee3c      0x142 rtthread.risc-v.lib(msh_file.o)
 .text.cmd_umount
                0x000000000003ef7e       0x8e rtthread.risc-v.lib(msh_file.o)
 .text.cmd_df   0x000000000003f00c       0x98 rtthread.risc-v.lib(msh_file.o)
 .text.cmd_echo
                0x000000000003f0a4       0xda rtthread.risc-v.lib(msh_file.o)
 .text.cmd_tail
                0x000000000003f17e      0x28c rtthread.risc-v.lib(msh_file.o)
 .text.pthread_key_system_init
                0x000000000003f40a       0x2a rtthread.risc-v.lib(pthread_tls.o)
 .text.pthread_getspecific
                0x000000000003f434       0x96 rtthread.risc-v.lib(pthread_tls.o)
                0x000000000003f434                riscv_pthread_getspecific
 .text.pthread_setspecific
                0x000000000003f4ca       0xb0 rtthread.risc-v.lib(pthread_tls.o)
                0x000000000003f4ca                riscv_pthread_setspecific
 .text.pthread_key_create
                0x000000000003f57a       0x9a rtthread.risc-v.lib(pthread_tls.o)
                0x000000000003f57a                riscv_pthread_key_create
 .text.pthread_key_delete
                0x000000000003f614       0x5e rtthread.risc-v.lib(pthread_tls.o)
                0x000000000003f614                riscv_pthread_key_delete
 .text.ulog_console_backend_output
                0x000000000003f672       0x92 rtthread.risc-v.lib(console_be.o)
                0x000000000003f672                riscv_ulog_console_backend_output
 .text.ulog_console_backend_init
                0x000000000003f704       0x48 rtthread.risc-v.lib(console_be.o)
                0x000000000003f704                riscv_ulog_console_backend_init
 .text.atoi     0x000000000003f74c        0xc build/arm/libc.a(lib_a-atoi.o)
                0x000000000003f74c                arm_atoi
 .text._fclose_r
                0x000000000003f758       0xdc build/arm/libc.a(lib_a-fclose.o)
                0x000000000003f758                arm__fclose_r
 .text.__sflush_r
                0x000000000003f834      0x140 build/arm/libc.a(lib_a-fflush.o)
                0x000000000003f834                arm___sflush_r
 .text.fileno   0x000000000003f974       0x78 build/arm/libc.a(lib_a-fileno.o)
                0x000000000003f974                arm_fileno
 .text.std      0x000000000003f9ec       0x50 build/arm/libc.a(lib_a-findfp.o)
 .text._cleanup_r
                0x000000000003fa3c       0x10 build/arm/libc.a(lib_a-findfp.o)
                0x000000000003fa3c                arm__cleanup_r
 .text.__sinit  0x000000000003fa4c       0x60 build/arm/libc.a(lib_a-findfp.o)
                0x000000000003fa4c                arm___sinit
 .text.__sfp_lock_acquire
                0x000000000003faac       0x10 build/arm/libc.a(lib_a-findfp.o)
                0x000000000003faac                arm___sfp_lock_acquire
 .text.__sfp_lock_release
                0x000000000003fabc       0x10 build/arm/libc.a(lib_a-findfp.o)
                0x000000000003fabc                arm___sfp_lock_release
 .text._fwalk_reent
                0x000000000003facc       0x48 build/arm/libc.a(lib_a-fwalk.o)
                0x000000000003facc                arm__fwalk_reent
 .text.__retarget_lock_init_recursive
                0x000000000003fb14        0x4 build/arm/libc.a(lib_a-lock.o)
                0x000000000003fb14                arm___retarget_lock_init_recursive
 .text.__retarget_lock_close_recursive
                0x000000000003fb18        0x4 build/arm/libc.a(lib_a-lock.o)
                0x000000000003fb18                arm___retarget_lock_close_recursive
 .text.__retarget_lock_acquire_recursive
                0x000000000003fb1c        0x4 build/arm/libc.a(lib_a-lock.o)
                0x000000000003fb1c                arm___retarget_lock_acquire_recursive
 .text.__retarget_lock_release_recursive
                0x000000000003fb20        0x4 build/arm/libc.a(lib_a-lock.o)
                0x000000000003fb20                arm___retarget_lock_release_recursive
 .text.memset   0x000000000003fb24       0xa8 build/arm/libc.a(lib_a-memset.o)
                0x000000000003fb24                arm_memset
 .text.__sread  0x000000000003fbcc       0x28 build/arm/libc.a(lib_a-stdio.o)
                0x000000000003fbcc                arm___sread
 .text.__swrite
                0x000000000003fbf4       0x40 build/arm/libc.a(lib_a-stdio.o)
                0x000000000003fbf4                arm___swrite
 .text.__sseek  0x000000000003fc34       0x2c build/arm/libc.a(lib_a-stdio.o)
                0x000000000003fc34                arm___sseek
 .text.__sclose
                0x000000000003fc60        0xc build/arm/libc.a(lib_a-stdio.o)
                0x000000000003fc60                arm___sclose
 .text.strlen   0x000000000003fc6c       0x5c build/arm/libc.a(lib_a-strlen-stub.o)
                0x000000000003fc6c                arm_strlen
 .text.strncmp  0x000000000003fcc8       0x68 build/arm/libc.a(lib_a-strncmp.o)
                0x000000000003fcc8                arm_strncmp
 .text.strncpy  0x000000000003fd30       0x6c build/arm/libc.a(lib_a-strncpy.o)
                0x000000000003fd30                arm_strncpy
 .text.strrchr  0x000000000003fd9c       0x28 build/arm/libc.a(lib_a-strrchr.o)
                0x000000000003fd9c                arm_strrchr
 .text._strtol_l.isra.0
                0x000000000003fdc4      0x160 build/arm/libc.a(lib_a-strtol.o)
 .text.strtol   0x000000000003ff24       0x18 build/arm/libc.a(lib_a-strtol.o)
                0x000000000003ff24                arm_strtol
 .text._close_r
                0x000000000003ff3c       0x24 build/arm/libc.a(lib_a-closer.o)
                0x000000000003ff3c                arm__close_r
 .text.__errno  0x000000000003ff60        0xc build/arm/libc.a(lib_a-errno.o)
                0x000000000003ff60                arm___errno
 .text.strchr   0x000000000003ff6c       0xc0 build/arm/libc.a(lib_a-strchr.o)
                0x000000000003ff6c                arm_strchr
 .text._close   0x000000000004002c       0x10 build/arm/libnosys.a(close.o)
                0x000000000004002c                arm__close
 .text._free_r  0x000000000004003c       0x1a rtthread.arm.lib(syscalls.o)
                0x000000000004003c                arm__free_r
 .text._lseek_r
                0x0000000000040056       0x28 rtthread.arm.lib(syscalls.o)
                0x0000000000040056                arm__lseek_r
 *fill*         0x000000000004007e        0x2 
 .text._read_r  0x0000000000040080       0x68 rtthread.arm.lib(syscalls.o)
                0x0000000000040080                arm__read_r
 .text._write_r
                0x00000000000400e8       0x68 rtthread.arm.lib(syscalls.o)
                0x00000000000400e8                arm__write_r
 .text._malloc_r
                0x0000000000040150       0x3c rtthread.risc-v.lib(syscalls.o)
                0x0000000000040150                riscv__malloc_r
 .text._realloc_r
                0x000000000004018c       0x44 rtthread.risc-v.lib(syscalls.o)
                0x000000000004018c                riscv__realloc_r
 .text._calloc_r
                0x00000000000401d0       0x44 rtthread.risc-v.lib(syscalls.o)
                0x00000000000401d0                riscv__calloc_r
 .text._free_r  0x0000000000040214       0x26 rtthread.risc-v.lib(syscalls.o)
                0x0000000000040214                riscv__free_r
 .text.__libc_init_array
                0x000000000004023a        0xe rtthread.risc-v.lib(syscalls.o)
                0x000000000004023a                riscv___libc_init_array
 .text.__errno  0x0000000000040248       0x1c rtthread.risc-v.lib(syscalls.o)
                0x0000000000040248                riscv___errno
 .text._getpid_r
                0x0000000000040264       0x14 rtthread.risc-v.lib(syscalls.o)
                0x0000000000040264                riscv__getpid_r
 .text._close_r
                0x0000000000040278       0x28 rtthread.risc-v.lib(syscalls.o)
 .text._execve_r
                0x00000000000402a0       0x2a rtthread.risc-v.lib(syscalls.o)
                0x00000000000402a0                riscv__execve_r
 .text._fcntl_r
                0x00000000000402ca       0x2a rtthread.risc-v.lib(syscalls.o)
                0x00000000000402ca                riscv__fcntl_r
 .text._fork_r  0x00000000000402f4       0x1e rtthread.risc-v.lib(syscalls.o)
                0x00000000000402f4                riscv__fork_r
 .text._fstat_r
                0x0000000000040312       0x26 rtthread.risc-v.lib(syscalls.o)
 .text._isatty_r
                0x0000000000040338       0x2e rtthread.risc-v.lib(syscalls.o)
 .text._kill_r  0x0000000000040366       0x26 rtthread.risc-v.lib(syscalls.o)
                0x0000000000040366                riscv__kill_r
 .text._link_r  0x000000000004038c       0x26 rtthread.risc-v.lib(syscalls.o)
                0x000000000004038c                riscv__link_r
 .text._wait_r  0x00000000000403b2       0x22 rtthread.risc-v.lib(syscalls.o)
                0x00000000000403b2                riscv__wait_r
 .text.umask    0x00000000000403d4       0x14 rtthread.risc-v.lib(syscalls.o)
                0x00000000000403d4                riscv_umask
 .text.flock    0x00000000000403e8       0x18 rtthread.risc-v.lib(syscalls.o)
                0x00000000000403e8                riscv_flock
 .text._lseek_r
                0x0000000000040400       0x3e rtthread.risc-v.lib(syscalls.o)
                0x0000000000040400                riscv__lseek_r
 .text._mkdir_r
                0x000000000004043e       0x38 rtthread.risc-v.lib(syscalls.o)
                0x000000000004043e                riscv__mkdir_r
 .text._open_r  0x0000000000040476       0x3e rtthread.risc-v.lib(syscalls.o)
                0x0000000000040476                riscv__open_r
 .text._read_r  0x00000000000404b4       0x94 rtthread.risc-v.lib(syscalls.o)
                0x00000000000404b4                riscv__read_r
 .text._rename_r
                0x0000000000040548       0x36 rtthread.risc-v.lib(syscalls.o)
                0x0000000000040548                riscv__rename_r
 .text._stat_r  0x000000000004057e       0x36 rtthread.risc-v.lib(syscalls.o)
                0x000000000004057e                riscv__stat_r
 .text._unlink_r
                0x00000000000405b4       0x28 rtthread.risc-v.lib(syscalls.o)
                0x00000000000405b4                riscv__unlink_r
 .text._write_r
                0x00000000000405dc       0x94 rtthread.risc-v.lib(syscalls.o)
                0x00000000000405dc                riscv__write_r
 .text._exit    0x0000000000040670       0x1a rtthread.risc-v.lib(syscalls.o)
                0x0000000000040670                riscv__exit
 .text.__rt_libc_exit
                0x000000000004068a       0x36 rtthread.risc-v.lib(stdlib.o)
                0x000000000004068a                riscv___rt_libc_exit
 *(.rodata)
 .rodata        0x00000000000406c0       0x2c rtthread.arm.lib(startup.o)
 .rodata        0x00000000000406ec       0xa3 rtthread.arm.lib(board.o)
 *fill*         0x000000000004078f        0x1 
 .rodata        0x0000000000040790       0xa9 rtthread.arm.lib(drv_uart.o)
                0x0000000000040790                arm__uart_ops
 *fill*         0x0000000000040839        0x3 
 .rodata        0x000000000004083c       0x24 rtthread.arm.lib(fsl_lpuart.o)
 .rodata        0x0000000000040860       0xa4 rtthread.arm.lib(fsl_clock.o)
 .rodata        0x0000000000040904       0x18 rtthread.arm.lib(idle.o)
 .rodata        0x000000000004091c      0x191 rtthread.arm.lib(timer.o)
 *fill*         0x0000000000040aad        0x3 
 .rodata        0x0000000000040ab0       0xe3 rtthread.arm.lib(object.o)
 *fill*         0x0000000000040b93        0x1 
 .rodata        0x0000000000040b94      0x341 rtthread.arm.lib(kservice.o)
                0x0000000000040d54                arm___lowest_bit_bitmap
 *fill*         0x0000000000040ed5        0x3 
 .rodata        0x0000000000040ed8      0x69a rtthread.arm.lib(ipc.o)
 *fill*         0x0000000000041572        0x2 
 .rodata        0x0000000000041574      0x1ea rtthread.arm.lib(device.o)
 *fill*         0x000000000004175e        0x2 
 .rodata        0x0000000000041760       0xb6 rtthread.arm.lib(scheduler.o)
 *fill*         0x0000000000041816        0x2 
 .rodata        0x0000000000041818      0x26d rtthread.arm.lib(thread.o)
 *fill*         0x0000000000041a85        0x3 
 .rodata        0x0000000000041a88       0x9a rtthread.arm.lib(cpuport.o)
 *fill*         0x0000000000041b22        0x2 
 .rodata        0x0000000000041b24      0x251 rtthread.arm.lib(serial.o)
 *fill*         0x0000000000041d75        0x3 
 .rodata        0x0000000000041d78       0xba rtthread.arm.lib(msh.o)
 *fill*         0x0000000000041e32        0x2 
 .rodata        0x0000000000041e34      0x74f rtthread.arm.lib(cmd.o)
 *fill*         0x0000000000042583        0x1 
 .rodata        0x0000000000042584      0x1b6 rtthread.arm.lib(ulog.o)
 *fill*         0x000000000004273a        0x2 
 .rodata        0x000000000004273c      0x17b rtthread.arm.lib(main.o)
 *fill*         0x00000000000428b7        0x1 
 .rodata        0x00000000000428b8      0x465 rtthread.arm.lib(mem.o)
 *fill*         0x0000000000042d1d        0x3 
 .rodata        0x0000000000042d20        0x4 rtthread.arm.lib(dfs_posix.o)
 .rodata        0x0000000000042d24      0x1ed rtthread.arm.lib(dfs_fs.o)
 *fill*         0x0000000000042f11        0x3 
 .rodata        0x0000000000042f14      0x15b rtthread.arm.lib(dfs.o)
 *fill*         0x000000000004306f        0x1 
 .rodata        0x0000000000043070      0x1c4 rtthread.arm.lib(dfs_file.o)
 .rodata        0x0000000000043234       0x83 rtthread.arm.lib(completion.o)
 *fill*         0x00000000000432b7        0x1 
 .rodata        0x00000000000432b8      0x496 rtthread.arm.lib(msh_file.o)
 *fill*         0x000000000004374e        0x2 
 .rodata        0x0000000000043750       0x11 rtthread.arm.lib(semaphore.o)
 *fill*         0x0000000000043761        0x3 
 .rodata        0x0000000000043764       0xf7 rtthread.arm.lib(pthread.o)
 *fill*         0x000000000004385b        0x1 
 .rodata        0x000000000004385c      0x1ed rtthread.arm.lib(pthread_attr.o)
                0x000000000004385c                arm_pthread_default_attr
 *fill*         0x0000000000043a49        0x3 
 .rodata        0x0000000000043a4c      0x46f rtthread.risc-v.lib(main.o)
 *fill*         0x0000000000043ebb        0x1 
 .rodata        0x0000000000043ebc      0x2ea rtthread.risc-v.lib(board.o)
                0x000000000004407c                riscv_g_appScgLpFllConfig_BOARD_BootClockRUN
 *fill*         0x00000000000441a6        0x2 
 .rodata        0x00000000000441a8        0xc rtthread.risc-v.lib(mnt.o)
 .rodata        0x00000000000441b4      0x1c6 rtthread.risc-v.lib(clock_config.o)
                0x00000000000441ec                riscv_g_scgSysOscConfig_BOARD_BootClockRUN
                0x0000000000044204                riscv_g_scgSircConfig_BOARD_BootClockRUN
                0x0000000000044218                riscv_g_scgFircConfig_BOARD_BootClockRUN
                0x0000000000044230                riscv_g_scgLpFllConfig_BOARD_BootClockRUN
                0x0000000000044248                riscv_g_scgSysOscConfig_BOARD_BootClockHSRUN
                0x0000000000044260                riscv_g_scgSircConfig_BOARD_BootClockHSRUN
                0x0000000000044274                riscv_g_scgFircConfig_BOARD_BootClockHSRUN
                0x000000000004428c                riscv_g_scgLpFllConfig_BOARD_BootClockHSRUN
                0x00000000000442a4                riscv_g_scgSysOscConfig_BOARD_BootClockVLPR
                0x00000000000442bc                riscv_g_scgSircConfig_BOARD_BootClockVLPR
                0x00000000000442d0                riscv_g_scgFircConfig_BOARD_BootClockVLPR
                0x00000000000442e8                riscv_g_scgLpFllConfig_BOARD_BootClockVLPR
 *fill*         0x000000000004437a        0x2 
 .rodata        0x000000000004437c       0xc2 rtthread.risc-v.lib(pin_mux.o)
 *fill*         0x000000000004443e        0x2 
 .rodata        0x0000000000044440       0x2c rtthread.risc-v.lib(startup.o)
 .rodata        0x000000000004446c       0xfd rtthread.risc-v.lib(drv_uart.o)
                0x00000000000444b8                riscv__uart_ops
 *fill*         0x0000000000044569        0x3 
 .rodata        0x000000000004456c       0xf3 rtthread.risc-v.lib(drv_sdcard.o)
 *fill*         0x000000000004465f        0x1 
 .rodata        0x0000000000044660       0x76 rtthread.risc-v.lib(system_RV32M1_ri5cy.o)
 *fill*         0x00000000000446d6        0x2 
 .rodata        0x00000000000446d8      0x42d rtthread.risc-v.lib(fsl_lpuart.o)
 *fill*         0x0000000000044b05        0x3 
 .rodata        0x0000000000044b08       0x54 rtthread.risc-v.lib(fsl_msmc.o)
 .rodata        0x0000000000044b5c      0x1e7 rtthread.risc-v.lib(fsl_xrdc.o)
 *fill*         0x0000000000044d43        0x1 
 .rodata        0x0000000000044d44      0x244 rtthread.risc-v.lib(fsl_clock.o)
 .rodata        0x0000000000044f88       0xa5 rtthread.risc-v.lib(fsl_gpio.o)
 *fill*         0x000000000004502d        0x3 
 .rodata        0x0000000000045030      0x1a5 rtthread.risc-v.lib(fsl_sema42.o)
 *fill*         0x00000000000451d5        0x3 
 .rodata        0x00000000000451d8      0x12e rtthread.risc-v.lib(fsl_mu.o)
 *fill*         0x0000000000045306        0x2 
 .rodata        0x0000000000045308      0x2f7 rtthread.risc-v.lib(fsl_sd.o)
 *fill*         0x00000000000455ff        0x1 
 .rodata        0x0000000000045600       0xcc rtthread.risc-v.lib(fsl_sdmmc.o)
 .rodata        0x00000000000456cc       0x18 rtthread.risc-v.lib(idle.o)
 .rodata        0x00000000000456e4       0xb6 rtthread.risc-v.lib(scheduler.o)
 *fill*         0x000000000004579a        0x2 
 .rodata        0x000000000004579c      0x69a rtthread.risc-v.lib(ipc.o)
 *fill*         0x0000000000045e36        0x2 
 .rodata        0x0000000000045e38      0x40d rtthread.risc-v.lib(kservice.o)
                0x00000000000460c4                riscv___lowest_bit_bitmap
 *fill*         0x0000000000046245        0x3 
 .rodata        0x0000000000046248      0x26d rtthread.risc-v.lib(thread.o)
 *fill*         0x00000000000464b5        0x3 
 .rodata        0x00000000000464b8      0x465 rtthread.risc-v.lib(mem.o)
 *fill*         0x000000000004691d        0x3 
 .rodata        0x0000000000046920      0x1ea rtthread.risc-v.lib(device.o)
 *fill*         0x0000000000046b0a        0x2 
 .rodata        0x0000000000046b0c      0x191 rtthread.risc-v.lib(timer.o)
 *fill*         0x0000000000046c9d        0x3 
 .rodata        0x0000000000046ca0       0xe3 rtthread.risc-v.lib(object.o)
 *fill*         0x0000000000046d83        0x1 
 .rodata        0x0000000000046d84       0x27 rtthread.risc-v.lib(cpuport.o)
 *fill*         0x0000000000046dab        0x1 
 .rodata        0x0000000000046dac      0x1e1 rtthread.risc-v.lib(dfs_fs.o)
 *fill*         0x0000000000046f8d        0x3 
 .rodata        0x0000000000046f90      0x153 rtthread.risc-v.lib(dfs.o)
 *fill*         0x00000000000470e3        0x1 
 .rodata        0x00000000000470e4      0x1c4 rtthread.risc-v.lib(dfs_file.o)
 .rodata        0x00000000000472a8      0x163 rtthread.risc-v.lib(devfs.o)
 *fill*         0x000000000004740b        0x1 
 .rodata        0x000000000004740c      0x211 rtthread.risc-v.lib(dfs_elm.o)
 *fill*         0x000000000004761d        0x3 
 .rodata        0x0000000000047620      0x251 rtthread.risc-v.lib(serial.o)
 *fill*         0x0000000000047871        0x3 
 .rodata        0x0000000000047874       0xc3 rtthread.risc-v.lib(shell.o)
 *fill*         0x0000000000047937        0x1 
 .rodata        0x0000000000047938       0xba rtthread.risc-v.lib(msh.o)
 *fill*         0x00000000000479f2        0x2 
 .rodata        0x00000000000479f4      0x74f rtthread.risc-v.lib(cmd.o)
 *fill*         0x0000000000048143        0x1 
 .rodata        0x0000000000048144      0x100 rtthread.risc-v.lib(time.o)
 .rodata        0x0000000000048244       0x13 rtthread.risc-v.lib(libc.o)
 *fill*         0x0000000000048257        0x1 
 .rodata        0x0000000000048258       0x11 rtthread.risc-v.lib(semaphore.o)
 *fill*         0x0000000000048269        0x3 
 .rodata        0x000000000004826c       0xf7 rtthread.risc-v.lib(pthread.o)
 *fill*         0x0000000000048363        0x1 
 .rodata        0x0000000000048364      0x1ed rtthread.risc-v.lib(pthread_attr.o)
                0x0000000000048364                riscv_pthread_default_attr
 *fill*         0x0000000000048551        0x3 
 .rodata        0x0000000000048554      0x1b6 rtthread.risc-v.lib(ulog.o)
 *fill*         0x000000000004870a        0x2 
 .rodata        0x000000000004870c      0x514 rtthread.risc-v.lib(fsl_usdhc.o)
 .rodata        0x0000000000048c20        0x4 rtthread.risc-v.lib(dfs_posix.o)
 .rodata        0x0000000000048c24      0x112 rtthread.risc-v.lib(ff.o)
 *fill*         0x0000000000048d36        0x2 
 .rodata        0x0000000000048d38      0x3d4 rtthread.risc-v.lib(ffunicode.o)
 .rodata        0x000000000004910c       0x83 rtthread.risc-v.lib(completion.o)
 *fill*         0x000000000004918f        0x1 
 .rodata        0x0000000000049190      0x496 rtthread.risc-v.lib(msh_file.o)
 *fill*         0x0000000000049626        0x2 
 .rodata        0x0000000000049628       0x34 rtthread.risc-v.lib(pthread_tls.o)
 .rodata        0x000000000004965c        0x8 rtthread.risc-v.lib(console_be.o)
 .rodata        0x0000000000049664      0x101 build/risc-v/libc.a(lib_a-ctype_.o)
                0x0000000000049664                riscv__ctype_
 *fill*         0x0000000000049765        0x3 
 .rodata        0x0000000000049768      0x100 build/risc-v/libgcc.a(_clz.o)
                0x0000000000049768                riscv___clz_tab
 .rodata        0x0000000000049868       0x4c rtthread.arm.lib(syscalls.o)
 .rodata        0x00000000000498b4       0x4c rtthread.risc-v.lib(syscalls.o)
 *(.rodata*)
 .rodata.name   0x0000000000049900       0x6d rtthread.arm.lib(msh.o)
                0x0000000000049900                arm___fsym_help_name
                0x0000000000049908                arm___fsym_help_desc
                0x0000000000049920                arm___fsym_ps_name
                0x0000000000049924                arm___fsym_ps_desc
                0x0000000000049940                arm___fsym_free_name
                0x0000000000049948                arm___fsym_free_desc
 *fill*         0x000000000004996d        0x3 
 .rodata.name   0x0000000000049970      0x1a2 rtthread.arm.lib(cmd.o)
                0x0000000000049970                arm___fsym_clear_name
                0x0000000000049978                arm___fsym_clear_desc
                0x0000000000049994                arm___fsym_version_name
                0x000000000004999c                arm___fsym_version_desc
                0x00000000000499c0                arm___fsym_list_thread_name
                0x00000000000499cc                arm___fsym_list_thread_desc
                0x00000000000499d8                arm___fsym_list_sem_name
                0x00000000000499e4                arm___fsym_list_sem_desc
                0x0000000000049a00                arm___fsym_list_event_name
                0x0000000000049a0c                arm___fsym_list_event_desc
                0x0000000000049a24                arm___fsym_list_mutex_name
                0x0000000000049a30                arm___fsym_list_mutex_desc
                0x0000000000049a48                arm___fsym_list_mailbox_name
                0x0000000000049a58                arm___fsym_list_mailbox_desc
                0x0000000000049a70                arm___fsym_list_msgqueue_name
                0x0000000000049a80                arm___fsym_list_msgqueue_desc
                0x0000000000049aa0                arm___fsym_list_mempool_name
                0x0000000000049ab0                arm___fsym_list_mempool_desc
                0x0000000000049acc                arm___fsym_list_timer_name
                0x0000000000049ad8                arm___fsym_list_timer_desc
                0x0000000000049af0                arm___fsym_list_device_name
                0x0000000000049afc                arm___fsym_list_device_desc
 *fill*         0x0000000000049b12        0x2 
 .rodata.name   0x0000000000049b14       0x1d rtthread.arm.lib(dfs.o)
                0x0000000000049b14                arm___fsym_list_fd_name
                0x0000000000049b1c                arm___fsym_list_fd_desc
 *fill*         0x0000000000049b31        0x3 
 .rodata.name   0x0000000000049b34      0x1fc rtthread.arm.lib(msh_file.o)
                0x0000000000049b34                arm___fsym_ls_name
                0x0000000000049b38                arm___fsym_ls_desc
                0x0000000000049b5c                arm___fsym_cp_name
                0x0000000000049b60                arm___fsym_cp_desc
                0x0000000000049b78                arm___fsym_mv_name
                0x0000000000049b7c                arm___fsym_mv_desc
                0x0000000000049b94                arm___fsym_cat_name
                0x0000000000049b98                arm___fsym_cat_desc
                0x0000000000049bac                arm___fsym_rm_name
                0x0000000000049bb0                arm___fsym_rm_desc
                0x0000000000049bcc                arm___fsym_cd_name
                0x0000000000049bd0                arm___fsym_cd_desc
                0x0000000000049bf4                arm___fsym_pwd_name
                0x0000000000049bf8                arm___fsym_pwd_desc
                0x0000000000049c2c                arm___fsym_mkdir_name
                0x0000000000049c34                arm___fsym_mkdir_desc
                0x0000000000049c4c                arm___fsym_mkfs_name
                0x0000000000049c54                arm___fsym_mkfs_desc
                0x0000000000049c74                arm___fsym_mount_name
                0x0000000000049c7c                arm___fsym_mount_desc
                0x0000000000049ca4                arm___fsym_umount_name
                0x0000000000049cac                arm___fsym_umount_desc
                0x0000000000049ccc                arm___fsym_df_name
                0x0000000000049cd0                arm___fsym_df_desc
                0x0000000000049cdc                arm___fsym_echo_name
                0x0000000000049ce4                arm___fsym_echo_desc
                0x0000000000049cf8                arm___fsym_tail_name
                0x0000000000049d00                arm___fsym_tail_desc
 .rodata.name   0x0000000000049d30       0x1d rtthread.risc-v.lib(dfs.o)
                0x0000000000049d30                riscv___fsym_list_fd_name
                0x0000000000049d38                riscv___fsym_list_fd_desc
 *fill*         0x0000000000049d4d        0x3 
 .rodata.name   0x0000000000049d50       0x6d rtthread.risc-v.lib(msh.o)
                0x0000000000049d50                riscv___fsym_help_name
                0x0000000000049d58                riscv___fsym_help_desc
                0x0000000000049d70                riscv___fsym_ps_name
                0x0000000000049d74                riscv___fsym_ps_desc
                0x0000000000049d90                riscv___fsym_free_name
                0x0000000000049d98                riscv___fsym_free_desc
 *fill*         0x0000000000049dbd        0x3 
 .rodata.name   0x0000000000049dc0      0x1a2 rtthread.risc-v.lib(cmd.o)
                0x0000000000049dc0                riscv___fsym_clear_name
                0x0000000000049dc8                riscv___fsym_clear_desc
                0x0000000000049de4                riscv___fsym_version_name
                0x0000000000049dec                riscv___fsym_version_desc
                0x0000000000049e10                riscv___fsym_list_thread_name
                0x0000000000049e1c                riscv___fsym_list_thread_desc
                0x0000000000049e28                riscv___fsym_list_sem_name
                0x0000000000049e34                riscv___fsym_list_sem_desc
                0x0000000000049e50                riscv___fsym_list_event_name
                0x0000000000049e5c                riscv___fsym_list_event_desc
                0x0000000000049e74                riscv___fsym_list_mutex_name
                0x0000000000049e80                riscv___fsym_list_mutex_desc
                0x0000000000049e98                riscv___fsym_list_mailbox_name
                0x0000000000049ea8                riscv___fsym_list_mailbox_desc
                0x0000000000049ec0                riscv___fsym_list_msgqueue_name
                0x0000000000049ed0                riscv___fsym_list_msgqueue_desc
                0x0000000000049ef0                riscv___fsym_list_mempool_name
                0x0000000000049f00                riscv___fsym_list_mempool_desc
                0x0000000000049f1c                riscv___fsym_list_timer_name
                0x0000000000049f28                riscv___fsym_list_timer_desc
                0x0000000000049f40                riscv___fsym_list_device_name
                0x0000000000049f4c                riscv___fsym_list_device_desc
 *fill*         0x0000000000049f62        0x2 
 .rodata.name   0x0000000000049f64      0x1fc rtthread.risc-v.lib(msh_file.o)
                0x0000000000049f64                riscv___fsym_ls_name
                0x0000000000049f68                riscv___fsym_ls_desc
                0x0000000000049f8c                riscv___fsym_cp_name
                0x0000000000049f90                riscv___fsym_cp_desc
                0x0000000000049fa8                riscv___fsym_mv_name
                0x0000000000049fac                riscv___fsym_mv_desc
                0x0000000000049fc4                riscv___fsym_cat_name
                0x0000000000049fc8                riscv___fsym_cat_desc
                0x0000000000049fdc                riscv___fsym_rm_name
                0x0000000000049fe0                riscv___fsym_rm_desc
                0x0000000000049ffc                riscv___fsym_cd_name
                0x000000000004a000                riscv___fsym_cd_desc
                0x000000000004a024                riscv___fsym_pwd_name
                0x000000000004a028                riscv___fsym_pwd_desc
                0x000000000004a05c                riscv___fsym_mkdir_name
                0x000000000004a064                riscv___fsym_mkdir_desc
                0x000000000004a07c                riscv___fsym_mkfs_name
                0x000000000004a084                riscv___fsym_mkfs_desc
                0x000000000004a0a4                riscv___fsym_mount_name
                0x000000000004a0ac                riscv___fsym_mount_desc
                0x000000000004a0d4                riscv___fsym_umount_name
                0x000000000004a0dc                riscv___fsym_umount_desc
                0x000000000004a0fc                riscv___fsym_df_name
                0x000000000004a100                riscv___fsym_df_desc
                0x000000000004a10c                riscv___fsym_echo_name
                0x000000000004a114                riscv___fsym_echo_desc
                0x000000000004a128                riscv___fsym_tail_name
                0x000000000004a130                riscv___fsym_tail_desc
 .rodata._ctype_
                0x000000000004a160      0x101 build/arm/libc.a(lib_a-ctype_.o)
                0x000000000004a160                arm__ctype_
 *fill*         0x000000000004a261        0x3 
 .rodata.str1.4
                0x000000000004a264        0xe build/risc-v/libc.a(lib_a-locale.o)
                                         0x12 (size before relaxing)
 *fill*         0x000000000004a272        0x2 
 .rodata.str1.4
                0x000000000004a274       0x13 build/risc-v/libc.a(lib_a-nano-svfprintf.o)
 *fill*         0x000000000004a287        0x1 
 .rodata.str1.4
                0x000000000004a288       0x28 build/risc-v/libc.a(lib_a-nano-vfprintf_i.o)
                                         0x25 (size before relaxing)
 .rodata.str1.4
                0x000000000004a2b0       0x13 build/risc-v/libc.a(lib_a-nano-vfprintf.o)
 *(.glue_7)
 .glue_7        0x000000000004a2b0        0x0 linker stubs
 *(.glue_7t)
 .glue_7t       0x000000000004a2b0        0x0 linker stubs
 *(.gnu.linkonce.t*)
 *(.eh_frame)
 *(.init)
 *(.fini)
                0x000000000004a2c4                . = ALIGN (0x4)
                0x000000000004a2b0                arm___fsymtab_start = .
 *(FSymTab)
 FSymTab        0x000000000004a2b0       0x24 rtthread.arm.lib(msh.o)
                0x000000000004a2b0                arm___fsym_help
                0x000000000004a2bc                arm___fsym_ps
                0x000000000004a2c8                arm___fsym_free
 FSymTab        0x000000000004a2d4       0x84 rtthread.arm.lib(cmd.o)
                0x000000000004a2d4                arm___fsym_clear
                0x000000000004a2e0                arm___fsym_version
                0x000000000004a2ec                arm___fsym_list_thread
                0x000000000004a2f8                arm___fsym_list_sem
                0x000000000004a304                arm___fsym_list_event
                0x000000000004a310                arm___fsym_list_mutex
                0x000000000004a31c                arm___fsym_list_mailbox
                0x000000000004a328                arm___fsym_list_msgqueue
                0x000000000004a334                arm___fsym_list_mempool
                0x000000000004a340                arm___fsym_list_timer
                0x000000000004a34c                arm___fsym_list_device
 FSymTab        0x000000000004a358        0xc rtthread.arm.lib(dfs.o)
                0x000000000004a358                arm___fsym_list_fd
 FSymTab        0x000000000004a364       0xa8 rtthread.arm.lib(msh_file.o)
                0x000000000004a364                arm___fsym_ls
                0x000000000004a370                arm___fsym_cp
                0x000000000004a37c                arm___fsym_mv
                0x000000000004a388                arm___fsym_cat
                0x000000000004a394                arm___fsym_rm
                0x000000000004a3a0                arm___fsym_cd
                0x000000000004a3ac                arm___fsym_pwd
                0x000000000004a3b8                arm___fsym_mkdir
                0x000000000004a3c4                arm___fsym_mkfs
                0x000000000004a3d0                arm___fsym_mount
                0x000000000004a3dc                arm___fsym_umount
                0x000000000004a3e8                arm___fsym_df
                0x000000000004a3f4                arm___fsym_echo
                0x000000000004a400                arm___fsym_tail
 FSymTab        0x000000000004a40c        0xc rtthread.risc-v.lib(dfs.o)
                0x000000000004a40c                riscv___fsym_list_fd
 FSymTab        0x000000000004a418       0x24 rtthread.risc-v.lib(msh.o)
                0x000000000004a418                riscv___fsym_help
                0x000000000004a424                riscv___fsym_ps
                0x000000000004a430                riscv___fsym_free
 FSymTab        0x000000000004a43c       0x84 rtthread.risc-v.lib(cmd.o)
                0x000000000004a43c                riscv___fsym_clear
                0x000000000004a448                riscv___fsym_version
                0x000000000004a454                riscv___fsym_list_thread
                0x000000000004a460                riscv___fsym_list_sem
                0x000000000004a46c                riscv___fsym_list_event
                0x000000000004a478                riscv___fsym_list_mutex
                0x000000000004a484                riscv___fsym_list_mailbox
                0x000000000004a490                riscv___fsym_list_msgqueue
                0x000000000004a49c                riscv___fsym_list_mempool
                0x000000000004a4a8                riscv___fsym_list_timer
                0x000000000004a4b4                riscv___fsym_list_device
 FSymTab        0x000000000004a4c0       0xa8 rtthread.risc-v.lib(msh_file.o)
                0x000000000004a4c0                riscv___fsym_ls
                0x000000000004a4cc                riscv___fsym_cp
                0x000000000004a4d8                riscv___fsym_mv
                0x000000000004a4e4                riscv___fsym_cat
                0x000000000004a4f0                riscv___fsym_rm
                0x000000000004a4fc                riscv___fsym_cd
                0x000000000004a508                riscv___fsym_pwd
                0x000000000004a514                riscv___fsym_mkdir
                0x000000000004a520                riscv___fsym_mkfs
                0x000000000004a52c                riscv___fsym_mount
                0x000000000004a538                riscv___fsym_umount
                0x000000000004a544                riscv___fsym_df
                0x000000000004a550                riscv___fsym_echo
                0x000000000004a55c                riscv___fsym_tail
                0x000000000004a568                arm___fsymtab_end = .
                0x000000000004a568                . = ALIGN (0x4)
                0x000000000004a568                arm___vsymtab_start = .
 *(VSymTab)
                0x000000000004a568                arm___vsymtab_end = .
                0x000000000004a568                . = ALIGN (0x4)
                0x000000000004a568                riscv___rt_init_start = .
 *(SORT_BY_NAME(.rti_fn*))
 .rti_fn.0      0x000000000004a568        0x4 rtthread.risc-v.lib(components.o)
                0x000000000004a568                riscv___rt_init_rti_start
 .rti_fn.0.end  0x000000000004a56c        0x4 rtthread.risc-v.lib(components.o)
                0x000000000004a56c                riscv___rt_init_rti_board_start
 .rti_fn.1      0x000000000004a570        0x4 rtthread.risc-v.lib(ulog.o)
                0x000000000004a570                riscv___rt_init_ulog_init
 .rti_fn.1.end  0x000000000004a574        0x4 rtthread.risc-v.lib(components.o)
                0x000000000004a574                riscv___rt_init_rti_board_end
 .rti_fn.2      0x000000000004a578        0x4 rtthread.risc-v.lib(dfs.o)
                0x000000000004a578                riscv___rt_init_dfs_init
 .rti_fn.2      0x000000000004a57c        0x4 rtthread.risc-v.lib(console_be.o)
                0x000000000004a57c                riscv___rt_init_ulog_console_backend_init
 .rti_fn.3      0x000000000004a580        0x4 rtthread.risc-v.lib(drv_sdcard.o)
                0x000000000004a580                riscv___rt_init_rt_hw_sdcard_init
 .rti_fn.4      0x000000000004a584        0x4 rtthread.risc-v.lib(dfs_elm.o)
                0x000000000004a584                riscv___rt_init_elm_init
 .rti_fn.4      0x000000000004a588        0x4 rtthread.risc-v.lib(libc.o)
                0x000000000004a588                riscv___rt_init_libc_system_init
 .rti_fn.4      0x000000000004a58c        0x4 rtthread.risc-v.lib(semaphore.o)
                0x000000000004a58c                riscv___rt_init_posix_sem_system_init
 .rti_fn.4      0x000000000004a590        0x4 rtthread.risc-v.lib(pthread_tls.o)
                0x000000000004a590                riscv___rt_init_pthread_key_system_init
 .rti_fn.6      0x000000000004a594        0x4 rtthread.risc-v.lib(shell.o)
                0x000000000004a594                riscv___rt_init_finsh_system_init
 .rti_fn.6.end  0x000000000004a598        0x4 rtthread.risc-v.lib(components.o)
                0x000000000004a598                riscv___rt_init_rti_end
                0x000000000004a59c                riscv___rt_init_end = .
                0x000000000004a59c                . = ALIGN (0x4)
                [!provide]                        PROVIDE (arm___ctors_start__ = .)
 *(SORT_BY_NAME(.ctors.*))
 *(.ctors)
 *(SORT_BY_NAME(.init_array.*))
 *(.init_array)
                [!provide]                        PROVIDE (arm___ctors_end__ = .)
                0x000000000004a59c                . = ALIGN (0x4)
                0x000000000004a59c                arm__etext = .
                0x000000000004a59c                . = ALIGN (0x4)
                0x000000000004a59c                riscv___fsymtab_start = .
 *(FSymTab)
                0x000000000004a59c                riscv___fsymtab_end = .
                0x000000000004a59c                . = ALIGN (0x4)
                0x000000000004a59c                riscv___vsymtab_start = .
 *(VSymTab)
                0x000000000004a59c                riscv___vsymtab_end = .
                0x000000000004a59c                . = ALIGN (0x4)

.vfp11_veneer   0x000000000004a59c        0x0
 .vfp11_veneer  0x000000000004a59c        0x0 linker stubs

.v4_bx          0x000000000004a59c        0x0
 .v4_bx         0x000000000004a59c        0x0 linker stubs

.iplt           0x000000000004a59c        0x0
 .iplt          0x000000000004a59c        0x0 startup_RV32M1_cm0.o

.rel.dyn        0x000000000004a59c        0x0
 .rel.iplt      0x000000000004a59c        0x0 startup_RV32M1_cm0.o

.riscv_preinit_array
                0x000000000004a59c        0x0
                [!provide]                        PROVIDE (riscv___preinit_array_start = .)
 *(.riscv_preinit_array*)
                [!provide]                        PROVIDE (riscv___preinit_array_end = .)

.riscv_init_array
                0x000000000004a59c        0x0
                [!provide]                        PROVIDE (riscv___init_array_start = .)
 *(SORT_BY_NAME(.riscv_init_array.*))
 *(.riscv_init_array*)
                [!provide]                        PROVIDE (riscv___init_array_end = .)

.riscv_fini_array
                0x000000000004a59c        0x0
                [!provide]                        PROVIDE (riscv___fini_array_start = .)
 *(SORT_BY_NAME(.riscv_fini_array.*))
 *(.riscv_fini_array*)
                [!provide]                        PROVIDE (riscv___fini_array_end = .)
                0x000000000004a59c                riscv___etext = .
                0x000000000004a59c                riscv___global_pointer = .

.ARM.extab
 *(.ARM.extab*)
                0x000000000004a59c                arm___exidx_start = .

.ARM.exidx      0x000000000004a59c        0x0
 *(.ARM.exidx* .gnu.linkonce.armexidx.*)
                0x000000000004a59c                arm__sidata = .
                0x00000000000fff00                arm_text_end = (ORIGIN (m_text) + LENGTH (m_text))
                0x00000000000fff00                riscv_text_end = (ORIGIN (m_text) + LENGTH (m_text))
                0x000000000004a59c                arm___exidx_end = .
                0x000000000004a59c                __DATA_ROM = .

.data           0x0000000020000000      0xddc load address 0x000000000004a59c
                0x0000000020000000                . = ALIGN (0x4)
                [!provide]                        PROVIDE (__dtors_start__ = .)
 *(SORT_BY_NAME(.dtors.*))
 *(.dtors)
                [!provide]                        PROVIDE (__dtors_end__ = .)
                0x0000000020000000                . = ALIGN (0x4)
                0x0000000020000000                __DATA_RAM = .
                0x0000000020000000                __data_start__ = .
                0x0000000020000000                _sdata = .
 *(.data)
 .data          0x0000000020000000        0x0 startup_RV32M1_ri5cy.o
 .data          0x0000000020000000        0x8 rtthread.arm.lib(idle.o)
 .data          0x0000000020000008       0xa0 rtthread.arm.lib(object.o)
 .data          0x00000000200000a8      0x100 rtthread.arm.lib(dfs.o)
                0x00000000200000a8                arm_working_directory
 .data          0x00000000200001a8       0x60 rtthread.risc-v.lib(main.o)
 .data          0x0000000020000208        0x0 rtthread.risc-v.lib(board.o)
 .data          0x0000000020000208        0x0 rtthread.risc-v.lib(mnt.o)
 .data          0x0000000020000208        0x0 rtthread.risc-v.lib(clock_config.o)
 .data          0x0000000020000208        0x0 rtthread.risc-v.lib(pin_mux.o)
 .data          0x0000000020000208        0x0 rtthread.risc-v.lib(startup.o)
 .data          0x0000000020000208        0x0 rtthread.risc-v.lib(drv_uart.o)
 .data          0x0000000020000208        0x0 rtthread.risc-v.lib(drv_sdcard.o)
 .data          0x0000000020000208        0x0 rtthread.risc-v.lib(system_RV32M1_ri5cy.o)
 .data          0x0000000020000208        0x0 rtthread.risc-v.lib(fsl_lpuart.o)
 .data          0x0000000020000208        0x0 rtthread.risc-v.lib(fsl_msmc.o)
 .data          0x0000000020000208        0x0 rtthread.risc-v.lib(fsl_xrdc.o)
 .data          0x0000000020000208        0x0 rtthread.risc-v.lib(fsl_common.o)
 .data          0x0000000020000208        0x0 rtthread.risc-v.lib(fsl_clock.o)
 .data          0x0000000020000208        0x0 rtthread.risc-v.lib(fsl_gpio.o)
 .data          0x0000000020000208        0x0 rtthread.risc-v.lib(fsl_sema42.o)
 .data          0x0000000020000208        0x0 rtthread.risc-v.lib(fsl_mu.o)
 .data          0x0000000020000208        0x0 rtthread.risc-v.lib(fsl_sd.o)
 .data          0x0000000020000208        0x0 rtthread.risc-v.lib(fsl_sdmmc.o)
 .data          0x0000000020000208        0x0 rtthread.risc-v.lib(idle.o)
 .data          0x0000000020000208        0x0 rtthread.risc-v.lib(scheduler.o)
 .data          0x0000000020000208        0x0 rtthread.risc-v.lib(ipc.o)
 .data          0x0000000020000208        0x0 rtthread.risc-v.lib(components.o)
 .data          0x0000000020000208        0x0 rtthread.risc-v.lib(clock.o)
 .data          0x0000000020000208        0x0 rtthread.risc-v.lib(cpu.o)
 .data          0x0000000020000208        0x0 rtthread.risc-v.lib(kservice.o)
 .data          0x0000000020000208        0x0 rtthread.risc-v.lib(thread.o)
 .data          0x0000000020000208        0x0 rtthread.risc-v.lib(mem.o)
 .data          0x0000000020000208        0x0 rtthread.risc-v.lib(device.o)
 .data          0x0000000020000208        0x0 rtthread.risc-v.lib(timer.o)
 .data          0x0000000020000208       0xa0 rtthread.risc-v.lib(object.o)
 .data          0x00000000200002a8        0x0 rtthread.risc-v.lib(cpuport.o)
 .data          0x00000000200002a8        0x0 rtthread.risc-v.lib(context_gcc.o)
 .data          0x00000000200002a8        0x0 rtthread.risc-v.lib(dfs_fs.o)
 .data          0x00000000200002a8      0x100 rtthread.risc-v.lib(dfs.o)
                0x00000000200002a8                riscv_working_directory
 .data          0x00000000200003a8        0x0 rtthread.risc-v.lib(dfs_file.o)
 .data          0x00000000200003a8        0x0 rtthread.risc-v.lib(devfs.o)
 .data          0x00000000200003a8        0x0 rtthread.risc-v.lib(dfs_elm.o)
 .data          0x00000000200003a8        0x0 rtthread.risc-v.lib(serial.o)
 .data          0x00000000200003a8        0x0 rtthread.risc-v.lib(shell.o)
 .data          0x00000000200003a8        0x0 rtthread.risc-v.lib(msh.o)
 .data          0x00000000200003a8        0x0 rtthread.risc-v.lib(cmd.o)
 .data          0x00000000200003a8        0x0 rtthread.risc-v.lib(time.o)
 .data          0x00000000200003a8        0x0 rtthread.risc-v.lib(delay.o)
 .data          0x00000000200003a8        0x0 rtthread.risc-v.lib(libc.o)
 .data          0x00000000200003a8        0x0 rtthread.risc-v.lib(semaphore.o)
 .data          0x00000000200003a8        0x0 rtthread.risc-v.lib(pthread.o)
 .data          0x00000000200003a8        0x0 rtthread.risc-v.lib(pthread_attr.o)
 .data          0x00000000200003a8        0x0 rtthread.risc-v.lib(ulog.o)
 .data          0x00000000200003a8        0x0 rtthread.risc-v.lib(fsl_host.o)
 .data          0x00000000200003a8        0x0 rtthread.risc-v.lib(fsl_usdhc.o)
 .data          0x00000000200003a8        0x0 rtthread.risc-v.lib(irq.o)
 .data          0x00000000200003a8        0x0 rtthread.risc-v.lib(dfs_posix.o)
 .data          0x00000000200003a8        0x0 rtthread.risc-v.lib(ff.o)
 .data          0x00000000200003a8        0x0 rtthread.risc-v.lib(ffunicode.o)
 .data          0x00000000200003a8        0x0 rtthread.risc-v.lib(completion.o)
 .data          0x00000000200003a8        0x0 rtthread.risc-v.lib(waitqueue.o)
 .data          0x00000000200003a8        0x0 rtthread.risc-v.lib(msh_file.o)
 .data          0x00000000200003a8        0x0 rtthread.risc-v.lib(pthread_tls.o)
 .data          0x00000000200003a8        0x0 rtthread.risc-v.lib(console_be.o)
 .data          0x00000000200003a8        0x0 build/risc-v/libc.a(lib_a-atoi.o)
 .data          0x00000000200003a8        0x0 build/risc-v/libc.a(lib_a-fclose.o)
 .data          0x00000000200003a8        0x0 build/risc-v/libc.a(lib_a-fflush.o)
 .data          0x00000000200003a8        0x0 build/risc-v/libc.a(lib_a-fileno.o)
 .data          0x00000000200003a8        0x0 build/risc-v/libc.a(lib_a-findfp.o)
 .data          0x00000000200003a8        0x0 build/risc-v/libc.a(lib_a-fopen.o)
 .data          0x00000000200003a8        0x0 build/risc-v/libc.a(lib_a-fread.o)
 .data          0x00000000200003a8        0x0 build/risc-v/libc.a(lib_a-fseek.o)
 .data          0x00000000200003a8        0x0 build/risc-v/libc.a(lib_a-fseeko.o)
 .data          0x00000000200003a8        0x0 build/risc-v/libc.a(lib_a-fstatr.o)
 .data          0x00000000200003a8        0x0 build/risc-v/libc.a(lib_a-fwalk.o)
 .data          0x00000000200003a8        0x0 build/risc-v/libc.a(lib_a-fwrite.o)
 .data          0x00000000200003a8      0x428 build/risc-v/libc.a(lib_a-impure.o)
 .data          0x00000000200007d0        0x0 build/risc-v/libc.a(lib_a-makebuf.o)
 .data          0x00000000200007d0        0x0 build/risc-v/libc.a(lib_a-malloc.o)
 .data          0x00000000200007d0        0x0 build/risc-v/libc.a(lib_a-memcmp.o)
 .data          0x00000000200007d0        0x0 build/risc-v/libc.a(lib_a-memcpy.o)
 .data          0x00000000200007d0        0x0 build/risc-v/libc.a(lib_a-memset.o)
 .data          0x00000000200007d0        0x0 build/risc-v/libc.a(lib_a-printf.o)
 .data          0x00000000200007d0        0x0 build/risc-v/libc.a(lib_a-reent.o)
 .data          0x00000000200007d0        0x0 build/risc-v/libc.a(lib_a-refill.o)
 .data          0x00000000200007d0        0x0 build/risc-v/libc.a(lib_a-setvbuf.o)
 .data          0x00000000200007d0        0x0 build/risc-v/libc.a(lib_a-snprintf.o)
 .data          0x00000000200007d0        0x0 build/risc-v/libc.a(lib_a-stdio.o)
 .data          0x00000000200007d0        0x0 build/risc-v/libc.a(lib_a-strcat.o)
 .data          0x00000000200007d0        0x0 build/risc-v/libc.a(lib_a-strchr.o)
 .data          0x00000000200007d0        0x0 build/risc-v/libc.a(lib_a-strcmp.o)
 .data          0x00000000200007d0        0x0 build/risc-v/libc.a(lib_a-strcpy.o)
 .data          0x00000000200007d0        0x0 build/risc-v/libc.a(lib_a-strlen.o)
 .data          0x00000000200007d0        0x0 build/risc-v/libc.a(lib_a-strncmp.o)
 .data          0x00000000200007d0        0x0 build/risc-v/libc.a(lib_a-strncpy.o)
 .data          0x00000000200007d0        0x0 build/risc-v/libc.a(lib_a-strrchr.o)
 .data          0x00000000200007d0        0x0 build/risc-v/libc.a(lib_a-strstr.o)
 .data          0x00000000200007d0        0x0 build/risc-v/libc.a(lib_a-strtol.o)
 .data          0x00000000200007d0        0x0 build/risc-v/libc.a(lib_a-closer.o)
 .data          0x00000000200007d0        0x0 build/risc-v/libc.a(lib_a-flags.o)
 .data          0x00000000200007d0        0x0 build/risc-v/libc.a(lib_a-fvwrite.o)
 .data          0x00000000200007d0        0x0 build/risc-v/libc.a(lib_a-isattyr.o)
 .data          0x00000000200007d0      0x16c build/risc-v/libc.a(lib_a-locale.o)
                0x00000000200007d0                riscv___global_locale
 .data          0x000000002000093c        0x0 build/risc-v/libc.a(lib_a-mbtowc_r.o)
 .data          0x000000002000093c        0x0 build/risc-v/libc.a(lib_a-memchr.o)
 .data          0x000000002000093c        0x0 build/risc-v/libc.a(lib_a-memmove.o)
 .data          0x000000002000093c        0x0 build/risc-v/libc.a(lib_a-nano-svfprintf.o)
 .data          0x000000002000093c        0x0 build/risc-v/libc.a(lib_a-nano-vfprintf_i.o)
 .data          0x000000002000093c        0x0 build/risc-v/libc.a(lib_a-nano-vfprintf.o)
 .data          0x000000002000093c        0x0 build/risc-v/libc.a(lib_a-wbuf.o)
 .data          0x000000002000093c        0x0 build/risc-v/libc.a(lib_a-wctomb_r.o)
 .data          0x000000002000093c        0x0 build/risc-v/libc.a(lib_a-wsetup.o)
 .data          0x000000002000093c        0x0 build/risc-v/libc.a(lib_a-ctype_.o)
 .data          0x000000002000093c        0x0 build/risc-v/libc.a(lib_a-fputwc.o)
 .data          0x000000002000093c        0x0 build/risc-v/libc.a(lib_a-wcrtomb.o)
 .data          0x000000002000093c        0x0 build/risc-v/libgcc.a(_bswapsi2.o)
 .data          0x000000002000093c        0x0 build/risc-v/libgcc.a(floatsidf.o)
 .data          0x000000002000093c        0x0 build/risc-v/libgcc.a(_clzsi2.o)
 .data          0x000000002000093c        0x0 build/risc-v/libgcc.a(_clz.o)
 .data          0x000000002000093c        0x0 rtthread.risc-v.lib(syscalls.o)
 .data          0x000000002000093c        0x0 rtthread.risc-v.lib(stdlib.o)
 *(.data*)
 .data._impure_ptr
                0x000000002000093c        0x4 build/arm/libc.a(lib_a-impure.o)
                0x000000002000093c                arm__impure_ptr
 .data.impure_data
                0x0000000020000940      0x428 build/arm/libc.a(lib_a-impure.o)
 *(.gnu.linkonce.d*)
 *(.gnu.linkonce.d*)
 *(.sdata .sdata.*)
 .sdata         0x0000000020000d68        0xc rtthread.risc-v.lib(clock_config.o)
                0x0000000020000d68                riscv_g_sysClkConfig_BOARD_BootClockRUN
                0x0000000020000d6c                riscv_g_sysClkConfig_BOARD_BootClockHSRUN
                0x0000000020000d70                riscv_g_sysClkConfig_BOARD_BootClockVLPR
 .sdata         0x0000000020000d74        0x4 rtthread.risc-v.lib(drv_sdcard.o)
 .sdata         0x0000000020000d78        0x4 rtthread.risc-v.lib(system_RV32M1_ri5cy.o)
                0x0000000020000d78                riscv_SystemCoreClock
 .sdata         0x0000000020000d7c        0x8 rtthread.risc-v.lib(fsl_clock.o)
 .sdata         0x0000000020000d84       0x10 rtthread.risc-v.lib(fsl_sema42.o)
 .sdata         0x0000000020000d94        0x8 rtthread.risc-v.lib(fsl_mu.o)
 .sdata         0x0000000020000d9c       0x10 rtthread.risc-v.lib(fsl_sd.o)
 .sdata         0x0000000020000dac        0x8 rtthread.risc-v.lib(idle.o)
 .sdata         0x0000000020000db4        0x7 rtthread.risc-v.lib(dfs.o)
 *fill*         0x0000000020000dbb        0x1 
 .sdata         0x0000000020000dbc        0x9 rtthread.risc-v.lib(time.o)
 *fill*         0x0000000020000dc5        0x3 
 .sdata         0x0000000020000dc8        0xc rtthread.risc-v.lib(fsl_usdhc.o)
 .sdata         0x0000000020000dd4        0x8 build/risc-v/libc.a(lib_a-impure.o)
                0x0000000020000dd4                riscv__global_impure_ptr
                0x0000000020000dd8                riscv__impure_ptr
 *(.heapsram*)
                0x0000000020000ddc                __noncachedata_start__ = .
 *(NonCacheable)
                0x0000000020000ddc                __noncachedata_end__ = .
 *(.jcr*)
                0x0000000020000ddc                . = ALIGN (0x4)
                0x0000000020000ddc                __data_end__ = .
                0x0000000020000ddc                _edata = .
                0x000000000004b378                __DATA_END = (__DATA_ROM + (__data_end__ - __data_start__))

.igot.plt       0x0000000020000ddc        0x0 load address 0x000000000004b378
 .igot.plt      0x0000000020000ddc        0x0 startup_RV32M1_cm0.o

.arm_stack      0x0000000020000ddc      0x404 load address 0x000000000004b378
                0x0000000020000de0                . = ALIGN (0x8)
 *fill*         0x0000000020000ddc        0x4 
                0x0000000020000de0                arm___StackLimit = .
                0x00000000200011e0                . = (. + ARM_STACK_SIZE)
 *fill*         0x0000000020000de0      0x400 
                0x00000000200011e0                . = ALIGN (0x4)
                0x00000000200011e0                arm___StackTop = .
                0x00000000200011e0                arm__estack = .

.riscv_stack    0x00000000200011e0     0x1000 load address 0x000000000004b77c
                0x00000000200011e0                . = ALIGN (0x8)
                0x00000000200011e0                riscv___StackLimit = .
                0x00000000200021e0                . = (. + RISCV_STACK_SIZE)
 *fill*         0x00000000200011e0     0x1000 
                0x00000000200021e0                . = ALIGN (0x4)
                0x00000000200021e0                riscv___StackTop = .
                [!provide]                        PROVIDE (riscv___stack = riscv___StackTop)

.bss            0x00000000200021e0     0x37ac load address 0x000000000004c77c
                0x00000000200021e0                . = ALIGN (0x4)
                0x00000000200021e0                __START_BSS = .
                0x00000000200021e0                __bss_start__ = .
 *(.bss)
 .bss           0x00000000200021e0        0x0 startup_RV32M1_ri5cy.o
 .bss           0x00000000200021e0        0xc rtthread.arm.lib(board.o)
 .bss           0x00000000200021ec       0x14 rtthread.arm.lib(fsl_lpuart.o)
 .bss           0x0000000020002200     0x1134 rtthread.arm.lib(idle.o)
 .bss           0x0000000020003334       0x14 rtthread.arm.lib(timer.o)
 .bss           0x0000000020003348        0x8 rtthread.arm.lib(object.o)
 .bss           0x0000000020003350        0x4 rtthread.arm.lib(clock.o)
 .bss           0x0000000020003354       0x94 rtthread.arm.lib(kservice.o)
 .bss           0x00000000200033e8        0x8 rtthread.arm.lib(scheduler.o)
 .bss           0x00000000200033f0       0x8c rtthread.arm.lib(thread.o)
 .bss           0x000000002000347c        0x4 rtthread.arm.lib(serial.o)
 .bss           0x0000000020003480       0x8d rtthread.arm.lib(shell.o)
                0x0000000020003480                arm__syscall_table_begin
                0x0000000020003484                arm__syscall_table_end
 *fill*         0x000000002000350d        0x3 
 .bss           0x0000000020003510      0x154 rtthread.arm.lib(ulog.o)
 .bss           0x0000000020003664       0x64 rtthread.arm.lib(main.o)
 .bss           0x00000000200036c8      0x128 rtthread.arm.lib(dfs_file.o)
 .bss           0x00000000200037f0        0x4 rtthread.arm.lib(libc.o)
 .bss           0x00000000200037f4        0x6 rtthread.arm.lib(semaphore.o)
                0x00000000200037f4                posix_sem_list
 *fill*         0x00000000200037fa        0x2 
 .bss           0x00000000200037fc       0x8a rtthread.arm.lib(pthread.o)
                0x00000000200037fc                pth_lock
                0x0000000020003800                pth_table
                0x0000000020003884                pthread_number
 *fill*         0x0000000020003886        0x2 
 .bss           0x0000000020003888      0x154 rtthread.risc-v.lib(main.o)
 .bss           0x00000000200039dc       0x50 rtthread.risc-v.lib(board.o)
                0x00000000200039dc                rt_hw_gate
 .bss           0x0000000020003a2c        0x0 rtthread.risc-v.lib(mnt.o)
 .bss           0x0000000020003a2c        0x0 rtthread.risc-v.lib(clock_config.o)
 .bss           0x0000000020003a2c        0x0 rtthread.risc-v.lib(pin_mux.o)
 .bss           0x0000000020003a2c        0x0 rtthread.risc-v.lib(startup.o)
 .bss           0x0000000020003a2c        0x0 rtthread.risc-v.lib(drv_uart.o)
 .bss           0x0000000020003a2c      0x124 rtthread.risc-v.lib(drv_sdcard.o)
 .bss           0x0000000020003b50        0x4 rtthread.risc-v.lib(system_RV32M1_ri5cy.o)
 .bss           0x0000000020003b54       0x14 rtthread.risc-v.lib(fsl_lpuart.o)
 .bss           0x0000000020003b68        0x0 rtthread.risc-v.lib(fsl_msmc.o)
 .bss           0x0000000020003b68        0x0 rtthread.risc-v.lib(fsl_xrdc.o)
 .bss           0x0000000020003b68        0x0 rtthread.risc-v.lib(fsl_common.o)
 .bss           0x0000000020003b68        0x0 rtthread.risc-v.lib(fsl_clock.o)
 .bss           0x0000000020003b68        0x0 rtthread.risc-v.lib(fsl_gpio.o)
 .bss           0x0000000020003b68        0x0 rtthread.risc-v.lib(fsl_sema42.o)
 .bss           0x0000000020003b68        0x0 rtthread.risc-v.lib(fsl_mu.o)
 .bss           0x0000000020003b68        0x0 rtthread.risc-v.lib(fsl_sd.o)
 .bss           0x0000000020003b68        0x0 rtthread.risc-v.lib(fsl_sdmmc.o)
 .bss           0x0000000020003b68     0x1134 rtthread.risc-v.lib(idle.o)
 .bss           0x0000000020004c9c        0x8 rtthread.risc-v.lib(scheduler.o)
 .bss           0x0000000020004ca4        0x0 rtthread.risc-v.lib(ipc.o)
 .bss           0x0000000020004ca4        0x0 rtthread.risc-v.lib(components.o)
 .bss           0x0000000020004ca4        0x4 rtthread.risc-v.lib(clock.o)
 .bss           0x0000000020004ca8        0x0 rtthread.risc-v.lib(cpu.o)
 .bss           0x0000000020004ca8       0x94 rtthread.risc-v.lib(kservice.o)
 .bss           0x0000000020004d3c       0x8c rtthread.risc-v.lib(thread.o)
 .bss           0x0000000020004dc8        0x4 rtthread.risc-v.lib(mem.o)
 .bss           0x0000000020004dcc        0x0 rtthread.risc-v.lib(device.o)
 .bss           0x0000000020004dcc       0x14 rtthread.risc-v.lib(timer.o)
 .bss           0x0000000020004de0        0x8 rtthread.risc-v.lib(object.o)
 .bss           0x0000000020004de8        0x0 rtthread.risc-v.lib(cpuport.o)
 .bss           0x0000000020004de8        0x0 rtthread.risc-v.lib(context_gcc.o)
 .bss           0x0000000020004de8        0x0 rtthread.risc-v.lib(dfs_fs.o)
 .bss           0x0000000020004de8        0x4 rtthread.risc-v.lib(dfs.o)
 .bss           0x0000000020004dec      0x128 rtthread.risc-v.lib(dfs_file.o)
 .bss           0x0000000020004f14        0x0 rtthread.risc-v.lib(devfs.o)
 .bss           0x0000000020004f14        0x8 rtthread.risc-v.lib(dfs_elm.o)
 .bss           0x0000000020004f1c        0x4 rtthread.risc-v.lib(serial.o)
 .bss           0x0000000020004f20       0x85 rtthread.risc-v.lib(shell.o)
 .bss           0x0000000020004fa5        0x0 rtthread.risc-v.lib(msh.o)
 .bss           0x0000000020004fa5        0x0 rtthread.risc-v.lib(cmd.o)
 *fill*         0x0000000020004fa5        0x3 
 .bss           0x0000000020004fa8       0x62 rtthread.risc-v.lib(time.o)
 .bss           0x000000002000500a        0x0 rtthread.risc-v.lib(delay.o)
 *fill*         0x000000002000500a        0x2 
 .bss           0x000000002000500c        0x4 rtthread.risc-v.lib(libc.o)
 .bss           0x0000000020005010        0x2 rtthread.risc-v.lib(semaphore.o)
 *fill*         0x0000000020005012        0x2 
 .bss           0x0000000020005014       0x84 rtthread.risc-v.lib(pthread.o)
 .bss           0x0000000020005098        0x0 rtthread.risc-v.lib(pthread_attr.o)
 .bss           0x0000000020005098      0x154 rtthread.risc-v.lib(ulog.o)
 .bss           0x00000000200051ec        0x1 rtthread.risc-v.lib(fsl_host.o)
 *fill*         0x00000000200051ed        0x3 
 .bss           0x00000000200051f0        0x8 rtthread.risc-v.lib(fsl_usdhc.o)
 .bss           0x00000000200051f8        0x8 rtthread.risc-v.lib(irq.o)
 .bss           0x0000000020005200        0x0 rtthread.risc-v.lib(dfs_posix.o)
 .bss           0x0000000020005200        0xa rtthread.risc-v.lib(ff.o)
 .bss           0x000000002000520a        0x0 rtthread.risc-v.lib(ffunicode.o)
 .bss           0x000000002000520a        0x0 rtthread.risc-v.lib(completion.o)
 .bss           0x000000002000520a        0x0 rtthread.risc-v.lib(waitqueue.o)
 .bss           0x000000002000520a        0x0 rtthread.risc-v.lib(msh_file.o)
 .bss           0x000000002000520a        0x0 rtthread.risc-v.lib(pthread_tls.o)
 *fill*         0x000000002000520a        0x2 
 .bss           0x000000002000520c       0x28 rtthread.risc-v.lib(console_be.o)
 .bss           0x0000000020005234        0x0 build/risc-v/libc.a(lib_a-atoi.o)
 .bss           0x0000000020005234        0x0 build/risc-v/libc.a(lib_a-fclose.o)
 .bss           0x0000000020005234        0x0 build/risc-v/libc.a(lib_a-fflush.o)
 .bss           0x0000000020005234        0x0 build/risc-v/libc.a(lib_a-fileno.o)
 .bss           0x0000000020005234        0x0 build/risc-v/libc.a(lib_a-findfp.o)
 .bss           0x0000000020005234        0x0 build/risc-v/libc.a(lib_a-fopen.o)
 .bss           0x0000000020005234        0x0 build/risc-v/libc.a(lib_a-fread.o)
 .bss           0x0000000020005234        0x0 build/risc-v/libc.a(lib_a-fseek.o)
 .bss           0x0000000020005234        0x0 build/risc-v/libc.a(lib_a-fseeko.o)
 .bss           0x0000000020005234        0x0 build/risc-v/libc.a(lib_a-fstatr.o)
 .bss           0x0000000020005234        0x0 build/risc-v/libc.a(lib_a-fwalk.o)
 .bss           0x0000000020005234        0x0 build/risc-v/libc.a(lib_a-fwrite.o)
 .bss           0x0000000020005234        0x0 build/risc-v/libc.a(lib_a-impure.o)
 .bss           0x0000000020005234        0x0 build/risc-v/libc.a(lib_a-makebuf.o)
 .bss           0x0000000020005234        0x0 build/risc-v/libc.a(lib_a-malloc.o)
 .bss           0x0000000020005234        0x0 build/risc-v/libc.a(lib_a-memcmp.o)
 .bss           0x0000000020005234        0x0 build/risc-v/libc.a(lib_a-memcpy.o)
 .bss           0x0000000020005234        0x0 build/risc-v/libc.a(lib_a-memset.o)
 .bss           0x0000000020005234        0x0 build/risc-v/libc.a(lib_a-printf.o)
 .bss           0x0000000020005234        0x0 build/risc-v/libc.a(lib_a-reent.o)
 .bss           0x0000000020005234        0x0 build/risc-v/libc.a(lib_a-refill.o)
 .bss           0x0000000020005234        0x0 build/risc-v/libc.a(lib_a-setvbuf.o)
 .bss           0x0000000020005234        0x0 build/risc-v/libc.a(lib_a-snprintf.o)
 .bss           0x0000000020005234        0x0 build/risc-v/libc.a(lib_a-stdio.o)
 .bss           0x0000000020005234        0x0 build/risc-v/libc.a(lib_a-strcat.o)
 .bss           0x0000000020005234        0x0 build/risc-v/libc.a(lib_a-strchr.o)
 .bss           0x0000000020005234        0x0 build/risc-v/libc.a(lib_a-strcmp.o)
 .bss           0x0000000020005234        0x0 build/risc-v/libc.a(lib_a-strcpy.o)
 .bss           0x0000000020005234        0x0 build/risc-v/libc.a(lib_a-strlen.o)
 .bss           0x0000000020005234        0x0 build/risc-v/libc.a(lib_a-strncmp.o)
 .bss           0x0000000020005234        0x0 build/risc-v/libc.a(lib_a-strncpy.o)
 .bss           0x0000000020005234        0x0 build/risc-v/libc.a(lib_a-strrchr.o)
 .bss           0x0000000020005234        0x0 build/risc-v/libc.a(lib_a-strstr.o)
 .bss           0x0000000020005234        0x0 build/risc-v/libc.a(lib_a-strtol.o)
 .bss           0x0000000020005234        0x0 build/risc-v/libc.a(lib_a-closer.o)
 .bss           0x0000000020005234        0x0 build/risc-v/libc.a(lib_a-flags.o)
 .bss           0x0000000020005234        0x0 build/risc-v/libc.a(lib_a-fvwrite.o)
 .bss           0x0000000020005234        0x0 build/risc-v/libc.a(lib_a-isattyr.o)
 .bss           0x0000000020005234        0x0 build/risc-v/libc.a(lib_a-locale.o)
 .bss           0x0000000020005234        0x0 build/risc-v/libc.a(lib_a-mbtowc_r.o)
 .bss           0x0000000020005234        0x0 build/risc-v/libc.a(lib_a-memchr.o)
 .bss           0x0000000020005234        0x0 build/risc-v/libc.a(lib_a-memmove.o)
 .bss           0x0000000020005234        0x0 build/risc-v/libc.a(lib_a-nano-svfprintf.o)
 .bss           0x0000000020005234        0x0 build/risc-v/libc.a(lib_a-nano-vfprintf_i.o)
 .bss           0x0000000020005234        0x0 build/risc-v/libc.a(lib_a-nano-vfprintf.o)
 .bss           0x0000000020005234        0x0 build/risc-v/libc.a(lib_a-wbuf.o)
 .bss           0x0000000020005234        0x0 build/risc-v/libc.a(lib_a-wctomb_r.o)
 .bss           0x0000000020005234        0x0 build/risc-v/libc.a(lib_a-wsetup.o)
 .bss           0x0000000020005234        0x0 build/risc-v/libc.a(lib_a-ctype_.o)
 .bss           0x0000000020005234        0x0 build/risc-v/libc.a(lib_a-fputwc.o)
 .bss           0x0000000020005234        0x0 build/risc-v/libc.a(lib_a-wcrtomb.o)
 .bss           0x0000000020005234        0x0 build/risc-v/libgcc.a(_bswapsi2.o)
 .bss           0x0000000020005234        0x0 build/risc-v/libgcc.a(floatsidf.o)
 .bss           0x0000000020005234        0x0 build/risc-v/libgcc.a(_clzsi2.o)
 .bss           0x0000000020005234        0x0 build/risc-v/libgcc.a(_clz.o)
 .bss           0x0000000020005234        0x0 rtthread.risc-v.lib(syscalls.o)
 .bss           0x0000000020005234        0x0 rtthread.risc-v.lib(stdlib.o)
 *(.bss*)
 *(.sbss)
 .sbss          0x0000000020005234        0x8 rtthread.risc-v.lib(shell.o)
                0x0000000020005234                riscv__syscall_table_begin
                0x0000000020005238                riscv__syscall_table_end
 .sbss          0x000000002000523c        0x4 rtthread.risc-v.lib(semaphore.o)
 .sbss          0x0000000020005240        0x6 rtthread.risc-v.lib(pthread.o)
 *fill*         0x0000000020005246        0x2 
 .sbss          0x0000000020005248        0x4 build/risc-v/libc.a(lib_a-locale.o)
                0x0000000020005248                riscv__PathLocale
 *(.sbss*)
 *(COMMON)
 COMMON         0x000000002000524c        0x4 rtthread.arm.lib(board.o)
                0x000000002000524c                arm_rt_current_thread
 COMMON         0x0000000020005250       0x64 rtthread.arm.lib(drv_uart.o)
                0x0000000020005250                arm_serial0
 COMMON         0x00000000200052b4        0x8 rtthread.arm.lib(fsl_clock.o)
                0x00000000200052b4                arm_g_xtal0Freq
                0x00000000200052b8                arm_g_xtal32Freq
 COMMON         0x00000000200052bc      0x22c rtthread.arm.lib(cpu.o)
                0x00000000200052bc                _cpus_lock
                0x00000000200052c0                rt_cpus
 COMMON         0x00000000200054e8        0xc rtthread.arm.lib(object.o)
                0x00000000200054e8                arm_rt_object_put_hook
                0x00000000200054ec                arm_rt_object_trytake_hook
                0x00000000200054f0                arm_rt_object_take_hook
 COMMON         0x00000000200054f4       0x28 rtthread.arm.lib(kservice.o)
                0x00000000200054f4                arm_rt_assert_hook
                0x00000000200054f8                _lock
 COMMON         0x000000002000551c      0x104 rtthread.arm.lib(scheduler.o)
                0x000000002000551c                rt_thread_priority_table
                0x000000002000561c                rt_thread_ready_priority_group
 COMMON         0x0000000020005620        0xc rtthread.arm.lib(cpuport.o)
                0x0000000020005620                arm_rt_interrupt_to_thread
                0x0000000020005624                arm_rt_interrupt_from_thread
                0x0000000020005628                arm_rt_thread_switch_interrupt_flag
 COMMON         0x000000002000562c       0x7c rtthread.arm.lib(dfs.o)
                0x000000002000562c                fslock
                0x0000000020005650                _fdtab
                0x0000000020005658                filesystem_table
                0x0000000020005698                filesystem_operation_table
 COMMON         0x00000000200056a8       0x24 rtthread.arm.lib(semaphore.o)
                0x00000000200056a8                posix_sem_lock
 COMMON         0x00000000200056cc       0x40 rtthread.arm.lib(pthread_tls.o)
                0x00000000200056cc                arm__thread_keys
 COMMON         0x000000002000570c       0x6c rtthread.risc-v.lib(main.o)
                0x000000002000570c                global_read_sem
                0x0000000020005718                global_write_sem
                0x0000000020005724                global_cipher_sem
                0x0000000020005730                global_bsize
                0x0000000020005734                global_queue
                0x0000000020005774                global_nblocks
 COMMON         0x0000000020005778        0x4 rtthread.risc-v.lib(board.o)
                0x0000000020005778                global_preemptive
 COMMON         0x000000002000577c       0x68 rtthread.risc-v.lib(drv_uart.o)
                0x000000002000577c                riscv_serial0
 COMMON         0x00000000200057e4        0x8 rtthread.risc-v.lib(fsl_clock.o)
                0x00000000200057e4                riscv_g_xtal32Freq
                0x00000000200057e8                riscv_g_xtal0Freq
 COMMON         0x00000000200057ec      0x100 rtthread.risc-v.lib(fsl_sdmmc.o)
                0x00000000200057ec                riscv_g_sdmmc
 COMMON         0x00000000200058ec        0x4 rtthread.risc-v.lib(kservice.o)
                0x00000000200058ec                riscv_rt_assert_hook
 COMMON         0x00000000200058f0        0xc rtthread.risc-v.lib(object.o)
                0x00000000200058f0                riscv_rt_object_put_hook
                0x00000000200058f4                riscv_rt_object_trytake_hook
                0x00000000200058f8                riscv_rt_object_take_hook
 COMMON         0x00000000200058fc        0x4 rtthread.risc-v.lib(shell.o)
                0x00000000200058fc                riscv_shell
 COMMON         0x0000000020005900       0x20 rtthread.risc-v.lib(fsl_host.o)
                0x0000000020005900                riscv_g_usdhcAdma2Table
 COMMON         0x0000000020005920       0x40 rtthread.risc-v.lib(pthread_tls.o)
                0x0000000020005920                riscv__thread_keys
 COMMON         0x0000000020005960       0x21 build/arm/libc.a(lib_a-lock.o)
                0x0000000020005960                arm___lock___sfp_recursive_mutex
                0x0000000020005964                arm___lock___dd_hash_mutex
                0x0000000020005968                arm___lock___sinit_recursive_mutex
                0x000000002000596c                arm___lock___atexit_recursive_mutex
                0x0000000020005970                arm___lock___arc4random_mutex
                0x0000000020005974                arm___lock___tz_mutex
                0x0000000020005978                arm___lock___env_recursive_mutex
                0x000000002000597c                arm___lock___at_quick_exit_mutex
                0x0000000020005980                arm___lock___malloc_recursive_mutex
 *fill*         0x0000000020005981        0x3 
 COMMON         0x0000000020005984        0x4 build/arm/libc.a(lib_a-reent.o)
                0x0000000020005984                arm_errno
 COMMON         0x0000000020005988        0x4 build/risc-v/libc.a(lib_a-reent.o)
                0x0000000020005988                riscv_errno
                0x000000002000598c                . = ALIGN (0x4)
                0x000000002000598c                __bss_end__ = .
                0x000000002000598c                __END_BSS = .
 *(.arm_bss.init)
                0x000000002000598c                _end = .
                [!provide]                        PROVIDE (end = .)
                [!provide]                        PROVIDE (riscv_end = .)
                [!provide]                        PROVIDE (arm_end = .)
                0x0000000020005a00                . = ALIGN (0x100)
                0x0000000020005a00                __heap_start = .
                0x000000002000da00                . = (. + 0x8000)
                0x000000002000da00                arm___heap_start = .

.stab           0x0000000000000000       0x24
 *(.stab)
 .stab          0x0000000000000000       0x24 build/arm/libnosys.a(close.o)

.stabstr        0x0000000000000000      0x119
 *(.stabstr)
 .stabstr       0x0000000000000000      0x119 build/arm/libnosys.a(close.o)

.stab.excl
 *(.stab.excl)

.stab.exclstr
 *(.stab.exclstr)

.stab.index
 *(.stab.index)

.stab.indexstr
 *(.stab.indexstr)

.comment        0x0000000000000000       0x66
 *(.comment)
 .comment       0x0000000000000000       0x4c rtthread.arm.lib(startup.o)
                                         0x4d (size before relaxing)
 .comment       0x000000000000004c       0x4d rtthread.arm.lib(board.o)
 .comment       0x000000000000004c       0x4d rtthread.arm.lib(drv_uart.o)
 .comment       0x000000000000004c       0x4d rtthread.arm.lib(fsl_lpuart.o)
 .comment       0x000000000000004c       0x4d rtthread.arm.lib(fsl_clock.o)
 .comment       0x000000000000004c       0x4d rtthread.arm.lib(system_RV32M1_cm0plus.o)
 .comment       0x000000000000004c       0x4d rtthread.arm.lib(fsl_sema42.o)
 .comment       0x000000000000004c       0x4d rtthread.arm.lib(fsl_mu.o)
 .comment       0x000000000000004c       0x4d rtthread.arm.lib(idle.o)
 .comment       0x000000000000004c       0x4d rtthread.arm.lib(cpu.o)
 .comment       0x000000000000004c       0x4d rtthread.arm.lib(timer.o)
 .comment       0x000000000000004c       0x4d rtthread.arm.lib(object.o)
 .comment       0x000000000000004c       0x4d rtthread.arm.lib(clock.o)
 .comment       0x000000000000004c       0x4d rtthread.arm.lib(kservice.o)
 .comment       0x000000000000004c       0x4d rtthread.arm.lib(ipc.o)
 .comment       0x000000000000004c       0x4d rtthread.arm.lib(device.o)
 .comment       0x000000000000004c       0x4d rtthread.arm.lib(scheduler.o)
 .comment       0x000000000000004c       0x4d rtthread.arm.lib(thread.o)
 .comment       0x000000000000004c       0x4d rtthread.arm.lib(irq.o)
 .comment       0x000000000000004c       0x4d rtthread.arm.lib(cpuport.o)
 .comment       0x000000000000004c       0x4d rtthread.arm.lib(serial.o)
 .comment       0x000000000000004c       0x4d rtthread.arm.lib(shell.o)
 .comment       0x000000000000004c       0x4d rtthread.arm.lib(msh.o)
 .comment       0x000000000000004c       0x4d rtthread.arm.lib(cmd.o)
 .comment       0x000000000000004c       0x4d rtthread.arm.lib(ulog.o)
 .comment       0x000000000000004c       0x4d rtthread.arm.lib(main.o)
 .comment       0x000000000000004c       0x4d rtthread.arm.lib(pin_mux.o)
 .comment       0x000000000000004c       0x4d rtthread.arm.lib(mem.o)
 .comment       0x000000000000004c       0x4d rtthread.arm.lib(dfs_posix.o)
 .comment       0x000000000000004c       0x4d rtthread.arm.lib(dfs_fs.o)
 .comment       0x000000000000004c       0x4d rtthread.arm.lib(dfs.o)
 .comment       0x000000000000004c       0x4d rtthread.arm.lib(dfs_file.o)
 .comment       0x000000000000004c       0x4d rtthread.arm.lib(completion.o)
 .comment       0x000000000000004c       0x4d rtthread.arm.lib(waitqueue.o)
 .comment       0x000000000000004c       0x4d rtthread.arm.lib(msh_file.o)
 .comment       0x000000000000004c       0x4d rtthread.arm.lib(delay.o)
 .comment       0x000000000000004c       0x4d rtthread.arm.lib(libc.o)
 .comment       0x000000000000004c       0x4d rtthread.arm.lib(semaphore.o)
 .comment       0x000000000000004c       0x4d rtthread.arm.lib(pthread.o)
 .comment       0x000000000000004c       0x4d rtthread.arm.lib(pthread_tls.o)
 .comment       0x000000000000004c       0x4d rtthread.arm.lib(console_be.o)
 .comment       0x000000000000004c       0x4d rtthread.arm.lib(pthread_attr.o)
 .comment       0x000000000000004c       0x1a rtthread.risc-v.lib(main.o)
                                         0x1b (size before relaxing)
 .comment       0x0000000000000066       0x1b rtthread.risc-v.lib(board.o)
 .comment       0x0000000000000066       0x1b rtthread.risc-v.lib(mnt.o)
 .comment       0x0000000000000066       0x1b rtthread.risc-v.lib(clock_config.o)
 .comment       0x0000000000000066       0x1b rtthread.risc-v.lib(pin_mux.o)
 .comment       0x0000000000000066       0x1b rtthread.risc-v.lib(startup.o)
 .comment       0x0000000000000066       0x1b rtthread.risc-v.lib(drv_uart.o)
 .comment       0x0000000000000066       0x1b rtthread.risc-v.lib(drv_sdcard.o)
 .comment       0x0000000000000066       0x1b rtthread.risc-v.lib(system_RV32M1_ri5cy.o)
 .comment       0x0000000000000066       0x1b rtthread.risc-v.lib(fsl_lpuart.o)
 .comment       0x0000000000000066       0x1b rtthread.risc-v.lib(fsl_msmc.o)
 .comment       0x0000000000000066       0x1b rtthread.risc-v.lib(fsl_xrdc.o)
 .comment       0x0000000000000066       0x1b rtthread.risc-v.lib(fsl_common.o)
 .comment       0x0000000000000066       0x1b rtthread.risc-v.lib(fsl_clock.o)
 .comment       0x0000000000000066       0x1b rtthread.risc-v.lib(fsl_gpio.o)
 .comment       0x0000000000000066       0x1b rtthread.risc-v.lib(fsl_sema42.o)
 .comment       0x0000000000000066       0x1b rtthread.risc-v.lib(fsl_mu.o)
 .comment       0x0000000000000066       0x1b rtthread.risc-v.lib(fsl_sd.o)
 .comment       0x0000000000000066       0x1b rtthread.risc-v.lib(fsl_sdmmc.o)
 .comment       0x0000000000000066       0x1b rtthread.risc-v.lib(idle.o)
 .comment       0x0000000000000066       0x1b rtthread.risc-v.lib(scheduler.o)
 .comment       0x0000000000000066       0x1b rtthread.risc-v.lib(ipc.o)
 .comment       0x0000000000000066       0x1b rtthread.risc-v.lib(components.o)
 .comment       0x0000000000000066       0x1b rtthread.risc-v.lib(clock.o)
 .comment       0x0000000000000066       0x1b rtthread.risc-v.lib(cpu.o)
 .comment       0x0000000000000066       0x1b rtthread.risc-v.lib(kservice.o)
 .comment       0x0000000000000066       0x1b rtthread.risc-v.lib(thread.o)
 .comment       0x0000000000000066       0x1b rtthread.risc-v.lib(mem.o)
 .comment       0x0000000000000066       0x1b rtthread.risc-v.lib(device.o)
 .comment       0x0000000000000066       0x1b rtthread.risc-v.lib(timer.o)
 .comment       0x0000000000000066       0x1b rtthread.risc-v.lib(object.o)
 .comment       0x0000000000000066       0x1b rtthread.risc-v.lib(cpuport.o)
 .comment       0x0000000000000066       0x1b rtthread.risc-v.lib(dfs_fs.o)
 .comment       0x0000000000000066       0x1b rtthread.risc-v.lib(dfs.o)
 .comment       0x0000000000000066       0x1b rtthread.risc-v.lib(dfs_file.o)
 .comment       0x0000000000000066       0x1b rtthread.risc-v.lib(devfs.o)
 .comment       0x0000000000000066       0x1b rtthread.risc-v.lib(dfs_elm.o)
 .comment       0x0000000000000066       0x1b rtthread.risc-v.lib(serial.o)
 .comment       0x0000000000000066       0x1b rtthread.risc-v.lib(shell.o)
 .comment       0x0000000000000066       0x1b rtthread.risc-v.lib(msh.o)
 .comment       0x0000000000000066       0x1b rtthread.risc-v.lib(cmd.o)
 .comment       0x0000000000000066       0x1b rtthread.risc-v.lib(time.o)
 .comment       0x0000000000000066       0x1b rtthread.risc-v.lib(delay.o)
 .comment       0x0000000000000066       0x1b rtthread.risc-v.lib(libc.o)
 .comment       0x0000000000000066       0x1b rtthread.risc-v.lib(semaphore.o)
 .comment       0x0000000000000066       0x1b rtthread.risc-v.lib(pthread.o)
 .comment       0x0000000000000066       0x1b rtthread.risc-v.lib(pthread_attr.o)
 .comment       0x0000000000000066       0x1b rtthread.risc-v.lib(ulog.o)
 .comment       0x0000000000000066       0x1b rtthread.risc-v.lib(fsl_host.o)
 .comment       0x0000000000000066       0x1b rtthread.risc-v.lib(fsl_usdhc.o)
 .comment       0x0000000000000066       0x1b rtthread.risc-v.lib(irq.o)
 .comment       0x0000000000000066       0x1b rtthread.risc-v.lib(dfs_posix.o)
 .comment       0x0000000000000066       0x1b rtthread.risc-v.lib(ff.o)
 .comment       0x0000000000000066       0x1b rtthread.risc-v.lib(ffunicode.o)
 .comment       0x0000000000000066       0x1b rtthread.risc-v.lib(completion.o)
 .comment       0x0000000000000066       0x1b rtthread.risc-v.lib(waitqueue.o)
 .comment       0x0000000000000066       0x1b rtthread.risc-v.lib(msh_file.o)
 .comment       0x0000000000000066       0x1b rtthread.risc-v.lib(pthread_tls.o)
 .comment       0x0000000000000066       0x1b rtthread.risc-v.lib(console_be.o)
 .comment       0x0000000000000066       0x1b build/risc-v/libc.a(lib_a-atoi.o)
 .comment       0x0000000000000066       0x1b build/risc-v/libc.a(lib_a-fclose.o)
 .comment       0x0000000000000066       0x1b build/risc-v/libc.a(lib_a-fflush.o)
 .comment       0x0000000000000066       0x1b build/risc-v/libc.a(lib_a-fileno.o)
 .comment       0x0000000000000066       0x1b build/risc-v/libc.a(lib_a-findfp.o)
 .comment       0x0000000000000066       0x1b build/risc-v/libc.a(lib_a-fopen.o)
 .comment       0x0000000000000066       0x1b build/risc-v/libc.a(lib_a-fread.o)
 .comment       0x0000000000000066       0x1b build/risc-v/libc.a(lib_a-fseek.o)
 .comment       0x0000000000000066       0x1b build/risc-v/libc.a(lib_a-fseeko.o)
 .comment       0x0000000000000066       0x1b build/risc-v/libc.a(lib_a-fstatr.o)
 .comment       0x0000000000000066       0x1b build/risc-v/libc.a(lib_a-fwalk.o)
 .comment       0x0000000000000066       0x1b build/risc-v/libc.a(lib_a-fwrite.o)
 .comment       0x0000000000000066       0x1b build/risc-v/libc.a(lib_a-impure.o)
 .comment       0x0000000000000066       0x1b build/risc-v/libc.a(lib_a-makebuf.o)
 .comment       0x0000000000000066       0x1b build/risc-v/libc.a(lib_a-malloc.o)
 .comment       0x0000000000000066       0x1b build/risc-v/libc.a(lib_a-memcmp.o)
 .comment       0x0000000000000066       0x1b build/risc-v/libc.a(lib_a-memcpy.o)
 .comment       0x0000000000000066       0x1b build/risc-v/libc.a(lib_a-printf.o)
 .comment       0x0000000000000066       0x1b build/risc-v/libc.a(lib_a-reent.o)
 .comment       0x0000000000000066       0x1b build/risc-v/libc.a(lib_a-refill.o)
 .comment       0x0000000000000066       0x1b build/risc-v/libc.a(lib_a-setvbuf.o)
 .comment       0x0000000000000066       0x1b build/risc-v/libc.a(lib_a-snprintf.o)
 .comment       0x0000000000000066       0x1b build/risc-v/libc.a(lib_a-stdio.o)
 .comment       0x0000000000000066       0x1b build/risc-v/libc.a(lib_a-strcat.o)
 .comment       0x0000000000000066       0x1b build/risc-v/libc.a(lib_a-strchr.o)
 .comment       0x0000000000000066       0x1b build/risc-v/libc.a(lib_a-strcpy.o)
 .comment       0x0000000000000066       0x1b build/risc-v/libc.a(lib_a-strlen.o)
 .comment       0x0000000000000066       0x1b build/risc-v/libc.a(lib_a-strncmp.o)
 .comment       0x0000000000000066       0x1b build/risc-v/libc.a(lib_a-strncpy.o)
 .comment       0x0000000000000066       0x1b build/risc-v/libc.a(lib_a-strrchr.o)
 .comment       0x0000000000000066       0x1b build/risc-v/libc.a(lib_a-strstr.o)
 .comment       0x0000000000000066       0x1b build/risc-v/libc.a(lib_a-strtol.o)
 .comment       0x0000000000000066       0x1b build/risc-v/libc.a(lib_a-closer.o)
 .comment       0x0000000000000066       0x1b build/risc-v/libc.a(lib_a-flags.o)
 .comment       0x0000000000000066       0x1b build/risc-v/libc.a(lib_a-fvwrite.o)
 .comment       0x0000000000000066       0x1b build/risc-v/libc.a(lib_a-isattyr.o)
 .comment       0x0000000000000066       0x1b build/risc-v/libc.a(lib_a-locale.o)
 .comment       0x0000000000000066       0x1b build/risc-v/libc.a(lib_a-mbtowc_r.o)
 .comment       0x0000000000000066       0x1b build/risc-v/libc.a(lib_a-memchr.o)
 .comment       0x0000000000000066       0x1b build/risc-v/libc.a(lib_a-memmove.o)
 .comment       0x0000000000000066       0x1b build/risc-v/libc.a(lib_a-nano-svfprintf.o)
 .comment       0x0000000000000066       0x1b build/risc-v/libc.a(lib_a-nano-vfprintf_i.o)
 .comment       0x0000000000000066       0x1b build/risc-v/libc.a(lib_a-nano-vfprintf.o)
 .comment       0x0000000000000066       0x1b build/risc-v/libc.a(lib_a-wbuf.o)
 .comment       0x0000000000000066       0x1b build/risc-v/libc.a(lib_a-wctomb_r.o)
 .comment       0x0000000000000066       0x1b build/risc-v/libc.a(lib_a-wsetup.o)
 .comment       0x0000000000000066       0x1b build/risc-v/libc.a(lib_a-ctype_.o)
 .comment       0x0000000000000066       0x1b build/risc-v/libc.a(lib_a-fputwc.o)
 .comment       0x0000000000000066       0x1b build/risc-v/libc.a(lib_a-wcrtomb.o)
 .comment       0x0000000000000066       0x1b build/risc-v/libgcc.a(_bswapsi2.o)
 .comment       0x0000000000000066       0x1b build/risc-v/libgcc.a(floatsidf.o)
 .comment       0x0000000000000066       0x1b build/risc-v/libgcc.a(_clzsi2.o)
 .comment       0x0000000000000066       0x1b build/risc-v/libgcc.a(_clz.o)
 .comment       0x0000000000000066       0x4d rtthread.arm.lib(syscalls.o)
 .comment       0x0000000000000066       0x1b rtthread.risc-v.lib(syscalls.o)
 .comment       0x0000000000000066       0x1b rtthread.risc-v.lib(stdlib.o)

.ARM.attributes
                0x0000000000000000        0x0
 .ARM.attributes
                0x0000000000000000       0x1b startup_RV32M1_cm0.o
 .ARM.attributes
                0x000000000000001b       0x2c rtthread.arm.lib(startup.o)
 .ARM.attributes
                0x0000000000000047       0x2c rtthread.arm.lib(board.o)
 .ARM.attributes
                0x0000000000000073       0x2c rtthread.arm.lib(drv_uart.o)
 .ARM.attributes
                0x000000000000009f       0x2c rtthread.arm.lib(fsl_lpuart.o)
 .ARM.attributes
                0x00000000000000cb       0x2c rtthread.arm.lib(fsl_clock.o)
 .ARM.attributes
                0x00000000000000f7       0x2c rtthread.arm.lib(system_RV32M1_cm0plus.o)
 .ARM.attributes
                0x0000000000000123       0x2c rtthread.arm.lib(fsl_sema42.o)
 .ARM.attributes
                0x000000000000014f       0x2c rtthread.arm.lib(fsl_mu.o)
 .ARM.attributes
                0x000000000000017b       0x2c rtthread.arm.lib(idle.o)
 .ARM.attributes
                0x00000000000001a7       0x2c rtthread.arm.lib(cpu.o)
 .ARM.attributes
                0x00000000000001d3       0x2c rtthread.arm.lib(timer.o)
 .ARM.attributes
                0x00000000000001ff       0x2c rtthread.arm.lib(object.o)
 .ARM.attributes
                0x000000000000022b       0x2c rtthread.arm.lib(clock.o)
 .ARM.attributes
                0x0000000000000257       0x2c rtthread.arm.lib(kservice.o)
 .ARM.attributes
                0x0000000000000283       0x2c rtthread.arm.lib(ipc.o)
 .ARM.attributes
                0x00000000000002af       0x2c rtthread.arm.lib(device.o)
 .ARM.attributes
                0x00000000000002db       0x2c rtthread.arm.lib(scheduler.o)
 .ARM.attributes
                0x0000000000000307       0x2c rtthread.arm.lib(thread.o)
 .ARM.attributes
                0x0000000000000333       0x2c rtthread.arm.lib(irq.o)
 .ARM.attributes
                0x000000000000035f       0x2c rtthread.arm.lib(cpuport.o)
 .ARM.attributes
                0x000000000000038b       0x21 rtthread.arm.lib(context_gcc.o)
 .ARM.attributes
                0x00000000000003ac       0x2c rtthread.arm.lib(serial.o)
 .ARM.attributes
                0x00000000000003d8       0x2c rtthread.arm.lib(shell.o)
 .ARM.attributes
                0x0000000000000404       0x2c rtthread.arm.lib(msh.o)
 .ARM.attributes
                0x0000000000000430       0x2c rtthread.arm.lib(cmd.o)
 .ARM.attributes
                0x000000000000045c       0x2c rtthread.arm.lib(ulog.o)
 .ARM.attributes
                0x0000000000000488       0x2c rtthread.arm.lib(main.o)
 .ARM.attributes
                0x00000000000004b4       0x2c rtthread.arm.lib(pin_mux.o)
 .ARM.attributes
                0x00000000000004e0       0x2c rtthread.arm.lib(mem.o)
 .ARM.attributes
                0x000000000000050c       0x2c rtthread.arm.lib(dfs_posix.o)
 .ARM.attributes
                0x0000000000000538       0x2c rtthread.arm.lib(dfs_fs.o)
 .ARM.attributes
                0x0000000000000564       0x2c rtthread.arm.lib(dfs.o)
 .ARM.attributes
                0x0000000000000590       0x2c rtthread.arm.lib(dfs_file.o)
 .ARM.attributes
                0x00000000000005bc       0x2c rtthread.arm.lib(completion.o)
 .ARM.attributes
                0x00000000000005e8       0x2c rtthread.arm.lib(waitqueue.o)
 .ARM.attributes
                0x0000000000000614       0x2c rtthread.arm.lib(msh_file.o)
 .ARM.attributes
                0x0000000000000640       0x2c rtthread.arm.lib(delay.o)
 .ARM.attributes
                0x000000000000066c       0x2c rtthread.arm.lib(libc.o)
 .ARM.attributes
                0x0000000000000698       0x2c rtthread.arm.lib(semaphore.o)
 .ARM.attributes
                0x00000000000006c4       0x2c rtthread.arm.lib(pthread.o)
 .ARM.attributes
                0x00000000000006f0       0x2c rtthread.arm.lib(pthread_tls.o)
 .ARM.attributes
                0x000000000000071c       0x2c rtthread.arm.lib(console_be.o)
 .ARM.attributes
                0x0000000000000748       0x2c rtthread.arm.lib(pthread_attr.o)
 .ARM.attributes
                0x0000000000000774       0x2c build/arm/libc.a(lib_a-atoi.o)
 .ARM.attributes
                0x00000000000007a0       0x2c build/arm/libc.a(lib_a-fclose.o)
 .ARM.attributes
                0x00000000000007cc       0x2c build/arm/libc.a(lib_a-fflush.o)
 .ARM.attributes
                0x00000000000007f8       0x2c build/arm/libc.a(lib_a-fileno.o)
 .ARM.attributes
                0x0000000000000824       0x2c build/arm/libc.a(lib_a-findfp.o)
 .ARM.attributes
                0x0000000000000850       0x2c build/arm/libc.a(lib_a-fwalk.o)
 .ARM.attributes
                0x000000000000087c       0x2c build/arm/libc.a(lib_a-impure.o)
 .ARM.attributes
                0x00000000000008a8       0x2c build/arm/libc.a(lib_a-lock.o)
 .ARM.attributes
                0x00000000000008d4       0x2c build/arm/libc.a(lib_a-memset.o)
 .ARM.attributes
                0x0000000000000900       0x2c build/arm/libc.a(lib_a-reent.o)
 .ARM.attributes
                0x000000000000092c       0x2c build/arm/libc.a(lib_a-stdio.o)
 .ARM.attributes
                0x0000000000000958       0x1b build/arm/libc.a(lib_a-strcmp.o)
 .ARM.attributes
                0x0000000000000973       0x2c build/arm/libc.a(lib_a-strlen-stub.o)
 .ARM.attributes
                0x000000000000099f       0x2c build/arm/libc.a(lib_a-strncmp.o)
 .ARM.attributes
                0x00000000000009cb       0x2c build/arm/libc.a(lib_a-strncpy.o)
 .ARM.attributes
                0x00000000000009f7       0x2c build/arm/libc.a(lib_a-strrchr.o)
 .ARM.attributes
                0x0000000000000a23       0x2c build/arm/libc.a(lib_a-strtol.o)
 .ARM.attributes
                0x0000000000000a4f       0x2c build/arm/libc.a(lib_a-closer.o)
 .ARM.attributes
                0x0000000000000a7b       0x2c build/arm/libc.a(lib_a-ctype_.o)
 .ARM.attributes
                0x0000000000000aa7       0x2c build/arm/libc.a(lib_a-errno.o)
 .ARM.attributes
                0x0000000000000ad3       0x2c build/arm/libc.a(lib_a-strchr.o)
 .ARM.attributes
                0x0000000000000aff       0x1e build/arm/libgcc.a(_udivsi3.o)
 .ARM.attributes
                0x0000000000000b1d       0x1e build/arm/libgcc.a(_divsi3.o)
 .ARM.attributes
                0x0000000000000b3b       0x1e build/arm/libgcc.a(_dvmd_tls.o)
 .ARM.attributes
                0x0000000000000b59       0x2c build/arm/libgcc.a(_muldi3.o)
 .ARM.attributes
                0x0000000000000b85       0x2c build/arm/libnosys.a(close.o)
 .ARM.attributes
                0x0000000000000bb1       0x2c rtthread.arm.lib(syscalls.o)

.Pulp_Chip.Info
                0x0000000000000000     0x23f4
 .Pulp_Chip.Info
                0x0000000000000000       0x4e startup_RV32M1_ri5cy.o
 .Pulp_Chip.Info
                0x000000000000004e       0x4e rtthread.risc-v.lib(main.o)
 .Pulp_Chip.Info
                0x000000000000009c       0x4e rtthread.risc-v.lib(board.o)
 .Pulp_Chip.Info
                0x00000000000000ea       0x4e rtthread.risc-v.lib(mnt.o)
 .Pulp_Chip.Info
                0x0000000000000138       0x4e rtthread.risc-v.lib(clock_config.o)
 .Pulp_Chip.Info
                0x0000000000000186       0x4e rtthread.risc-v.lib(pin_mux.o)
 .Pulp_Chip.Info
                0x00000000000001d4       0x4e rtthread.risc-v.lib(startup.o)
 .Pulp_Chip.Info
                0x0000000000000222       0x4e rtthread.risc-v.lib(drv_uart.o)
 .Pulp_Chip.Info
                0x0000000000000270       0x4e rtthread.risc-v.lib(drv_sdcard.o)
 .Pulp_Chip.Info
                0x00000000000002be       0x4e rtthread.risc-v.lib(system_RV32M1_ri5cy.o)
 .Pulp_Chip.Info
                0x000000000000030c       0x4e rtthread.risc-v.lib(fsl_lpuart.o)
 .Pulp_Chip.Info
                0x000000000000035a       0x4e rtthread.risc-v.lib(fsl_msmc.o)
 .Pulp_Chip.Info
                0x00000000000003a8       0x4e rtthread.risc-v.lib(fsl_xrdc.o)
 .Pulp_Chip.Info
                0x00000000000003f6       0x4e rtthread.risc-v.lib(fsl_common.o)
 .Pulp_Chip.Info
                0x0000000000000444       0x4e rtthread.risc-v.lib(fsl_clock.o)
 .Pulp_Chip.Info
                0x0000000000000492       0x4e rtthread.risc-v.lib(fsl_gpio.o)
 .Pulp_Chip.Info
                0x00000000000004e0       0x4e rtthread.risc-v.lib(fsl_sema42.o)
 .Pulp_Chip.Info
                0x000000000000052e       0x4e rtthread.risc-v.lib(fsl_mu.o)
 .Pulp_Chip.Info
                0x000000000000057c       0x4e rtthread.risc-v.lib(fsl_sd.o)
 .Pulp_Chip.Info
                0x00000000000005ca       0x4e rtthread.risc-v.lib(fsl_sdmmc.o)
 .Pulp_Chip.Info
                0x0000000000000618       0x4e rtthread.risc-v.lib(idle.o)
 .Pulp_Chip.Info
                0x0000000000000666       0x4e rtthread.risc-v.lib(scheduler.o)
 .Pulp_Chip.Info
                0x00000000000006b4       0x4e rtthread.risc-v.lib(ipc.o)
 .Pulp_Chip.Info
                0x0000000000000702       0x4e rtthread.risc-v.lib(components.o)
 .Pulp_Chip.Info
                0x0000000000000750       0x4e rtthread.risc-v.lib(clock.o)
 .Pulp_Chip.Info
                0x000000000000079e       0x4e rtthread.risc-v.lib(cpu.o)
 .Pulp_Chip.Info
                0x00000000000007ec       0x4e rtthread.risc-v.lib(kservice.o)
 .Pulp_Chip.Info
                0x000000000000083a       0x4e rtthread.risc-v.lib(thread.o)
 .Pulp_Chip.Info
                0x0000000000000888       0x4e rtthread.risc-v.lib(mem.o)
 .Pulp_Chip.Info
                0x00000000000008d6       0x4e rtthread.risc-v.lib(device.o)
 .Pulp_Chip.Info
                0x0000000000000924       0x4e rtthread.risc-v.lib(timer.o)
 .Pulp_Chip.Info
                0x0000000000000972       0x4e rtthread.risc-v.lib(object.o)
 .Pulp_Chip.Info
                0x00000000000009c0       0x4e rtthread.risc-v.lib(cpuport.o)
 .Pulp_Chip.Info
                0x0000000000000a0e       0x4e rtthread.risc-v.lib(context_gcc.o)
 .Pulp_Chip.Info
                0x0000000000000a5c       0x4e rtthread.risc-v.lib(dfs_fs.o)
 .Pulp_Chip.Info
                0x0000000000000aaa       0x4e rtthread.risc-v.lib(dfs.o)
 .Pulp_Chip.Info
                0x0000000000000af8       0x4e rtthread.risc-v.lib(dfs_file.o)
 .Pulp_Chip.Info
                0x0000000000000b46       0x4e rtthread.risc-v.lib(devfs.o)
 .Pulp_Chip.Info
                0x0000000000000b94       0x4e rtthread.risc-v.lib(dfs_elm.o)
 .Pulp_Chip.Info
                0x0000000000000be2       0x4e rtthread.risc-v.lib(serial.o)
 .Pulp_Chip.Info
                0x0000000000000c30       0x4e rtthread.risc-v.lib(shell.o)
 .Pulp_Chip.Info
                0x0000000000000c7e       0x4e rtthread.risc-v.lib(msh.o)
 .Pulp_Chip.Info
                0x0000000000000ccc       0x4e rtthread.risc-v.lib(cmd.o)
 .Pulp_Chip.Info
                0x0000000000000d1a       0x4e rtthread.risc-v.lib(time.o)
 .Pulp_Chip.Info
                0x0000000000000d68       0x4e rtthread.risc-v.lib(delay.o)
 .Pulp_Chip.Info
                0x0000000000000db6       0x4e rtthread.risc-v.lib(libc.o)
 .Pulp_Chip.Info
                0x0000000000000e04       0x4e rtthread.risc-v.lib(semaphore.o)
 .Pulp_Chip.Info
                0x0000000000000e52       0x4e rtthread.risc-v.lib(pthread.o)
 .Pulp_Chip.Info
                0x0000000000000ea0       0x4e rtthread.risc-v.lib(pthread_attr.o)
 .Pulp_Chip.Info
                0x0000000000000eee       0x4e rtthread.risc-v.lib(ulog.o)
 .Pulp_Chip.Info
                0x0000000000000f3c       0x4e rtthread.risc-v.lib(fsl_host.o)
 .Pulp_Chip.Info
                0x0000000000000f8a       0x4e rtthread.risc-v.lib(fsl_usdhc.o)
 .Pulp_Chip.Info
                0x0000000000000fd8       0x4e rtthread.risc-v.lib(irq.o)
 .Pulp_Chip.Info
                0x0000000000001026       0x4e rtthread.risc-v.lib(dfs_posix.o)
 .Pulp_Chip.Info
                0x0000000000001074       0x4e rtthread.risc-v.lib(ff.o)
 .Pulp_Chip.Info
                0x00000000000010c2       0x4e rtthread.risc-v.lib(ffunicode.o)
 .Pulp_Chip.Info
                0x0000000000001110       0x4e rtthread.risc-v.lib(completion.o)
 .Pulp_Chip.Info
                0x000000000000115e       0x4e rtthread.risc-v.lib(waitqueue.o)
 .Pulp_Chip.Info
                0x00000000000011ac       0x4e rtthread.risc-v.lib(msh_file.o)
 .Pulp_Chip.Info
                0x00000000000011fa       0x4e rtthread.risc-v.lib(pthread_tls.o)
 .Pulp_Chip.Info
                0x0000000000001248       0x4e rtthread.risc-v.lib(console_be.o)
 .Pulp_Chip.Info
                0x0000000000001296       0x4e build/risc-v/libc.a(lib_a-atoi.o)
 .Pulp_Chip.Info
                0x00000000000012e4       0x4e build/risc-v/libc.a(lib_a-fclose.o)
 .Pulp_Chip.Info
                0x0000000000001332       0x4e build/risc-v/libc.a(lib_a-fflush.o)
 .Pulp_Chip.Info
                0x0000000000001380       0x4e build/risc-v/libc.a(lib_a-fileno.o)
 .Pulp_Chip.Info
                0x00000000000013ce       0x4e build/risc-v/libc.a(lib_a-findfp.o)
 .Pulp_Chip.Info
                0x000000000000141c       0x4e build/risc-v/libc.a(lib_a-fopen.o)
 .Pulp_Chip.Info
                0x000000000000146a       0x4e build/risc-v/libc.a(lib_a-fread.o)
 .Pulp_Chip.Info
                0x00000000000014b8       0x4e build/risc-v/libc.a(lib_a-fseek.o)
 .Pulp_Chip.Info
                0x0000000000001506       0x4e build/risc-v/libc.a(lib_a-fseeko.o)
 .Pulp_Chip.Info
                0x0000000000001554       0x4e build/risc-v/libc.a(lib_a-fstatr.o)
 .Pulp_Chip.Info
                0x00000000000015a2       0x4e build/risc-v/libc.a(lib_a-fwalk.o)
 .Pulp_Chip.Info
                0x00000000000015f0       0x4e build/risc-v/libc.a(lib_a-fwrite.o)
 .Pulp_Chip.Info
                0x000000000000163e       0x4e build/risc-v/libc.a(lib_a-impure.o)
 .Pulp_Chip.Info
                0x000000000000168c       0x4e build/risc-v/libc.a(lib_a-makebuf.o)
 .Pulp_Chip.Info
                0x00000000000016da       0x4e build/risc-v/libc.a(lib_a-malloc.o)
 .Pulp_Chip.Info
                0x0000000000001728       0x4e build/risc-v/libc.a(lib_a-memcmp.o)
 .Pulp_Chip.Info
                0x0000000000001776       0x4e build/risc-v/libc.a(lib_a-memcpy.o)
 .Pulp_Chip.Info
                0x00000000000017c4       0x4e build/risc-v/libc.a(lib_a-memset.o)
 .Pulp_Chip.Info
                0x0000000000001812       0x4e build/risc-v/libc.a(lib_a-printf.o)
 .Pulp_Chip.Info
                0x0000000000001860       0x4e build/risc-v/libc.a(lib_a-reent.o)
 .Pulp_Chip.Info
                0x00000000000018ae       0x4e build/risc-v/libc.a(lib_a-refill.o)
 .Pulp_Chip.Info
                0x00000000000018fc       0x4e build/risc-v/libc.a(lib_a-setvbuf.o)
 .Pulp_Chip.Info
                0x000000000000194a       0x4e build/risc-v/libc.a(lib_a-snprintf.o)
 .Pulp_Chip.Info
                0x0000000000001998       0x4e build/risc-v/libc.a(lib_a-stdio.o)
 .Pulp_Chip.Info
                0x00000000000019e6       0x4e build/risc-v/libc.a(lib_a-strcat.o)
 .Pulp_Chip.Info
                0x0000000000001a34       0x4e build/risc-v/libc.a(lib_a-strchr.o)
 .Pulp_Chip.Info
                0x0000000000001a82       0x4e build/risc-v/libc.a(lib_a-strcmp.o)
 .Pulp_Chip.Info
                0x0000000000001ad0       0x4e build/risc-v/libc.a(lib_a-strcpy.o)
 .Pulp_Chip.Info
                0x0000000000001b1e       0x4e build/risc-v/libc.a(lib_a-strlen.o)
 .Pulp_Chip.Info
                0x0000000000001b6c       0x4e build/risc-v/libc.a(lib_a-strncmp.o)
 .Pulp_Chip.Info
                0x0000000000001bba       0x4e build/risc-v/libc.a(lib_a-strncpy.o)
 .Pulp_Chip.Info
                0x0000000000001c08       0x4e build/risc-v/libc.a(lib_a-strrchr.o)
 .Pulp_Chip.Info
                0x0000000000001c56       0x4e build/risc-v/libc.a(lib_a-strstr.o)
 .Pulp_Chip.Info
                0x0000000000001ca4       0x4e build/risc-v/libc.a(lib_a-strtol.o)
 .Pulp_Chip.Info
                0x0000000000001cf2       0x4e build/risc-v/libc.a(lib_a-closer.o)
 .Pulp_Chip.Info
                0x0000000000001d40       0x4e build/risc-v/libc.a(lib_a-flags.o)
 .Pulp_Chip.Info
                0x0000000000001d8e       0x4e build/risc-v/libc.a(lib_a-fvwrite.o)
 .Pulp_Chip.Info
                0x0000000000001ddc       0x4e build/risc-v/libc.a(lib_a-isattyr.o)
 .Pulp_Chip.Info
                0x0000000000001e2a       0x4e build/risc-v/libc.a(lib_a-locale.o)
 .Pulp_Chip.Info
                0x0000000000001e78       0x4e build/risc-v/libc.a(lib_a-mbtowc_r.o)
 .Pulp_Chip.Info
                0x0000000000001ec6       0x4e build/risc-v/libc.a(lib_a-memchr.o)
 .Pulp_Chip.Info
                0x0000000000001f14       0x4e build/risc-v/libc.a(lib_a-memmove.o)
 .Pulp_Chip.Info
                0x0000000000001f62       0x4e build/risc-v/libc.a(lib_a-nano-svfprintf.o)
 .Pulp_Chip.Info
                0x0000000000001fb0       0x4e build/risc-v/libc.a(lib_a-nano-vfprintf_i.o)
 .Pulp_Chip.Info
                0x0000000000001ffe       0x4e build/risc-v/libc.a(lib_a-nano-vfprintf.o)
 .Pulp_Chip.Info
                0x000000000000204c       0x4e build/risc-v/libc.a(lib_a-wbuf.o)
 .Pulp_Chip.Info
                0x000000000000209a       0x4e build/risc-v/libc.a(lib_a-wctomb_r.o)
 .Pulp_Chip.Info
                0x00000000000020e8       0x4e build/risc-v/libc.a(lib_a-wsetup.o)
 .Pulp_Chip.Info
                0x0000000000002136       0x4e build/risc-v/libc.a(lib_a-ctype_.o)
 .Pulp_Chip.Info
                0x0000000000002184       0x4e build/risc-v/libc.a(lib_a-fputwc.o)
 .Pulp_Chip.Info
                0x00000000000021d2       0x4e build/risc-v/libc.a(lib_a-wcrtomb.o)
 .Pulp_Chip.Info
                0x0000000000002220       0x4e build/risc-v/libgcc.a(_bswapsi2.o)
 .Pulp_Chip.Info
                0x000000000000226e       0x4e build/risc-v/libgcc.a(floatsidf.o)
 .Pulp_Chip.Info
                0x00000000000022bc       0x4e build/risc-v/libgcc.a(_clzsi2.o)
 .Pulp_Chip.Info
                0x000000000000230a       0x4e build/risc-v/libgcc.a(_clz.o)
 .Pulp_Chip.Info
                0x0000000000002358       0x4e rtthread.risc-v.lib(syscalls.o)
 .Pulp_Chip.Info
                0x00000000000023a6       0x4e rtthread.risc-v.lib(stdlib.o)

.debug
 *(.debug)

.line
 *(.line)

.debug_srcinfo
 *(.debug_srcinfo)

.debug_sfnames
 *(.debug_sfnames)

.debug_aranges  0x0000000000000000     0x3f40
 *(.debug_aranges)
 .debug_aranges
                0x0000000000000000       0x20 startup_RV32M1_cm0.o
 .debug_aranges
                0x0000000000000020       0x28 startup_RV32M1_ri5cy.o
 .debug_aranges
                0x0000000000000048       0x38 rtthread.arm.lib(startup.o)
 .debug_aranges
                0x0000000000000080      0x100 rtthread.arm.lib(board.o)
 .debug_aranges
                0x0000000000000180       0x90 rtthread.arm.lib(drv_uart.o)
 .debug_aranges
                0x0000000000000210      0x138 rtthread.arm.lib(fsl_lpuart.o)
 .debug_aranges
                0x0000000000000348      0x110 rtthread.arm.lib(fsl_clock.o)
 .debug_aranges
                0x0000000000000458       0x58 rtthread.arm.lib(system_RV32M1_cm0plus.o)
 .debug_aranges
                0x00000000000004b0       0x58 rtthread.arm.lib(fsl_sema42.o)
 .debug_aranges
                0x0000000000000508       0x80 rtthread.arm.lib(fsl_mu.o)
 .debug_aranges
                0x0000000000000588       0x70 rtthread.arm.lib(idle.o)
 .debug_aranges
                0x00000000000005f8       0x78 rtthread.arm.lib(cpu.o)
 .debug_aranges
                0x0000000000000670       0xb8 rtthread.arm.lib(timer.o)
 .debug_aranges
                0x0000000000000728       0xa0 rtthread.arm.lib(object.o)
 .debug_aranges
                0x00000000000007c8       0x48 rtthread.arm.lib(clock.o)
 .debug_aranges
                0x0000000000000810      0x190 rtthread.arm.lib(kservice.o)
 .debug_aranges
                0x00000000000009a0      0x198 rtthread.arm.lib(ipc.o)
 .debug_aranges
                0x0000000000000b38       0x90 rtthread.arm.lib(device.o)
 .debug_aranges
                0x0000000000000bc8       0xa8 rtthread.arm.lib(scheduler.o)
 .debug_aranges
                0x0000000000000c70       0xd0 rtthread.arm.lib(thread.o)
 .debug_aranges
                0x0000000000000d40       0x40 rtthread.arm.lib(irq.o)
 .debug_aranges
                0x0000000000000d80       0x30 rtthread.arm.lib(cpuport.o)
 .debug_aranges
                0x0000000000000db0       0x20 rtthread.arm.lib(context_gcc.o)
 .debug_aranges
                0x0000000000000dd0       0xc8 rtthread.arm.lib(serial.o)
 .debug_aranges
                0x0000000000000e98       0x80 rtthread.arm.lib(shell.o)
 .debug_aranges
                0x0000000000000f18       0x68 rtthread.arm.lib(msh.o)
 .debug_aranges
                0x0000000000000f80       0xa0 rtthread.arm.lib(cmd.o)
 .debug_aranges
                0x0000000000001020       0xe0 rtthread.arm.lib(ulog.o)
 .debug_aranges
                0x0000000000001100       0x38 rtthread.arm.lib(main.o)
 .debug_aranges
                0x0000000000001138       0x28 rtthread.arm.lib(pin_mux.o)
 .debug_aranges
                0x0000000000001160       0x48 rtthread.arm.lib(mem.o)
 .debug_aranges
                0x00000000000011a8       0xe8 rtthread.arm.lib(dfs_posix.o)
 .debug_aranges
                0x0000000000001290       0x68 rtthread.arm.lib(dfs_fs.o)
 .debug_aranges
                0x00000000000012f8       0x78 rtthread.arm.lib(dfs.o)
 .debug_aranges
                0x0000000000001370       0xb0 rtthread.arm.lib(dfs_file.o)
 .debug_aranges
                0x0000000000001420       0x48 rtthread.arm.lib(completion.o)
 .debug_aranges
                0x0000000000001468       0x60 rtthread.arm.lib(waitqueue.o)
 .debug_aranges
                0x00000000000014c8       0xa0 rtthread.arm.lib(msh_file.o)
 .debug_aranges
                0x0000000000001568       0x50 rtthread.arm.lib(delay.o)
 .debug_aranges
                0x00000000000015b8       0x38 rtthread.arm.lib(libc.o)
 .debug_aranges
                0x00000000000015f0       0x88 rtthread.arm.lib(semaphore.o)
 .debug_aranges
                0x0000000000001678       0xe8 rtthread.arm.lib(pthread.o)
 .debug_aranges
                0x0000000000001760       0x40 rtthread.arm.lib(pthread_tls.o)
 .debug_aranges
                0x00000000000017a0       0x28 rtthread.arm.lib(console_be.o)
 .debug_aranges
                0x00000000000017c8       0xb8 rtthread.arm.lib(pthread_attr.o)
 .debug_aranges
                0x0000000000001880       0x30 rtthread.risc-v.lib(main.o)
 .debug_aranges
                0x00000000000018b0      0x130 rtthread.risc-v.lib(board.o)
 .debug_aranges
                0x00000000000019e0       0x20 rtthread.risc-v.lib(mnt.o)
 .debug_aranges
                0x0000000000001a00       0x70 rtthread.risc-v.lib(clock_config.o)
 .debug_aranges
                0x0000000000001a70       0x40 rtthread.risc-v.lib(pin_mux.o)
 .debug_aranges
                0x0000000000001ab0       0x38 rtthread.risc-v.lib(startup.o)
 .debug_aranges
                0x0000000000001ae8       0x80 rtthread.risc-v.lib(drv_uart.o)
 .debug_aranges
                0x0000000000001b68       0x58 rtthread.risc-v.lib(drv_sdcard.o)
 .debug_aranges
                0x0000000000001bc0      0x170 rtthread.risc-v.lib(system_RV32M1_ri5cy.o)
 .debug_aranges
                0x0000000000001d30      0x130 rtthread.risc-v.lib(fsl_lpuart.o)
 .debug_aranges
                0x0000000000001e60       0x70 rtthread.risc-v.lib(fsl_msmc.o)
 .debug_aranges
                0x0000000000001ed0       0xb0 rtthread.risc-v.lib(fsl_xrdc.o)
 .debug_aranges
                0x0000000000001f80       0x20 rtthread.risc-v.lib(fsl_common.o)
 .debug_aranges
                0x0000000000001fa0      0x110 rtthread.risc-v.lib(fsl_clock.o)
 .debug_aranges
                0x00000000000020b0       0x40 rtthread.risc-v.lib(fsl_gpio.o)
 .debug_aranges
                0x00000000000020f0       0x58 rtthread.risc-v.lib(fsl_sema42.o)
 .debug_aranges
                0x0000000000002148       0x80 rtthread.risc-v.lib(fsl_mu.o)
 .debug_aranges
                0x00000000000021c8      0x138 rtthread.risc-v.lib(fsl_sd.o)
 .debug_aranges
                0x0000000000002300       0x78 rtthread.risc-v.lib(fsl_sdmmc.o)
 .debug_aranges
                0x0000000000002378       0x70 rtthread.risc-v.lib(idle.o)
 .debug_aranges
                0x00000000000023e8       0xa8 rtthread.risc-v.lib(scheduler.o)
 .debug_aranges
                0x0000000000002490      0x198 rtthread.risc-v.lib(ipc.o)
 .debug_aranges
                0x0000000000002628       0x48 rtthread.risc-v.lib(components.o)
 .debug_aranges
                0x0000000000002670       0x48 rtthread.risc-v.lib(clock.o)
 .debug_aranges
                0x00000000000026b8       0x78 rtthread.risc-v.lib(cpu.o)
 .debug_aranges
                0x0000000000002730      0x190 rtthread.risc-v.lib(kservice.o)
 .debug_aranges
                0x00000000000028c0       0xd0 rtthread.risc-v.lib(thread.o)
 .debug_aranges
                0x0000000000002990       0x48 rtthread.risc-v.lib(mem.o)
 .debug_aranges
                0x00000000000029d8       0x90 rtthread.risc-v.lib(device.o)
 .debug_aranges
                0x0000000000002a68       0xb8 rtthread.risc-v.lib(timer.o)
 .debug_aranges
                0x0000000000002b20       0xa0 rtthread.risc-v.lib(object.o)
 .debug_aranges
                0x0000000000002bc0       0x28 rtthread.risc-v.lib(cpuport.o)
 .debug_aranges
                0x0000000000002be8       0x20 rtthread.risc-v.lib(context_gcc.o)
 .debug_aranges
                0x0000000000002c08       0x68 rtthread.risc-v.lib(dfs_fs.o)
 .debug_aranges
                0x0000000000002c70       0x78 rtthread.risc-v.lib(dfs.o)
 .debug_aranges
                0x0000000000002ce8       0xb0 rtthread.risc-v.lib(dfs_file.o)
 .debug_aranges
                0x0000000000002d98       0x68 rtthread.risc-v.lib(devfs.o)
 .debug_aranges
                0x0000000000002e00      0x108 rtthread.risc-v.lib(dfs_elm.o)
 .debug_aranges
                0x0000000000002f08       0xc8 rtthread.risc-v.lib(serial.o)
 .debug_aranges
                0x0000000000002fd0       0x80 rtthread.risc-v.lib(shell.o)
 .debug_aranges
                0x0000000000003050       0x68 rtthread.risc-v.lib(msh.o)
 .debug_aranges
                0x00000000000030b8       0xa0 rtthread.risc-v.lib(cmd.o)
 .debug_aranges
                0x0000000000003158      0x100 rtthread.risc-v.lib(time.o)
 .debug_aranges
                0x0000000000003258       0x50 rtthread.risc-v.lib(delay.o)
 .debug_aranges
                0x00000000000032a8       0x38 rtthread.risc-v.lib(libc.o)
 .debug_aranges
                0x00000000000032e0       0x88 rtthread.risc-v.lib(semaphore.o)
 .debug_aranges
                0x0000000000003368       0xe8 rtthread.risc-v.lib(pthread.o)
 .debug_aranges
                0x0000000000003450       0xb8 rtthread.risc-v.lib(pthread_attr.o)
 .debug_aranges
                0x0000000000003508       0xe0 rtthread.risc-v.lib(ulog.o)
 .debug_aranges
                0x00000000000035e8       0x60 rtthread.risc-v.lib(fsl_host.o)
 .debug_aranges
                0x0000000000003648      0x170 rtthread.risc-v.lib(fsl_usdhc.o)
 .debug_aranges
                0x00000000000037b8       0x40 rtthread.risc-v.lib(irq.o)
 .debug_aranges
                0x00000000000037f8       0xe8 rtthread.risc-v.lib(dfs_posix.o)
 .debug_aranges
                0x00000000000038e0      0x208 rtthread.risc-v.lib(ff.o)
 .debug_aranges
                0x0000000000003ae8       0x30 rtthread.risc-v.lib(ffunicode.o)
 .debug_aranges
                0x0000000000003b18       0x48 rtthread.risc-v.lib(completion.o)
 .debug_aranges
                0x0000000000003b60       0x60 rtthread.risc-v.lib(waitqueue.o)
 .debug_aranges
                0x0000000000003bc0       0xa0 rtthread.risc-v.lib(msh_file.o)
 .debug_aranges
                0x0000000000003c60       0x40 rtthread.risc-v.lib(pthread_tls.o)
 .debug_aranges
                0x0000000000003ca0       0x28 rtthread.risc-v.lib(console_be.o)
 .debug_aranges
                0x0000000000003cc8       0x20 build/risc-v/libgcc.a(_bswapsi2.o)
 .debug_aranges
                0x0000000000003ce8       0x20 build/risc-v/libgcc.a(floatsidf.o)
 .debug_aranges
                0x0000000000003d08       0x20 build/risc-v/libgcc.a(_clzsi2.o)
 .debug_aranges
                0x0000000000003d28       0x18 build/risc-v/libgcc.a(_clz.o)
 .debug_aranges
                0x0000000000003d40       0xf0 rtthread.arm.lib(syscalls.o)
 .debug_aranges
                0x0000000000003e30       0xf0 rtthread.risc-v.lib(syscalls.o)
 .debug_aranges
                0x0000000000003f20       0x20 rtthread.risc-v.lib(stdlib.o)

.debug_pubnames
 *(.debug_pubnames)

.debug_info     0x0000000000000000    0x883a0
 *(.debug_info .gnu.linkonce.wi.*)
 .debug_info    0x0000000000000000       0x26 startup_RV32M1_cm0.o
 .debug_info    0x0000000000000026       0xa4 startup_RV32M1_ri5cy.o
 .debug_info    0x00000000000000ca     0x162f rtthread.arm.lib(startup.o)
 .debug_info    0x00000000000016f9     0x2b0e rtthread.arm.lib(board.o)
 .debug_info    0x0000000000004207     0x2958 rtthread.arm.lib(drv_uart.o)
 .debug_info    0x0000000000006b5f     0x240c rtthread.arm.lib(fsl_lpuart.o)
 .debug_info    0x0000000000008f6b     0x24c8 rtthread.arm.lib(fsl_clock.o)
 .debug_info    0x000000000000b433     0x1710 rtthread.arm.lib(system_RV32M1_cm0plus.o)
 .debug_info    0x000000000000cb43     0x1233 rtthread.arm.lib(fsl_sema42.o)
 .debug_info    0x000000000000dd76     0x13e8 rtthread.arm.lib(fsl_mu.o)
 .debug_info    0x000000000000f15e      0x9a8 rtthread.arm.lib(idle.o)
 .debug_info    0x000000000000fb06      0x8f2 rtthread.arm.lib(cpu.o)
 .debug_info    0x00000000000103f8      0xb4a rtthread.arm.lib(timer.o)
 .debug_info    0x0000000000010f42      0xa12 rtthread.arm.lib(object.o)
 .debug_info    0x0000000000011954      0x685 rtthread.arm.lib(clock.o)
 .debug_info    0x0000000000011fd9     0x1b18 rtthread.arm.lib(kservice.o)
 .debug_info    0x0000000000013af1     0x1c3a rtthread.arm.lib(ipc.o)
 .debug_info    0x000000000001572b      0xb51 rtthread.arm.lib(device.o)
 .debug_info    0x000000000001627c      0xc68 rtthread.arm.lib(scheduler.o)
 .debug_info    0x0000000000016ee4      0xe8b rtthread.arm.lib(thread.o)
 .debug_info    0x0000000000017d6f      0x339 rtthread.arm.lib(irq.o)
 .debug_info    0x00000000000180a8      0x701 rtthread.arm.lib(cpuport.o)
 .debug_info    0x00000000000187a9       0x26 rtthread.arm.lib(context_gcc.o)
 .debug_info    0x00000000000187cf     0x263e rtthread.arm.lib(serial.o)
 .debug_info    0x000000000001ae0d     0x1424 rtthread.arm.lib(shell.o)
 .debug_info    0x000000000001c231     0x127b rtthread.arm.lib(msh.o)
 .debug_info    0x000000000001d4ac     0x2381 rtthread.arm.lib(cmd.o)
 .debug_info    0x000000000001f82d     0x127c rtthread.arm.lib(ulog.o)
 .debug_info    0x0000000000020aa9     0x116c rtthread.arm.lib(main.o)
 .debug_info    0x0000000000021c15      0xa69 rtthread.arm.lib(pin_mux.o)
 .debug_info    0x000000000002267e      0x91f rtthread.arm.lib(mem.o)
 .debug_info    0x0000000000022f9d     0x207e rtthread.arm.lib(dfs_posix.o)
 .debug_info    0x000000000002501b     0x1ced rtthread.arm.lib(dfs_fs.o)
 .debug_info    0x0000000000026d08     0x1f80 rtthread.arm.lib(dfs.o)
 .debug_info    0x0000000000028c88     0x1ed4 rtthread.arm.lib(dfs_file.o)
 .debug_info    0x000000000002ab5c      0x77b rtthread.arm.lib(completion.o)
 .debug_info    0x000000000002b2d7      0x8bb rtthread.arm.lib(waitqueue.o)
 .debug_info    0x000000000002bb92     0x22ea rtthread.arm.lib(msh_file.o)
 .debug_info    0x000000000002de7c      0x340 rtthread.arm.lib(delay.o)
 .debug_info    0x000000000002e1bc     0x108b rtthread.arm.lib(libc.o)
 .debug_info    0x000000000002f247     0x1214 rtthread.arm.lib(semaphore.o)
 .debug_info    0x000000000003045b     0x1bdf rtthread.arm.lib(pthread.o)
 .debug_info    0x000000000003203a     0x12d5 rtthread.arm.lib(pthread_tls.o)
 .debug_info    0x000000000003330f      0x84e rtthread.arm.lib(console_be.o)
 .debug_info    0x0000000000033b5d     0x12b0 rtthread.arm.lib(pthread_attr.o)
 .debug_info    0x0000000000034e0d     0x1180 rtthread.risc-v.lib(main.o)
 .debug_info    0x0000000000035f8d     0x34ba rtthread.risc-v.lib(board.o)
 .debug_info    0x0000000000039447      0xae6 rtthread.risc-v.lib(mnt.o)
 .debug_info    0x0000000000039f2d     0x1a53 rtthread.risc-v.lib(clock_config.o)
 .debug_info    0x000000000003b980     0x1077 rtthread.risc-v.lib(pin_mux.o)
 .debug_info    0x000000000003c9f7      0x5c2 rtthread.risc-v.lib(startup.o)
 .debug_info    0x000000000003cfb9     0x2136 rtthread.risc-v.lib(drv_uart.o)
 .debug_info    0x000000000003f0ef     0x21b4 rtthread.risc-v.lib(drv_sdcard.o)
 .debug_info    0x00000000000412a3     0x1b11 rtthread.risc-v.lib(system_RV32M1_ri5cy.o)
 .debug_info    0x0000000000042db4     0x2521 rtthread.risc-v.lib(fsl_lpuart.o)
 .debug_info    0x00000000000452d5     0x11c1 rtthread.risc-v.lib(fsl_msmc.o)
 .debug_info    0x0000000000046496     0x1f57 rtthread.risc-v.lib(fsl_xrdc.o)
 .debug_info    0x00000000000483ed      0xa05 rtthread.risc-v.lib(fsl_common.o)
 .debug_info    0x0000000000048df2     0x248a rtthread.risc-v.lib(fsl_clock.o)
 .debug_info    0x000000000004b27c      0xf34 rtthread.risc-v.lib(fsl_gpio.o)
 .debug_info    0x000000000004c1b0     0x1249 rtthread.risc-v.lib(fsl_sema42.o)
 .debug_info    0x000000000004d3f9     0x13e3 rtthread.risc-v.lib(fsl_mu.o)
 .debug_info    0x000000000004e7dc     0x2eaa rtthread.risc-v.lib(fsl_sd.o)
 .debug_info    0x0000000000051686     0x1923 rtthread.risc-v.lib(fsl_sdmmc.o)
 .debug_info    0x0000000000052fa9      0x926 rtthread.risc-v.lib(idle.o)
 .debug_info    0x00000000000538cf      0xbc5 rtthread.risc-v.lib(scheduler.o)
 .debug_info    0x0000000000054494     0x1ae9 rtthread.risc-v.lib(ipc.o)
 .debug_info    0x0000000000055f7d      0x305 rtthread.risc-v.lib(components.o)
 .debug_info    0x0000000000056282      0x62b rtthread.risc-v.lib(clock.o)
 .debug_info    0x00000000000568ad      0x877 rtthread.risc-v.lib(cpu.o)
 .debug_info    0x0000000000057124     0x19bc rtthread.risc-v.lib(kservice.o)
 .debug_info    0x0000000000058ae0      0xdde rtthread.risc-v.lib(thread.o)
 .debug_info    0x00000000000598be      0x8ac rtthread.risc-v.lib(mem.o)
 .debug_info    0x000000000005a16a      0xae4 rtthread.risc-v.lib(device.o)
 .debug_info    0x000000000005ac4e      0xac5 rtthread.risc-v.lib(timer.o)
 .debug_info    0x000000000005b713      0x9a1 rtthread.risc-v.lib(object.o)
 .debug_info    0x000000000005c0b4      0x4a4 rtthread.risc-v.lib(cpuport.o)
 .debug_info    0x000000000005c558       0xca rtthread.risc-v.lib(context_gcc.o)
 .debug_info    0x000000000005c622     0x1b7a rtthread.risc-v.lib(dfs_fs.o)
 .debug_info    0x000000000005e19c     0x1e17 rtthread.risc-v.lib(dfs.o)
 .debug_info    0x000000000005ffb3     0x1d44 rtthread.risc-v.lib(dfs_file.o)
 .debug_info    0x0000000000061cf7     0x1ab8 rtthread.risc-v.lib(devfs.o)
 .debug_info    0x00000000000637af     0x2c33 rtthread.risc-v.lib(dfs_elm.o)
 .debug_info    0x00000000000663e2     0x245e rtthread.risc-v.lib(serial.o)
 .debug_info    0x0000000000068840     0x134a rtthread.risc-v.lib(shell.o)
 .debug_info    0x0000000000069b8a     0x118f rtthread.risc-v.lib(msh.o)
 .debug_info    0x000000000006ad19     0x21c4 rtthread.risc-v.lib(cmd.o)
 .debug_info    0x000000000006cedd     0x1441 rtthread.risc-v.lib(time.o)
 .debug_info    0x000000000006e31e      0x319 rtthread.risc-v.lib(delay.o)
 .debug_info    0x000000000006e637      0xff0 rtthread.risc-v.lib(libc.o)
 .debug_info    0x000000000006f627     0x1130 rtthread.risc-v.lib(semaphore.o)
 .debug_info    0x0000000000070757     0x1a71 rtthread.risc-v.lib(pthread.o)
 .debug_info    0x00000000000721c8     0x11d6 rtthread.risc-v.lib(pthread_attr.o)
 .debug_info    0x000000000007339e     0x11b1 rtthread.risc-v.lib(ulog.o)
 .debug_info    0x000000000007454f     0x15b3 rtthread.risc-v.lib(fsl_host.o)
 .debug_info    0x0000000000075b02     0x2cbb rtthread.risc-v.lib(fsl_usdhc.o)
 .debug_info    0x00000000000787bd      0x311 rtthread.risc-v.lib(irq.o)
 .debug_info    0x0000000000078ace     0x1ec8 rtthread.risc-v.lib(dfs_posix.o)
 .debug_info    0x000000000007a996     0x3257 rtthread.risc-v.lib(ff.o)
 .debug_info    0x000000000007dbed      0x36a rtthread.risc-v.lib(ffunicode.o)
 .debug_info    0x000000000007df57      0x716 rtthread.risc-v.lib(completion.o)
 .debug_info    0x000000000007e66d      0x843 rtthread.risc-v.lib(waitqueue.o)
 .debug_info    0x000000000007eeb0     0x2139 rtthread.risc-v.lib(msh_file.o)
 .debug_info    0x0000000000080fe9     0x1201 rtthread.risc-v.lib(pthread_tls.o)
 .debug_info    0x00000000000821ea      0x820 rtthread.risc-v.lib(console_be.o)
 .debug_info    0x0000000000082a0a      0xac7 build/risc-v/libgcc.a(_bswapsi2.o)
 .debug_info    0x00000000000834d1      0x297 build/risc-v/libgcc.a(floatsidf.o)
 .debug_info    0x0000000000083768      0xb04 build/risc-v/libgcc.a(_clzsi2.o)
 .debug_info    0x000000000008426c      0xa9d build/risc-v/libgcc.a(_clz.o)
 .debug_info    0x0000000000084d09     0x198f rtthread.arm.lib(syscalls.o)
 .debug_info    0x0000000000086698     0x182c rtthread.risc-v.lib(syscalls.o)
 .debug_info    0x0000000000087ec4      0x4dc rtthread.risc-v.lib(stdlib.o)

.debug_abbrev   0x0000000000000000    0x119f0
 *(.debug_abbrev)
 .debug_abbrev  0x0000000000000000       0x14 startup_RV32M1_cm0.o
 .debug_abbrev  0x0000000000000014       0x12 startup_RV32M1_ri5cy.o
 .debug_abbrev  0x0000000000000026      0x289 rtthread.arm.lib(startup.o)
 .debug_abbrev  0x00000000000002af      0x46c rtthread.arm.lib(board.o)
 .debug_abbrev  0x000000000000071b      0x403 rtthread.arm.lib(drv_uart.o)
 .debug_abbrev  0x0000000000000b1e      0x3da rtthread.arm.lib(fsl_lpuart.o)
 .debug_abbrev  0x0000000000000ef8      0x3c0 rtthread.arm.lib(fsl_clock.o)
 .debug_abbrev  0x00000000000012b8      0x2ab rtthread.arm.lib(system_RV32M1_cm0plus.o)
 .debug_abbrev  0x0000000000001563      0x2a5 rtthread.arm.lib(fsl_sema42.o)
 .debug_abbrev  0x0000000000001808      0x316 rtthread.arm.lib(fsl_mu.o)
 .debug_abbrev  0x0000000000001b1e      0x2cf rtthread.arm.lib(idle.o)
 .debug_abbrev  0x0000000000001ded      0x220 rtthread.arm.lib(cpu.o)
 .debug_abbrev  0x000000000000200d      0x2d3 rtthread.arm.lib(timer.o)
 .debug_abbrev  0x00000000000022e0      0x293 rtthread.arm.lib(object.o)
 .debug_abbrev  0x0000000000002573      0x1cf rtthread.arm.lib(clock.o)
 .debug_abbrev  0x0000000000002742      0x40d rtthread.arm.lib(kservice.o)
 .debug_abbrev  0x0000000000002b4f      0x26e rtthread.arm.lib(ipc.o)
 .debug_abbrev  0x0000000000002dbd      0x22c rtthread.arm.lib(device.o)
 .debug_abbrev  0x0000000000002fe9      0x2ca rtthread.arm.lib(scheduler.o)
 .debug_abbrev  0x00000000000032b3      0x27d rtthread.arm.lib(thread.o)
 .debug_abbrev  0x0000000000003530      0x174 rtthread.arm.lib(irq.o)
 .debug_abbrev  0x00000000000036a4      0x1b2 rtthread.arm.lib(cpuport.o)
 .debug_abbrev  0x0000000000003856       0x14 rtthread.arm.lib(context_gcc.o)
 .debug_abbrev  0x000000000000386a      0x376 rtthread.arm.lib(serial.o)
 .debug_abbrev  0x0000000000003be0      0x385 rtthread.arm.lib(shell.o)
 .debug_abbrev  0x0000000000003f65      0x363 rtthread.arm.lib(msh.o)
 .debug_abbrev  0x00000000000042c8      0x345 rtthread.arm.lib(cmd.o)
 .debug_abbrev  0x000000000000460d      0x33d rtthread.arm.lib(ulog.o)
 .debug_abbrev  0x000000000000494a      0x297 rtthread.arm.lib(main.o)
 .debug_abbrev  0x0000000000004be1      0x1af rtthread.arm.lib(pin_mux.o)
 .debug_abbrev  0x0000000000004d90      0x266 rtthread.arm.lib(mem.o)
 .debug_abbrev  0x0000000000004ff6      0x313 rtthread.arm.lib(dfs_posix.o)
 .debug_abbrev  0x0000000000005309      0x2f4 rtthread.arm.lib(dfs_fs.o)
 .debug_abbrev  0x00000000000055fd      0x39b rtthread.arm.lib(dfs.o)
 .debug_abbrev  0x0000000000005998      0x337 rtthread.arm.lib(dfs_file.o)
 .debug_abbrev  0x0000000000005ccf      0x205 rtthread.arm.lib(completion.o)
 .debug_abbrev  0x0000000000005ed4      0x23a rtthread.arm.lib(waitqueue.o)
 .debug_abbrev  0x000000000000610e      0x35f rtthread.arm.lib(msh_file.o)
 .debug_abbrev  0x000000000000646d      0x12f rtthread.arm.lib(delay.o)
 .debug_abbrev  0x000000000000659c      0x260 rtthread.arm.lib(libc.o)
 .debug_abbrev  0x00000000000067fc      0x305 rtthread.arm.lib(semaphore.o)
 .debug_abbrev  0x0000000000006b01      0x37b rtthread.arm.lib(pthread.o)
 .debug_abbrev  0x0000000000006e7c      0x25c rtthread.arm.lib(pthread_tls.o)
 .debug_abbrev  0x00000000000070d8      0x1ce rtthread.arm.lib(console_be.o)
 .debug_abbrev  0x00000000000072a6      0x22c rtthread.arm.lib(pthread_attr.o)
 .debug_abbrev  0x00000000000074d2      0x25b rtthread.risc-v.lib(main.o)
 .debug_abbrev  0x000000000000772d      0x46e rtthread.risc-v.lib(board.o)
 .debug_abbrev  0x0000000000007b9b      0x1c0 rtthread.risc-v.lib(mnt.o)
 .debug_abbrev  0x0000000000007d5b      0x334 rtthread.risc-v.lib(clock_config.o)
 .debug_abbrev  0x000000000000808f      0x2bb rtthread.risc-v.lib(pin_mux.o)
 .debug_abbrev  0x000000000000834a      0x181 rtthread.risc-v.lib(startup.o)
 .debug_abbrev  0x00000000000084cb      0x345 rtthread.risc-v.lib(drv_uart.o)
 .debug_abbrev  0x0000000000008810      0x2ae rtthread.risc-v.lib(drv_sdcard.o)
 .debug_abbrev  0x0000000000008abe      0x382 rtthread.risc-v.lib(system_RV32M1_ri5cy.o)
 .debug_abbrev  0x0000000000008e40      0x347 rtthread.risc-v.lib(fsl_lpuart.o)
 .debug_abbrev  0x0000000000009187      0x242 rtthread.risc-v.lib(fsl_msmc.o)
 .debug_abbrev  0x00000000000093c9      0x324 rtthread.risc-v.lib(fsl_xrdc.o)
 .debug_abbrev  0x00000000000096ed      0x19d rtthread.risc-v.lib(fsl_common.o)
 .debug_abbrev  0x000000000000988a      0x331 rtthread.risc-v.lib(fsl_clock.o)
 .debug_abbrev  0x0000000000009bbb      0x245 rtthread.risc-v.lib(fsl_gpio.o)
 .debug_abbrev  0x0000000000009e00      0x24c rtthread.risc-v.lib(fsl_sema42.o)
 .debug_abbrev  0x000000000000a04c      0x2e7 rtthread.risc-v.lib(fsl_mu.o)
 .debug_abbrev  0x000000000000a333      0x2e9 rtthread.risc-v.lib(fsl_sd.o)
 .debug_abbrev  0x000000000000a61c      0x28d rtthread.risc-v.lib(fsl_sdmmc.o)
 .debug_abbrev  0x000000000000a8a9      0x295 rtthread.risc-v.lib(idle.o)
 .debug_abbrev  0x000000000000ab3e      0x290 rtthread.risc-v.lib(scheduler.o)
 .debug_abbrev  0x000000000000adce      0x23c rtthread.risc-v.lib(ipc.o)
 .debug_abbrev  0x000000000000b00a      0x115 rtthread.risc-v.lib(components.o)
 .debug_abbrev  0x000000000000b11f      0x1ab rtthread.risc-v.lib(clock.o)
 .debug_abbrev  0x000000000000b2ca      0x1f4 rtthread.risc-v.lib(cpu.o)
 .debug_abbrev  0x000000000000b4be      0x3ac rtthread.risc-v.lib(kservice.o)
 .debug_abbrev  0x000000000000b86a      0x24b rtthread.risc-v.lib(thread.o)
 .debug_abbrev  0x000000000000bab5      0x234 rtthread.risc-v.lib(mem.o)
 .debug_abbrev  0x000000000000bce9      0x204 rtthread.risc-v.lib(device.o)
 .debug_abbrev  0x000000000000beed      0x299 rtthread.risc-v.lib(timer.o)
 .debug_abbrev  0x000000000000c186      0x25f rtthread.risc-v.lib(object.o)
 .debug_abbrev  0x000000000000c3e5      0x154 rtthread.risc-v.lib(cpuport.o)
 .debug_abbrev  0x000000000000c539       0x14 rtthread.risc-v.lib(context_gcc.o)
 .debug_abbrev  0x000000000000c54d      0x2b6 rtthread.risc-v.lib(dfs_fs.o)
 .debug_abbrev  0x000000000000c803      0x34d rtthread.risc-v.lib(dfs.o)
 .debug_abbrev  0x000000000000cb50      0x2f3 rtthread.risc-v.lib(dfs_file.o)
 .debug_abbrev  0x000000000000ce43      0x2a7 rtthread.risc-v.lib(devfs.o)
 .debug_abbrev  0x000000000000d0ea      0x3a5 rtthread.risc-v.lib(dfs_elm.o)
 .debug_abbrev  0x000000000000d48f      0x32e rtthread.risc-v.lib(serial.o)
 .debug_abbrev  0x000000000000d7bd      0x34c rtthread.risc-v.lib(shell.o)
 .debug_abbrev  0x000000000000db09      0x31b rtthread.risc-v.lib(msh.o)
 .debug_abbrev  0x000000000000de24      0x2ff rtthread.risc-v.lib(cmd.o)
 .debug_abbrev  0x000000000000e123      0x305 rtthread.risc-v.lib(time.o)
 .debug_abbrev  0x000000000000e428      0x119 rtthread.risc-v.lib(delay.o)
 .debug_abbrev  0x000000000000e541      0x23f rtthread.risc-v.lib(libc.o)
 .debug_abbrev  0x000000000000e780      0x2b2 rtthread.risc-v.lib(semaphore.o)
 .debug_abbrev  0x000000000000ea32      0x331 rtthread.risc-v.lib(pthread.o)
 .debug_abbrev  0x000000000000ed63      0x200 rtthread.risc-v.lib(pthread_attr.o)
 .debug_abbrev  0x000000000000ef63      0x317 rtthread.risc-v.lib(ulog.o)
 .debug_abbrev  0x000000000000f27a      0x2b0 rtthread.risc-v.lib(fsl_host.o)
 .debug_abbrev  0x000000000000f52a      0x332 rtthread.risc-v.lib(fsl_usdhc.o)
 .debug_abbrev  0x000000000000f85c      0x158 rtthread.risc-v.lib(irq.o)
 .debug_abbrev  0x000000000000f9b4      0x2c0 rtthread.risc-v.lib(dfs_posix.o)
 .debug_abbrev  0x000000000000fc74      0x2db rtthread.risc-v.lib(ff.o)
 .debug_abbrev  0x000000000000ff4f      0x117 rtthread.risc-v.lib(ffunicode.o)
 .debug_abbrev  0x0000000000010066      0x1dd rtthread.risc-v.lib(completion.o)
 .debug_abbrev  0x0000000000010243      0x20c rtthread.risc-v.lib(waitqueue.o)
 .debug_abbrev  0x000000000001044f      0x315 rtthread.risc-v.lib(msh_file.o)
 .debug_abbrev  0x0000000000010764      0x22a rtthread.risc-v.lib(pthread_tls.o)
 .debug_abbrev  0x000000000001098e      0x1bd rtthread.risc-v.lib(console_be.o)
 .debug_abbrev  0x0000000000010b4b      0x1de build/risc-v/libgcc.a(_bswapsi2.o)
 .debug_abbrev  0x0000000000010d29      0x158 build/risc-v/libgcc.a(floatsidf.o)
 .debug_abbrev  0x0000000000010e81      0x210 build/risc-v/libgcc.a(_clzsi2.o)
 .debug_abbrev  0x0000000000011091      0x1be build/risc-v/libgcc.a(_clz.o)
 .debug_abbrev  0x000000000001124f      0x351 rtthread.arm.lib(syscalls.o)
 .debug_abbrev  0x00000000000115a0      0x30b rtthread.risc-v.lib(syscalls.o)
 .debug_abbrev  0x00000000000118ab      0x145 rtthread.risc-v.lib(stdlib.o)

.debug_line     0x0000000000000000    0x3adc2
 *(.debug_line)
 .debug_line    0x0000000000000000      0x121 startup_RV32M1_cm0.o
 .debug_line    0x0000000000000121      0x33a startup_RV32M1_ri5cy.o
 .debug_line    0x000000000000045b      0x342 rtthread.arm.lib(startup.o)
 .debug_line    0x000000000000079d      0x8cd rtthread.arm.lib(board.o)
 .debug_line    0x000000000000106a      0x725 rtthread.arm.lib(drv_uart.o)
 .debug_line    0x000000000000178f      0xea0 rtthread.arm.lib(fsl_lpuart.o)
 .debug_line    0x000000000000262f      0xa21 rtthread.arm.lib(fsl_clock.o)
 .debug_line    0x0000000000003050      0x406 rtthread.arm.lib(system_RV32M1_cm0plus.o)
 .debug_line    0x0000000000003456      0x344 rtthread.arm.lib(fsl_sema42.o)
 .debug_line    0x000000000000379a      0x472 rtthread.arm.lib(fsl_mu.o)
 .debug_line    0x0000000000003c0c      0x48d rtthread.arm.lib(idle.o)
 .debug_line    0x0000000000004099      0x3c0 rtthread.arm.lib(cpu.o)
 .debug_line    0x0000000000004459      0x76e rtthread.arm.lib(timer.o)
 .debug_line    0x0000000000004bc7      0x5f3 rtthread.arm.lib(object.o)
 .debug_line    0x00000000000051ba      0x349 rtthread.arm.lib(clock.o)
 .debug_line    0x0000000000005503      0xf6d rtthread.arm.lib(kservice.o)
 .debug_line    0x0000000000006470     0x1424 rtthread.arm.lib(ipc.o)
 .debug_line    0x0000000000007894      0x637 rtthread.arm.lib(device.o)
 .debug_line    0x0000000000007ecb      0x7f9 rtthread.arm.lib(scheduler.o)
 .debug_line    0x00000000000086c4      0x7cb rtthread.arm.lib(thread.o)
 .debug_line    0x0000000000008e8f      0x2dc rtthread.arm.lib(irq.o)
 .debug_line    0x000000000000916b      0x2eb rtthread.arm.lib(cpuport.o)
 .debug_line    0x0000000000009456      0x109 rtthread.arm.lib(context_gcc.o)
 .debug_line    0x000000000000955f      0xe6b rtthread.arm.lib(serial.o)
 .debug_line    0x000000000000a3ca      0x83a rtthread.arm.lib(shell.o)
 .debug_line    0x000000000000ac04      0x7ce rtthread.arm.lib(msh.o)
 .debug_line    0x000000000000b3d2      0x9a6 rtthread.arm.lib(cmd.o)
 .debug_line    0x000000000000bd78      0xb0a rtthread.arm.lib(ulog.o)
 .debug_line    0x000000000000c882      0x671 rtthread.arm.lib(main.o)
 .debug_line    0x000000000000cef3      0x21c rtthread.arm.lib(pin_mux.o)
 .debug_line    0x000000000000d10f      0x6cb rtthread.arm.lib(mem.o)
 .debug_line    0x000000000000d7da      0xa00 rtthread.arm.lib(dfs_posix.o)
 .debug_line    0x000000000000e1da      0x9d9 rtthread.arm.lib(dfs_fs.o)
 .debug_line    0x000000000000ebb3      0xa82 rtthread.arm.lib(dfs.o)
 .debug_line    0x000000000000f635      0xada rtthread.arm.lib(dfs_file.o)
 .debug_line    0x000000000001010f      0x3f9 rtthread.arm.lib(completion.o)
 .debug_line    0x0000000000010508      0x47c rtthread.arm.lib(waitqueue.o)
 .debug_line    0x0000000000010984      0xaf8 rtthread.arm.lib(msh_file.o)
 .debug_line    0x000000000001147c      0x2b8 rtthread.arm.lib(delay.o)
 .debug_line    0x0000000000011734      0x3c6 rtthread.arm.lib(libc.o)
 .debug_line    0x0000000000011afa      0x667 rtthread.arm.lib(semaphore.o)
 .debug_line    0x0000000000012161      0xa26 rtthread.arm.lib(pthread.o)
 .debug_line    0x0000000000012b87      0x43a rtthread.arm.lib(pthread_tls.o)
 .debug_line    0x0000000000012fc1      0x309 rtthread.arm.lib(console_be.o)
 .debug_line    0x00000000000132ca      0x564 rtthread.arm.lib(pthread_attr.o)
 .debug_line    0x000000000001382e      0x85d rtthread.risc-v.lib(main.o)
 .debug_line    0x000000000001408b      0xd64 rtthread.risc-v.lib(board.o)
 .debug_line    0x0000000000014def      0x2a5 rtthread.risc-v.lib(mnt.o)
 .debug_line    0x0000000000015094      0x51c rtthread.risc-v.lib(clock_config.o)
 .debug_line    0x00000000000155b0      0x3c0 rtthread.risc-v.lib(pin_mux.o)
 .debug_line    0x0000000000015970      0x366 rtthread.risc-v.lib(startup.o)
 .debug_line    0x0000000000015cd6      0x80e rtthread.risc-v.lib(drv_uart.o)
 .debug_line    0x00000000000164e4      0x6a0 rtthread.risc-v.lib(drv_sdcard.o)
 .debug_line    0x0000000000016b84      0x8d5 rtthread.risc-v.lib(system_RV32M1_ri5cy.o)
 .debug_line    0x0000000000017459     0x132f rtthread.risc-v.lib(fsl_lpuart.o)
 .debug_line    0x0000000000018788      0x57e rtthread.risc-v.lib(fsl_msmc.o)
 .debug_line    0x0000000000018d06      0x7cc rtthread.risc-v.lib(fsl_xrdc.o)
 .debug_line    0x00000000000194d2      0x2c7 rtthread.risc-v.lib(fsl_common.o)
 .debug_line    0x0000000000019799      0xd24 rtthread.risc-v.lib(fsl_clock.o)
 .debug_line    0x000000000001a4bd      0x38a rtthread.risc-v.lib(fsl_gpio.o)
 .debug_line    0x000000000001a847      0x44d rtthread.risc-v.lib(fsl_sema42.o)
 .debug_line    0x000000000001ac94      0x557 rtthread.risc-v.lib(fsl_mu.o)
 .debug_line    0x000000000001b1eb     0x1adf rtthread.risc-v.lib(fsl_sd.o)
 .debug_line    0x000000000001ccca      0x7bb rtthread.risc-v.lib(fsl_sdmmc.o)
 .debug_line    0x000000000001d485      0x593 rtthread.risc-v.lib(idle.o)
 .debug_line    0x000000000001da18      0x979 rtthread.risc-v.lib(scheduler.o)
 .debug_line    0x000000000001e391     0x1dfb rtthread.risc-v.lib(ipc.o)
 .debug_line    0x000000000002018c      0x281 rtthread.risc-v.lib(components.o)
 .debug_line    0x000000000002040d      0x3d0 rtthread.risc-v.lib(clock.o)
 .debug_line    0x00000000000207dd      0x4a5 rtthread.risc-v.lib(cpu.o)
 .debug_line    0x0000000000020c82     0x1383 rtthread.risc-v.lib(kservice.o)
 .debug_line    0x0000000000022005      0xb10 rtthread.risc-v.lib(thread.o)
 .debug_line    0x0000000000022b15      0x845 rtthread.risc-v.lib(mem.o)
 .debug_line    0x000000000002335a      0x83b rtthread.risc-v.lib(device.o)
 .debug_line    0x0000000000023b95      0x9c6 rtthread.risc-v.lib(timer.o)
 .debug_line    0x000000000002455b      0x7f7 rtthread.risc-v.lib(object.o)
 .debug_line    0x0000000000024d52      0x352 rtthread.risc-v.lib(cpuport.o)
 .debug_line    0x00000000000250a4      0x2af rtthread.risc-v.lib(context_gcc.o)
 .debug_line    0x0000000000025353      0xba7 rtthread.risc-v.lib(dfs_fs.o)
 .debug_line    0x0000000000025efa      0xc43 rtthread.risc-v.lib(dfs.o)
 .debug_line    0x0000000000026b3d      0xddc rtthread.risc-v.lib(dfs_file.o)
 .debug_line    0x0000000000027919      0x9a5 rtthread.risc-v.lib(devfs.o)
 .debug_line    0x00000000000282be     0x11e6 rtthread.risc-v.lib(dfs_elm.o)
 .debug_line    0x00000000000294a4     0x119b rtthread.risc-v.lib(serial.o)
 .debug_line    0x000000000002a63f      0x8ff rtthread.risc-v.lib(shell.o)
 .debug_line    0x000000000002af3e      0xa11 rtthread.risc-v.lib(msh.o)
 .debug_line    0x000000000002b94f      0xd0c rtthread.risc-v.lib(cmd.o)
 .debug_line    0x000000000002c65b      0xb6e rtthread.risc-v.lib(time.o)
 .debug_line    0x000000000002d1c9      0x329 rtthread.risc-v.lib(delay.o)
 .debug_line    0x000000000002d4f2      0x4a3 rtthread.risc-v.lib(libc.o)
 .debug_line    0x000000000002d995      0x88e rtthread.risc-v.lib(semaphore.o)
 .debug_line    0x000000000002e223      0xd5a rtthread.risc-v.lib(pthread.o)
 .debug_line    0x000000000002ef7d      0x6e5 rtthread.risc-v.lib(pthread_attr.o)
 .debug_line    0x000000000002f662      0xd36 rtthread.risc-v.lib(ulog.o)
 .debug_line    0x0000000000030398      0x466 rtthread.risc-v.lib(fsl_host.o)
 .debug_line    0x00000000000307fe     0x1691 rtthread.risc-v.lib(fsl_usdhc.o)
 .debug_line    0x0000000000031e8f      0x36e rtthread.risc-v.lib(irq.o)
 .debug_line    0x00000000000321fd      0xd9f rtthread.risc-v.lib(dfs_posix.o)
 .debug_line    0x0000000000032f9c     0x400c rtthread.risc-v.lib(ff.o)
 .debug_line    0x0000000000036fa8      0x454 rtthread.risc-v.lib(ffunicode.o)
 .debug_line    0x00000000000373fc      0x4e2 rtthread.risc-v.lib(completion.o)
 .debug_line    0x00000000000378de      0x566 rtthread.risc-v.lib(waitqueue.o)
 .debug_line    0x0000000000037e44      0xde5 rtthread.risc-v.lib(msh_file.o)
 .debug_line    0x0000000000038c29      0x514 rtthread.risc-v.lib(pthread_tls.o)
 .debug_line    0x000000000003913d      0x386 rtthread.risc-v.lib(console_be.o)
 .debug_line    0x00000000000394c3      0x27a build/risc-v/libgcc.a(_bswapsi2.o)
 .debug_line    0x000000000003973d      0x149 build/risc-v/libgcc.a(floatsidf.o)
 .debug_line    0x0000000000039886      0x281 build/risc-v/libgcc.a(_clzsi2.o)
 .debug_line    0x0000000000039b07      0x239 build/risc-v/libgcc.a(_clz.o)
 .debug_line    0x0000000000039d40      0x620 rtthread.arm.lib(syscalls.o)
 .debug_line    0x000000000003a360      0x793 rtthread.risc-v.lib(syscalls.o)
 .debug_line    0x000000000003aaf3      0x2cf rtthread.risc-v.lib(stdlib.o)

.debug_frame    0x0000000000000000    0x14828
 *(.debug_frame)
 .debug_frame   0x0000000000000000       0x88 rtthread.arm.lib(startup.o)
 .debug_frame   0x0000000000000088      0x3a0 rtthread.arm.lib(board.o)
 .debug_frame   0x0000000000000428      0x1ec rtthread.arm.lib(drv_uart.o)
 .debug_frame   0x0000000000000614      0x484 rtthread.arm.lib(fsl_lpuart.o)
 .debug_frame   0x0000000000000a98      0x3c0 rtthread.arm.lib(fsl_clock.o)
 .debug_frame   0x0000000000000e58      0x104 rtthread.arm.lib(system_RV32M1_cm0plus.o)
 .debug_frame   0x0000000000000f5c      0x110 rtthread.arm.lib(fsl_sema42.o)
 .debug_frame   0x000000000000106c      0x1b0 rtthread.arm.lib(fsl_mu.o)
 .debug_frame   0x000000000000121c      0x170 rtthread.arm.lib(idle.o)
 .debug_frame   0x000000000000138c      0x18c rtthread.arm.lib(cpu.o)
 .debug_frame   0x0000000000001518      0x28c rtthread.arm.lib(timer.o)
 .debug_frame   0x00000000000017a4      0x230 rtthread.arm.lib(object.o)
 .debug_frame   0x00000000000019d4       0xc8 rtthread.arm.lib(clock.o)
 .debug_frame   0x0000000000001a9c      0x5e4 rtthread.arm.lib(kservice.o)
 .debug_frame   0x0000000000002080      0x610 rtthread.arm.lib(ipc.o)
 .debug_frame   0x0000000000002690      0x1f0 rtthread.arm.lib(device.o)
 .debug_frame   0x0000000000002880      0x250 rtthread.arm.lib(scheduler.o)
 .debug_frame   0x0000000000002ad0      0x2f0 rtthread.arm.lib(thread.o)
 .debug_frame   0x0000000000002dc0       0xb0 rtthread.arm.lib(irq.o)
 .debug_frame   0x0000000000002e70       0x6c rtthread.arm.lib(cpuport.o)
 .debug_frame   0x0000000000002edc      0x2cc rtthread.arm.lib(serial.o)
 .debug_frame   0x00000000000031a8      0x1a8 rtthread.arm.lib(shell.o)
 .debug_frame   0x0000000000003350      0x150 rtthread.arm.lib(msh.o)
 .debug_frame   0x00000000000034a0      0x24c rtthread.arm.lib(cmd.o)
 .debug_frame   0x00000000000036ec      0x32c rtthread.arm.lib(ulog.o)
 .debug_frame   0x0000000000003a18       0xb8 rtthread.arm.lib(main.o)
 .debug_frame   0x0000000000003ad0       0x48 rtthread.arm.lib(pin_mux.o)
 .debug_frame   0x0000000000003b18       0xd0 rtthread.arm.lib(mem.o)
 .debug_frame   0x0000000000003be8      0x350 rtthread.arm.lib(dfs_posix.o)
 .debug_frame   0x0000000000003f38      0x158 rtthread.arm.lib(dfs_fs.o)
 .debug_frame   0x0000000000004090      0x18c rtthread.arm.lib(dfs.o)
 .debug_frame   0x000000000000421c      0x278 rtthread.arm.lib(dfs_file.o)
 .debug_frame   0x0000000000004494       0xd0 rtthread.arm.lib(completion.o)
 .debug_frame   0x0000000000004564      0x130 rtthread.arm.lib(waitqueue.o)
 .debug_frame   0x0000000000004694      0x230 rtthread.arm.lib(msh_file.o)
 .debug_frame   0x00000000000048c4       0xf0 rtthread.arm.lib(delay.o)
 .debug_frame   0x00000000000049b4       0x8c rtthread.arm.lib(libc.o)
 .debug_frame   0x0000000000004a40      0x1cc rtthread.arm.lib(semaphore.o)
 .debug_frame   0x0000000000004c0c      0x350 rtthread.arm.lib(pthread.o)
 .debug_frame   0x0000000000004f5c       0xac rtthread.arm.lib(pthread_tls.o)
 .debug_frame   0x0000000000005008       0x4c rtthread.arm.lib(console_be.o)
 .debug_frame   0x0000000000005054      0x290 rtthread.arm.lib(pthread_attr.o)
 .debug_frame   0x00000000000052e4       0xc4 rtthread.risc-v.lib(main.o)
 .debug_frame   0x00000000000053a8      0x7ec rtthread.risc-v.lib(board.o)
 .debug_frame   0x0000000000005b94       0x4c rtthread.risc-v.lib(mnt.o)
 .debug_frame   0x0000000000005be0      0x294 rtthread.risc-v.lib(clock_config.o)
 .debug_frame   0x0000000000005e74      0x134 rtthread.risc-v.lib(pin_mux.o)
 .debug_frame   0x0000000000005fa8      0x100 rtthread.risc-v.lib(startup.o)
 .debug_frame   0x00000000000060a8      0x2f4 rtthread.risc-v.lib(drv_uart.o)
 .debug_frame   0x000000000000639c      0x1d8 rtthread.risc-v.lib(drv_sdcard.o)
 .debug_frame   0x0000000000006574      0x9b8 rtthread.risc-v.lib(system_RV32M1_ri5cy.o)
 .debug_frame   0x0000000000006f2c      0x80c rtthread.risc-v.lib(fsl_lpuart.o)
 .debug_frame   0x0000000000007738      0x254 rtthread.risc-v.lib(fsl_msmc.o)
 .debug_frame   0x000000000000798c      0x45c rtthread.risc-v.lib(fsl_xrdc.o)
 .debug_frame   0x0000000000007de8       0x38 rtthread.risc-v.lib(fsl_common.o)
 .debug_frame   0x0000000000007e20      0x714 rtthread.risc-v.lib(fsl_clock.o)
 .debug_frame   0x0000000000008534      0x134 rtthread.risc-v.lib(fsl_gpio.o)
 .debug_frame   0x0000000000008668      0x1f0 rtthread.risc-v.lib(fsl_sema42.o)
 .debug_frame   0x0000000000008858      0x2fc rtthread.risc-v.lib(fsl_mu.o)
 .debug_frame   0x0000000000008b54      0x878 rtthread.risc-v.lib(fsl_sd.o)
 .debug_frame   0x00000000000093cc      0x2c0 rtthread.risc-v.lib(fsl_sdmmc.o)
 .debug_frame   0x000000000000968c      0x274 rtthread.risc-v.lib(idle.o)
 .debug_frame   0x0000000000009900      0x418 rtthread.risc-v.lib(scheduler.o)
 .debug_frame   0x0000000000009d18      0xb38 rtthread.risc-v.lib(ipc.o)
 .debug_frame   0x000000000000a850      0x158 rtthread.risc-v.lib(components.o)
 .debug_frame   0x000000000000a9a8      0x168 rtthread.risc-v.lib(clock.o)
 .debug_frame   0x000000000000ab10      0x2d8 rtthread.risc-v.lib(cpu.o)
 .debug_frame   0x000000000000ade8      0xa7c rtthread.risc-v.lib(kservice.o)
 .debug_frame   0x000000000000b864      0x54c rtthread.risc-v.lib(thread.o)
 .debug_frame   0x000000000000bdb0      0x178 rtthread.risc-v.lib(mem.o)
 .debug_frame   0x000000000000bf28      0x38c rtthread.risc-v.lib(device.o)
 .debug_frame   0x000000000000c2b4      0x488 rtthread.risc-v.lib(timer.o)
 .debug_frame   0x000000000000c73c      0x3cc rtthread.risc-v.lib(object.o)
 .debug_frame   0x000000000000cb08       0x80 rtthread.risc-v.lib(cpuport.o)
 .debug_frame   0x000000000000cb88      0x2b8 rtthread.risc-v.lib(dfs_fs.o)
 .debug_frame   0x000000000000ce40      0x2f0 rtthread.risc-v.lib(dfs.o)
 .debug_frame   0x000000000000d130      0x4a4 rtthread.risc-v.lib(dfs_file.o)
 .debug_frame   0x000000000000d5d4      0x258 rtthread.risc-v.lib(devfs.o)
 .debug_frame   0x000000000000d82c      0x6f8 rtthread.risc-v.lib(dfs_elm.o)
 .debug_frame   0x000000000000df24      0x540 rtthread.risc-v.lib(serial.o)
 .debug_frame   0x000000000000e464      0x308 rtthread.risc-v.lib(shell.o)
 .debug_frame   0x000000000000e76c      0x268 rtthread.risc-v.lib(msh.o)
 .debug_frame   0x000000000000e9d4      0x45c rtthread.risc-v.lib(cmd.o)
 .debug_frame   0x000000000000ee30      0x6cc rtthread.risc-v.lib(time.o)
 .debug_frame   0x000000000000f4fc      0x1b4 rtthread.risc-v.lib(delay.o)
 .debug_frame   0x000000000000f6b0      0x100 rtthread.risc-v.lib(libc.o)
 .debug_frame   0x000000000000f7b0      0x350 rtthread.risc-v.lib(semaphore.o)
 .debug_frame   0x000000000000fb00      0x620 rtthread.risc-v.lib(pthread.o)
 .debug_frame   0x0000000000010120      0x4a0 rtthread.risc-v.lib(pthread_attr.o)
 .debug_frame   0x00000000000105c0      0x5c4 rtthread.risc-v.lib(ulog.o)
 .debug_frame   0x0000000000010b84      0x20c rtthread.risc-v.lib(fsl_host.o)
 .debug_frame   0x0000000000010d90      0x9bc rtthread.risc-v.lib(fsl_usdhc.o)
 .debug_frame   0x000000000001174c      0x12c rtthread.risc-v.lib(irq.o)
 .debug_frame   0x0000000000011878      0x628 rtthread.risc-v.lib(dfs_posix.o)
 .debug_frame   0x0000000000011ea0      0xe58 rtthread.risc-v.lib(ff.o)
 .debug_frame   0x0000000000012cf8       0xac rtthread.risc-v.lib(ffunicode.o)
 .debug_frame   0x0000000000012da4      0x160 rtthread.risc-v.lib(completion.o)
 .debug_frame   0x0000000000012f04      0x204 rtthread.risc-v.lib(waitqueue.o)
 .debug_frame   0x0000000000013108      0x41c rtthread.risc-v.lib(msh_file.o)
 .debug_frame   0x0000000000013524      0x13c rtthread.risc-v.lib(pthread_tls.o)
 .debug_frame   0x0000000000013660       0x88 rtthread.risc-v.lib(console_be.o)
 .debug_frame   0x00000000000136e8       0x40 build/arm/libc.a(lib_a-atoi.o)
 .debug_frame   0x0000000000013728       0x48 build/arm/libc.a(lib_a-fclose.o)
 .debug_frame   0x0000000000013770       0x68 build/arm/libc.a(lib_a-fflush.o)
 .debug_frame   0x00000000000137d8       0x2c build/arm/libc.a(lib_a-fileno.o)
 .debug_frame   0x0000000000013804      0x174 build/arm/libc.a(lib_a-findfp.o)
 .debug_frame   0x0000000000013978       0x5c build/arm/libc.a(lib_a-fwalk.o)
 .debug_frame   0x00000000000139d4       0xb0 build/arm/libc.a(lib_a-lock.o)
 .debug_frame   0x0000000000013a84       0x30 build/arm/libc.a(lib_a-memset.o)
 .debug_frame   0x0000000000013ab4       0x48 build/arm/libc.a(lib_a-reent.o)
 .debug_frame   0x0000000000013afc       0x90 build/arm/libc.a(lib_a-stdio.o)
 .debug_frame   0x0000000000013b8c       0x20 build/arm/libc.a(lib_a-strcmp.o)
 .debug_frame   0x0000000000013bac       0x28 build/arm/libc.a(lib_a-strlen-stub.o)
 .debug_frame   0x0000000000013bd4       0x2c build/arm/libc.a(lib_a-strncmp.o)
 .debug_frame   0x0000000000013c00       0x30 build/arm/libc.a(lib_a-strncpy.o)
 .debug_frame   0x0000000000013c30       0x2c build/arm/libc.a(lib_a-strrchr.o)
 .debug_frame   0x0000000000013c5c       0x84 build/arm/libc.a(lib_a-strtol.o)
 .debug_frame   0x0000000000013ce0       0x2c build/arm/libc.a(lib_a-closer.o)
 .debug_frame   0x0000000000013d0c       0x20 build/arm/libc.a(lib_a-errno.o)
 .debug_frame   0x0000000000013d2c       0x30 build/arm/libc.a(lib_a-strchr.o)
 .debug_frame   0x0000000000013d5c       0x20 build/arm/libgcc.a(_udivsi3.o)
 .debug_frame   0x0000000000013d7c       0x20 build/arm/libgcc.a(_divsi3.o)
 .debug_frame   0x0000000000013d9c       0x34 build/arm/libgcc.a(_muldi3.o)
 .debug_frame   0x0000000000013dd0       0x20 build/arm/libnosys.a(close.o)
 .debug_frame   0x0000000000013df0       0x20 build/risc-v/libgcc.a(_bswapsi2.o)
 .debug_frame   0x0000000000013e10       0x54 build/risc-v/libgcc.a(floatsidf.o)
 .debug_frame   0x0000000000013e64       0x20 build/risc-v/libgcc.a(_clzsi2.o)
 .debug_frame   0x0000000000013e84      0x368 rtthread.arm.lib(syscalls.o)
 .debug_frame   0x00000000000141ec      0x5f0 rtthread.risc-v.lib(syscalls.o)
 .debug_frame   0x00000000000147dc       0x4c rtthread.risc-v.lib(stdlib.o)

.debug_str      0x0000000000000000    0x106ba
 *(.debug_str)
 .debug_str     0x0000000000000000       0x89 startup_RV32M1_cm0.o
 .debug_str     0x0000000000000089      0xf4b rtthread.arm.lib(startup.o)
                                       0x1115 (size before relaxing)
 .debug_str     0x0000000000000fd4     0x16cd rtthread.arm.lib(board.o)
                                       0x2807 (size before relaxing)
 .debug_str     0x00000000000026a1      0xd71 rtthread.arm.lib(drv_uart.o)
                                       0x2af6 (size before relaxing)
 .debug_str     0x0000000000003412      0x7a5 rtthread.arm.lib(fsl_lpuart.o)
                                       0x2298 (size before relaxing)
 .debug_str     0x0000000000003bb7      0x9e8 rtthread.arm.lib(fsl_clock.o)
                                       0x1fde (size before relaxing)
 .debug_str     0x000000000000459f       0xc4 rtthread.arm.lib(system_RV32M1_cm0plus.o)
                                       0x1434 (size before relaxing)
 .debug_str     0x0000000000004663       0xe5 rtthread.arm.lib(fsl_sema42.o)
                                       0x1024 (size before relaxing)
 .debug_str     0x0000000000004748      0x16a rtthread.arm.lib(fsl_mu.o)
                                       0x11b3 (size before relaxing)
 .debug_str     0x00000000000048b2      0x1ef rtthread.arm.lib(idle.o)
                                        0x63b (size before relaxing)
 .debug_str     0x0000000000004aa1      0x129 rtthread.arm.lib(cpu.o)
                                        0x5d1 (size before relaxing)
 .debug_str     0x0000000000004bca      0x390 rtthread.arm.lib(timer.o)
                                        0x731 (size before relaxing)
 .debug_str     0x0000000000004f5a      0x319 rtthread.arm.lib(object.o)
                                        0x7e8 (size before relaxing)
 .debug_str     0x0000000000005273       0xc2 rtthread.arm.lib(clock.o)
                                        0x4c6 (size before relaxing)
 .debug_str     0x0000000000005335      0x491 rtthread.arm.lib(kservice.o)
                                        0xceb (size before relaxing)
 .debug_str     0x00000000000057c6      0x3e8 rtthread.arm.lib(ipc.o)
                                        0xa92 (size before relaxing)
 .debug_str     0x0000000000005bae      0x163 rtthread.arm.lib(device.o)
                                        0x94c (size before relaxing)
 .debug_str     0x0000000000005d11      0x22b rtthread.arm.lib(scheduler.o)
                                        0x779 (size before relaxing)
 .debug_str     0x0000000000005f3c      0x22b rtthread.arm.lib(thread.o)
                                        0x811 (size before relaxing)
 .debug_str     0x0000000000006167       0xe0 rtthread.arm.lib(irq.o)
                                        0x369 (size before relaxing)
 .debug_str     0x0000000000006247      0x107 rtthread.arm.lib(cpuport.o)
                                        0x4c1 (size before relaxing)
 .debug_str     0x000000000000634e       0x5b rtthread.arm.lib(context_gcc.o)
                                         0xb4 (size before relaxing)
 .debug_str     0x00000000000063a9      0x4ee rtthread.arm.lib(serial.o)
                                       0x1163 (size before relaxing)
 .debug_str     0x0000000000006897      0x191 rtthread.arm.lib(shell.o)
                                        0xa93 (size before relaxing)
 .debug_str     0x0000000000006a28      0x1c4 rtthread.arm.lib(msh.o)
                                        0x882 (size before relaxing)
 .debug_str     0x0000000000006bec      0x41c rtthread.arm.lib(cmd.o)
                                       0x12c2 (size before relaxing)
 .debug_str     0x0000000000007008      0x37b rtthread.arm.lib(ulog.o)
                                        0x873 (size before relaxing)
 .debug_str     0x0000000000007383      0x163 rtthread.arm.lib(main.o)
                                        0x8a2 (size before relaxing)
 .debug_str     0x00000000000074e6       0x50 rtthread.arm.lib(pin_mux.o)
                                        0x5c9 (size before relaxing)
 .debug_str     0x0000000000007536      0x11b rtthread.arm.lib(mem.o)
                                        0x64c (size before relaxing)
 .debug_str     0x0000000000007651      0x13f rtthread.arm.lib(dfs_posix.o)
                                        0xe30 (size before relaxing)
 .debug_str     0x0000000000007790      0x13a rtthread.arm.lib(dfs_fs.o)
                                        0xebc (size before relaxing)
 .debug_str     0x00000000000078ca      0x153 rtthread.arm.lib(dfs.o)
                                        0xfbf (size before relaxing)
 .debug_str     0x0000000000007a1d      0x1b9 rtthread.arm.lib(dfs_file.o)
                                        0xefe (size before relaxing)
 .debug_str     0x0000000000007bd6       0x91 rtthread.arm.lib(completion.o)
                                        0x520 (size before relaxing)
 .debug_str     0x0000000000007c67      0x10a rtthread.arm.lib(waitqueue.o)
                                        0x591 (size before relaxing)
 .debug_str     0x0000000000007d71      0x3d5 rtthread.arm.lib(msh_file.o)
                                       0x10a5 (size before relaxing)
 .debug_str     0x0000000000008146       0x9a rtthread.arm.lib(delay.o)
                                        0x316 (size before relaxing)
 .debug_str     0x00000000000081e0       0xb1 rtthread.arm.lib(libc.o)
                                        0xaff (size before relaxing)
 .debug_str     0x0000000000008291      0x13f rtthread.arm.lib(semaphore.o)
                                        0x922 (size before relaxing)
 .debug_str     0x00000000000083d0      0x415 rtthread.arm.lib(pthread.o)
                                        0xd84 (size before relaxing)
 .debug_str     0x00000000000087e5       0xbd rtthread.arm.lib(pthread_tls.o)
                                        0xa53 (size before relaxing)
 .debug_str     0x00000000000088a2       0x6c rtthread.arm.lib(console_be.o)
                                        0x79f (size before relaxing)
 .debug_str     0x000000000000890e      0x2bc rtthread.arm.lib(pthread_attr.o)
                                        0x979 (size before relaxing)
 .debug_str     0x0000000000008bca      0x204 rtthread.risc-v.lib(main.o)
                                        0x9e4 (size before relaxing)
 .debug_str     0x0000000000008dce     0x11bc rtthread.risc-v.lib(board.o)
                                       0x3883 (size before relaxing)
 .debug_str     0x0000000000009f8a       0x40 rtthread.risc-v.lib(mnt.o)
                                        0x644 (size before relaxing)
 .debug_str     0x0000000000009fca      0x54d rtthread.risc-v.lib(clock_config.o)
                                       0x1a7e (size before relaxing)
 .debug_str     0x000000000000a517      0x41b rtthread.risc-v.lib(pin_mux.o)
                                        0xd6c (size before relaxing)
 .debug_str     0x000000000000a932       0x2b rtthread.risc-v.lib(startup.o)
                                        0x459 (size before relaxing)
 .debug_str     0x000000000000a95d       0x1d rtthread.risc-v.lib(drv_uart.o)
                                       0x2270 (size before relaxing)
 .debug_str     0x000000000000a97a      0xc32 rtthread.risc-v.lib(drv_sdcard.o)
                                       0x215e (size before relaxing)
 .debug_str     0x000000000000b5ac      0x3a4 rtthread.risc-v.lib(system_RV32M1_ri5cy.o)
                                       0x185a (size before relaxing)
 .debug_str     0x000000000000b950       0x2f rtthread.risc-v.lib(fsl_lpuart.o)
                                       0x22db (size before relaxing)
 .debug_str     0x000000000000b97f      0x284 rtthread.risc-v.lib(fsl_msmc.o)
                                        0xa23 (size before relaxing)
 .debug_str     0x000000000000bc03      0x6ef rtthread.risc-v.lib(fsl_xrdc.o)
                                       0x226b (size before relaxing)
 .debug_str     0x000000000000c2f2       0x48 rtthread.risc-v.lib(fsl_common.o)
                                        0x5cd (size before relaxing)
 .debug_str     0x000000000000c33a       0x2e rtthread.risc-v.lib(fsl_clock.o)
                                       0x1ff6 (size before relaxing)
 .debug_str     0x000000000000c368       0xa4 rtthread.risc-v.lib(fsl_gpio.o)
                                        0xc4d (size before relaxing)
 .debug_str     0x000000000000c40c       0x2f rtthread.risc-v.lib(fsl_sema42.o)
                                       0x103c (size before relaxing)
 .debug_str     0x000000000000c43b       0x2b rtthread.risc-v.lib(fsl_mu.o)
                                       0x11cd (size before relaxing)
 .debug_str     0x000000000000c466     0x1b96 rtthread.risc-v.lib(fsl_sd.o)
                                       0x2d15 (size before relaxing)
 .debug_str     0x000000000000dffc       0xf1 rtthread.risc-v.lib(fsl_sdmmc.o)
                                       0x1e9c (size before relaxing)
 .debug_str     0x000000000000e0ed      0x62c rtthread.risc-v.lib(idle.o)
 .debug_str     0x000000000000e0ed      0x76a rtthread.risc-v.lib(scheduler.o)
 .debug_str     0x000000000000e0ed      0xa83 rtthread.risc-v.lib(ipc.o)
 .debug_str     0x000000000000e0ed       0xd0 rtthread.risc-v.lib(components.o)
                                        0x352 (size before relaxing)
 .debug_str     0x000000000000e1bd      0x4b7 rtthread.risc-v.lib(clock.o)
 .debug_str     0x000000000000e1bd      0x5c2 rtthread.risc-v.lib(cpu.o)
 .debug_str     0x000000000000e1bd       0x12 rtthread.risc-v.lib(kservice.o)
                                        0xcdf (size before relaxing)
 .debug_str     0x000000000000e1cf      0x802 rtthread.risc-v.lib(thread.o)
 .debug_str     0x000000000000e1cf      0x63d rtthread.risc-v.lib(mem.o)
 .debug_str     0x000000000000e1cf      0x93d rtthread.risc-v.lib(device.o)
 .debug_str     0x000000000000e1cf      0x722 rtthread.risc-v.lib(timer.o)
 .debug_str     0x000000000000e1cf      0x7d9 rtthread.risc-v.lib(object.o)
 .debug_str     0x000000000000e1cf       0x6b rtthread.risc-v.lib(cpuport.o)
                                        0x34c (size before relaxing)
 .debug_str     0x000000000000e23a       0x39 rtthread.risc-v.lib(dfs_fs.o)
                                        0xeb2 (size before relaxing)
 .debug_str     0x000000000000e273       0x13 rtthread.risc-v.lib(dfs.o)
                                        0xfd2 (size before relaxing)
 .debug_str     0x000000000000e286      0xef4 rtthread.risc-v.lib(dfs_file.o)
 .debug_str     0x000000000000e286      0x162 rtthread.risc-v.lib(devfs.o)
                                        0xfd3 (size before relaxing)
 .debug_str     0x000000000000e3e8      0x540 rtthread.risc-v.lib(dfs_elm.o)
                                       0x1444 (size before relaxing)
 .debug_str     0x000000000000e928     0x1159 rtthread.risc-v.lib(serial.o)
 .debug_str     0x000000000000e928       0x1c rtthread.risc-v.lib(shell.o)
                                        0xab6 (size before relaxing)
 .debug_str     0x000000000000e944      0x87f rtthread.risc-v.lib(msh.o)
 .debug_str     0x000000000000e944     0x12bf rtthread.risc-v.lib(cmd.o)
 .debug_str     0x000000000000e944      0x20f rtthread.risc-v.lib(time.o)
                                        0x972 (size before relaxing)
 .debug_str     0x000000000000eb53      0x307 rtthread.risc-v.lib(delay.o)
 .debug_str     0x000000000000eb53       0x1b rtthread.risc-v.lib(libc.o)
                                        0xb21 (size before relaxing)
 .debug_str     0x000000000000eb6e       0x20 rtthread.risc-v.lib(semaphore.o)
                                        0x93c (size before relaxing)
 .debug_str     0x000000000000eb8e      0xd81 rtthread.risc-v.lib(pthread.o)
 .debug_str     0x000000000000eb8e      0x976 rtthread.risc-v.lib(pthread_attr.o)
 .debug_str     0x000000000000eb8e       0x14 rtthread.risc-v.lib(ulog.o)
                                        0x885 (size before relaxing)
 .debug_str     0x000000000000eba2      0x217 rtthread.risc-v.lib(fsl_host.o)
                                       0x1728 (size before relaxing)
 .debug_str     0x000000000000edb9      0xe1e rtthread.risc-v.lib(fsl_usdhc.o)
                                       0x2cec (size before relaxing)
 .debug_str     0x000000000000fbd7      0x35a rtthread.risc-v.lib(irq.o)
 .debug_str     0x000000000000fbd7      0xe29 rtthread.risc-v.lib(dfs_posix.o)
 .debug_str     0x000000000000fbd7      0x3f7 rtthread.risc-v.lib(ff.o)
                                        0xed9 (size before relaxing)
 .debug_str     0x000000000000ffce       0x94 rtthread.risc-v.lib(ffunicode.o)
                                        0x2c4 (size before relaxing)
 .debug_str     0x0000000000010062      0x511 rtthread.risc-v.lib(completion.o)
 .debug_str     0x0000000000010062      0x582 rtthread.risc-v.lib(waitqueue.o)
 .debug_str     0x0000000000010062     0x109b rtthread.risc-v.lib(msh_file.o)
 .debug_str     0x0000000000010062       0x22 rtthread.risc-v.lib(pthread_tls.o)
                                        0xa7c (size before relaxing)
 .debug_str     0x0000000000010084       0x24 rtthread.risc-v.lib(console_be.o)
                                        0x7be (size before relaxing)
 .debug_str     0x00000000000100a8      0x2e1 build/risc-v/libgcc.a(_bswapsi2.o)
                                        0x7a2 (size before relaxing)
 .debug_str     0x0000000000010389      0x152 build/risc-v/libgcc.a(floatsidf.o)
                                        0x30d (size before relaxing)
 .debug_str     0x00000000000104db        0xe build/risc-v/libgcc.a(_clzsi2.o)
                                        0x7ad (size before relaxing)
 .debug_str     0x00000000000104e9      0x790 build/risc-v/libgcc.a(_clz.o)
 .debug_str     0x00000000000104e9      0x173 rtthread.arm.lib(syscalls.o)
                                        0xd2b (size before relaxing)
 .debug_str     0x000000000001065c      0xd18 rtthread.risc-v.lib(syscalls.o)
 .debug_str     0x000000000001065c       0x5e rtthread.risc-v.lib(stdlib.o)
                                        0x40d (size before relaxing)

.debug_loc      0x0000000000000000    0x16f9a
 *(.debug_loc)
 .debug_loc     0x0000000000000000       0xc8 rtthread.arm.lib(startup.o)
 .debug_loc     0x00000000000000c8      0x610 rtthread.arm.lib(board.o)
 .debug_loc     0x00000000000006d8      0x33c rtthread.arm.lib(drv_uart.o)
 .debug_loc     0x0000000000000a14      0x7b4 rtthread.arm.lib(fsl_lpuart.o)
 .debug_loc     0x00000000000011c8      0x638 rtthread.arm.lib(fsl_clock.o)
 .debug_loc     0x0000000000001800      0x19c rtthread.arm.lib(system_RV32M1_cm0plus.o)
 .debug_loc     0x000000000000199c      0x1c0 rtthread.arm.lib(fsl_sema42.o)
 .debug_loc     0x0000000000001b5c      0x2d8 rtthread.arm.lib(fsl_mu.o)
 .debug_loc     0x0000000000001e34      0x268 rtthread.arm.lib(idle.o)
 .debug_loc     0x000000000000209c      0x294 rtthread.arm.lib(cpu.o)
 .debug_loc     0x0000000000002330      0x454 rtthread.arm.lib(timer.o)
 .debug_loc     0x0000000000002784      0x3b8 rtthread.arm.lib(object.o)
 .debug_loc     0x0000000000002b3c      0x138 rtthread.arm.lib(clock.o)
 .debug_loc     0x0000000000002c74      0xa4c rtthread.arm.lib(kservice.o)
 .debug_loc     0x00000000000036c0      0xa80 rtthread.arm.lib(ipc.o)
 .debug_loc     0x0000000000004140      0x348 rtthread.arm.lib(device.o)
 .debug_loc     0x0000000000004488      0x3f0 rtthread.arm.lib(scheduler.o)
 .debug_loc     0x0000000000004878      0x508 rtthread.arm.lib(thread.o)
 .debug_loc     0x0000000000004d80      0x118 rtthread.arm.lib(irq.o)
 .debug_loc     0x0000000000004e98       0x9c rtthread.arm.lib(cpuport.o)
 .debug_loc     0x0000000000004f34      0x4c6 rtthread.arm.lib(serial.o)
 .debug_loc     0x00000000000053fa      0x2b4 rtthread.arm.lib(shell.o)
 .debug_loc     0x00000000000056ae      0x232 rtthread.arm.lib(msh.o)
 .debug_loc     0x00000000000058e0      0x3b2 rtthread.arm.lib(cmd.o)
 .debug_loc     0x0000000000005c92      0x563 rtthread.arm.lib(ulog.o)
 .debug_loc     0x00000000000061f5       0xfa rtthread.arm.lib(main.o)
 .debug_loc     0x00000000000062ef       0x58 rtthread.arm.lib(pin_mux.o)
 .debug_loc     0x0000000000006347      0x150 rtthread.arm.lib(mem.o)
 .debug_loc     0x0000000000006497      0x5d6 rtthread.arm.lib(dfs_posix.o)
 .debug_loc     0x0000000000006a6d      0x234 rtthread.arm.lib(dfs_fs.o)
 .debug_loc     0x0000000000006ca1      0x294 rtthread.arm.lib(dfs.o)
 .debug_loc     0x0000000000006f35      0x432 rtthread.arm.lib(dfs_file.o)
 .debug_loc     0x0000000000007367      0x150 rtthread.arm.lib(completion.o)
 .debug_loc     0x00000000000074b7      0x1fa rtthread.arm.lib(waitqueue.o)
 .debug_loc     0x00000000000076b1      0x3bc rtthread.arm.lib(msh_file.o)
 .debug_loc     0x0000000000007a6d      0x188 rtthread.arm.lib(delay.o)
 .debug_loc     0x0000000000007bf5       0xd6 rtthread.arm.lib(libc.o)
 .debug_loc     0x0000000000007ccb      0x310 rtthread.arm.lib(semaphore.o)
 .debug_loc     0x0000000000007fdb      0x5a6 rtthread.arm.lib(pthread.o)
 .debug_loc     0x0000000000008581      0x10c rtthread.arm.lib(pthread_tls.o)
 .debug_loc     0x000000000000868d       0x64 rtthread.arm.lib(console_be.o)
 .debug_loc     0x00000000000086f1      0x460 rtthread.arm.lib(pthread_attr.o)
 .debug_loc     0x0000000000008b51       0xab rtthread.risc-v.lib(main.o)
 .debug_loc     0x0000000000008bfc      0x7a9 rtthread.risc-v.lib(board.o)
 .debug_loc     0x00000000000093a5       0x38 rtthread.risc-v.lib(mnt.o)
 .debug_loc     0x00000000000093dd      0x269 rtthread.risc-v.lib(clock_config.o)
 .debug_loc     0x0000000000009646      0x118 rtthread.risc-v.lib(pin_mux.o)
 .debug_loc     0x000000000000975e       0xe0 rtthread.risc-v.lib(startup.o)
 .debug_loc     0x000000000000983e      0x2d9 rtthread.risc-v.lib(drv_uart.o)
 .debug_loc     0x0000000000009b17      0x1c0 rtthread.risc-v.lib(drv_sdcard.o)
 .debug_loc     0x0000000000009cd7      0x95c rtthread.risc-v.lib(system_RV32M1_ri5cy.o)
 .debug_loc     0x000000000000a633      0x7ab rtthread.risc-v.lib(fsl_lpuart.o)
 .debug_loc     0x000000000000adde      0x268 rtthread.risc-v.lib(fsl_msmc.o)
 .debug_loc     0x000000000000b046      0x428 rtthread.risc-v.lib(fsl_xrdc.o)
 .debug_loc     0x000000000000b46e       0x2c rtthread.risc-v.lib(fsl_common.o)
 .debug_loc     0x000000000000b49a      0x6c8 rtthread.risc-v.lib(fsl_clock.o)
 .debug_loc     0x000000000000bb62      0x118 rtthread.risc-v.lib(fsl_gpio.o)
 .debug_loc     0x000000000000bc7a      0x1c0 rtthread.risc-v.lib(fsl_sema42.o)
 .debug_loc     0x000000000000be3a      0x2d8 rtthread.risc-v.lib(fsl_mu.o)
 .debug_loc     0x000000000000c112      0x7f0 rtthread.risc-v.lib(fsl_sd.o)
 .debug_loc     0x000000000000c902      0x2a8 rtthread.risc-v.lib(fsl_sdmmc.o)
 .debug_loc     0x000000000000cbaa      0x250 rtthread.risc-v.lib(idle.o)
 .debug_loc     0x000000000000cdfa      0x3f2 rtthread.risc-v.lib(scheduler.o)
 .debug_loc     0x000000000000d1ec      0xa83 rtthread.risc-v.lib(ipc.o)
 .debug_loc     0x000000000000dc6f      0x150 rtthread.risc-v.lib(components.o)
 .debug_loc     0x000000000000ddbf      0x150 rtthread.risc-v.lib(clock.o)
 .debug_loc     0x000000000000df0f      0x2a0 rtthread.risc-v.lib(cpu.o)
 .debug_loc     0x000000000000e1af      0xa4e rtthread.risc-v.lib(kservice.o)
 .debug_loc     0x000000000000ebfd      0x509 rtthread.risc-v.lib(thread.o)
 .debug_loc     0x000000000000f106      0x153 rtthread.risc-v.lib(mem.o)
 .debug_loc     0x000000000000f259      0x348 rtthread.risc-v.lib(device.o)
 .debug_loc     0x000000000000f5a1      0x463 rtthread.risc-v.lib(timer.o)
 .debug_loc     0x000000000000fa04      0x3b9 rtthread.risc-v.lib(object.o)
 .debug_loc     0x000000000000fdbd       0x70 rtthread.risc-v.lib(cpuport.o)
 .debug_loc     0x000000000000fe2d      0x232 rtthread.risc-v.lib(dfs_fs.o)
 .debug_loc     0x000000000001005f      0x2a2 rtthread.risc-v.lib(dfs.o)
 .debug_loc     0x0000000000010301      0x42e rtthread.risc-v.lib(dfs_file.o)
 .debug_loc     0x000000000001072f      0x231 rtthread.risc-v.lib(devfs.o)
 .debug_loc     0x0000000000010960      0x698 rtthread.risc-v.lib(dfs_elm.o)
 .debug_loc     0x0000000000010ff8      0x4d3 rtthread.risc-v.lib(serial.o)
 .debug_loc     0x00000000000114cb      0x2cc rtthread.risc-v.lib(shell.o)
 .debug_loc     0x0000000000011797      0x233 rtthread.risc-v.lib(msh.o)
 .debug_loc     0x00000000000119ca      0x3c2 rtthread.risc-v.lib(cmd.o)
 .debug_loc     0x0000000000011d8c      0x65a rtthread.risc-v.lib(time.o)
 .debug_loc     0x00000000000123e6      0x188 rtthread.risc-v.lib(delay.o)
 .debug_loc     0x000000000001256e       0xe1 rtthread.risc-v.lib(libc.o)
 .debug_loc     0x000000000001264f      0x311 rtthread.risc-v.lib(semaphore.o)
 .debug_loc     0x0000000000012960      0x5b1 rtthread.risc-v.lib(pthread.o)
 .debug_loc     0x0000000000012f11      0x460 rtthread.risc-v.lib(pthread_attr.o)
 .debug_loc     0x0000000000013371      0x57d rtthread.risc-v.lib(ulog.o)
 .debug_loc     0x00000000000138ee      0x1f9 rtthread.risc-v.lib(fsl_host.o)
 .debug_loc     0x0000000000013ae7      0x96a rtthread.risc-v.lib(fsl_usdhc.o)
 .debug_loc     0x0000000000014451      0x118 rtthread.risc-v.lib(irq.o)
 .debug_loc     0x0000000000014569      0x5b4 rtthread.risc-v.lib(dfs_posix.o)
 .debug_loc     0x0000000000014b1d      0xda3 rtthread.risc-v.lib(ff.o)
 .debug_loc     0x00000000000158c0       0xa8 rtthread.risc-v.lib(ffunicode.o)
 .debug_loc     0x0000000000015968      0x150 rtthread.risc-v.lib(completion.o)
 .debug_loc     0x0000000000015ab8      0x1fa rtthread.risc-v.lib(waitqueue.o)
 .debug_loc     0x0000000000015cb2      0x3bb rtthread.risc-v.lib(msh_file.o)
 .debug_loc     0x000000000001606d      0x118 rtthread.risc-v.lib(pthread_tls.o)
 .debug_loc     0x0000000000016185       0x71 rtthread.risc-v.lib(console_be.o)
 .debug_loc     0x00000000000161f6       0x21 build/risc-v/libgcc.a(_bswapsi2.o)
 .debug_loc     0x0000000000016217      0x134 build/risc-v/libgcc.a(floatsidf.o)
 .debug_loc     0x000000000001634b       0x6b build/risc-v/libgcc.a(_clzsi2.o)
 .debug_loc     0x00000000000163b6      0x5d0 rtthread.arm.lib(syscalls.o)
 .debug_loc     0x0000000000016986      0x5dc rtthread.risc-v.lib(syscalls.o)
 .debug_loc     0x0000000000016f62       0x38 rtthread.risc-v.lib(stdlib.o)

.debug_macinfo
 *(.debug_macinfo)

.debug_weaknames
 *(.debug_weaknames)

.debug_funcnames
 *(.debug_funcnames)

.debug_typenames
 *(.debug_typenames)

.debug_varnames
 *(.debug_varnames)
LOAD startup_RV32M1_cm0.o
LOAD startup_RV32M1_ri5cy.o
START GROUP
LOAD build/arm/libc.a
LOAD build/arm/libgcc.a
LOAD build/arm/libnosys.a
LOAD build/risc-v/libc.a
LOAD build/risc-v/libgcc.a
LOAD build/risc-v/libnosys.a
LOAD rtthread.arm.lib
LOAD rtthread.risc-v.lib
END GROUP
OUTPUT(rtthread_hybrid.elf elf32-littlearm)

.debug_ranges   0x0000000000000000     0x3960
 .debug_ranges  0x0000000000000000       0x20 startup_RV32M1_ri5cy.o
 .debug_ranges  0x0000000000000020       0x28 rtthread.arm.lib(startup.o)
 .debug_ranges  0x0000000000000048       0xf0 rtthread.arm.lib(board.o)
 .debug_ranges  0x0000000000000138       0x80 rtthread.arm.lib(drv_uart.o)
 .debug_ranges  0x00000000000001b8      0x128 rtthread.arm.lib(fsl_lpuart.o)
 .debug_ranges  0x00000000000002e0      0x100 rtthread.arm.lib(fsl_clock.o)
 .debug_ranges  0x00000000000003e0       0x48 rtthread.arm.lib(system_RV32M1_cm0plus.o)
 .debug_ranges  0x0000000000000428       0x48 rtthread.arm.lib(fsl_sema42.o)
 .debug_ranges  0x0000000000000470       0x70 rtthread.arm.lib(fsl_mu.o)
 .debug_ranges  0x00000000000004e0       0x78 rtthread.arm.lib(idle.o)
 .debug_ranges  0x0000000000000558       0x68 rtthread.arm.lib(cpu.o)
 .debug_ranges  0x00000000000005c0       0xc0 rtthread.arm.lib(timer.o)
 .debug_ranges  0x0000000000000680       0x90 rtthread.arm.lib(object.o)
 .debug_ranges  0x0000000000000710       0x38 rtthread.arm.lib(clock.o)
 .debug_ranges  0x0000000000000748      0x180 rtthread.arm.lib(kservice.o)
 .debug_ranges  0x00000000000008c8      0x188 rtthread.arm.lib(ipc.o)
 .debug_ranges  0x0000000000000a50       0x80 rtthread.arm.lib(device.o)
 .debug_ranges  0x0000000000000ad0       0x98 rtthread.arm.lib(scheduler.o)
 .debug_ranges  0x0000000000000b68       0xc0 rtthread.arm.lib(thread.o)
 .debug_ranges  0x0000000000000c28       0x30 rtthread.arm.lib(irq.o)
 .debug_ranges  0x0000000000000c58       0x20 rtthread.arm.lib(cpuport.o)
 .debug_ranges  0x0000000000000c78       0xd0 rtthread.arm.lib(serial.o)
 .debug_ranges  0x0000000000000d48       0x70 rtthread.arm.lib(shell.o)
 .debug_ranges  0x0000000000000db8       0x58 rtthread.arm.lib(msh.o)
 .debug_ranges  0x0000000000000e10       0x90 rtthread.arm.lib(cmd.o)
 .debug_ranges  0x0000000000000ea0       0xd0 rtthread.arm.lib(ulog.o)
 .debug_ranges  0x0000000000000f70       0x28 rtthread.arm.lib(main.o)
 .debug_ranges  0x0000000000000f98       0x18 rtthread.arm.lib(pin_mux.o)
 .debug_ranges  0x0000000000000fb0       0x38 rtthread.arm.lib(mem.o)
 .debug_ranges  0x0000000000000fe8       0xd8 rtthread.arm.lib(dfs_posix.o)
 .debug_ranges  0x00000000000010c0       0x58 rtthread.arm.lib(dfs_fs.o)
 .debug_ranges  0x0000000000001118       0x80 rtthread.arm.lib(dfs.o)
 .debug_ranges  0x0000000000001198       0xa0 rtthread.arm.lib(dfs_file.o)
 .debug_ranges  0x0000000000001238       0x38 rtthread.arm.lib(completion.o)
 .debug_ranges  0x0000000000001270       0x50 rtthread.arm.lib(waitqueue.o)
 .debug_ranges  0x00000000000012c0       0x90 rtthread.arm.lib(msh_file.o)
 .debug_ranges  0x0000000000001350       0x40 rtthread.arm.lib(delay.o)
 .debug_ranges  0x0000000000001390       0x28 rtthread.arm.lib(libc.o)
 .debug_ranges  0x00000000000013b8       0x78 rtthread.arm.lib(semaphore.o)
 .debug_ranges  0x0000000000001430       0xd8 rtthread.arm.lib(pthread.o)
 .debug_ranges  0x0000000000001508       0x30 rtthread.arm.lib(pthread_tls.o)
 .debug_ranges  0x0000000000001538       0x18 rtthread.arm.lib(console_be.o)
 .debug_ranges  0x0000000000001550       0xa8 rtthread.arm.lib(pthread_attr.o)
 .debug_ranges  0x00000000000015f8       0x20 rtthread.risc-v.lib(main.o)
 .debug_ranges  0x0000000000001618      0x120 rtthread.risc-v.lib(board.o)
 .debug_ranges  0x0000000000001738       0x10 rtthread.risc-v.lib(mnt.o)
 .debug_ranges  0x0000000000001748       0x60 rtthread.risc-v.lib(clock_config.o)
 .debug_ranges  0x00000000000017a8       0x30 rtthread.risc-v.lib(pin_mux.o)
 .debug_ranges  0x00000000000017d8       0x28 rtthread.risc-v.lib(startup.o)
 .debug_ranges  0x0000000000001800       0x70 rtthread.risc-v.lib(drv_uart.o)
 .debug_ranges  0x0000000000001870       0x48 rtthread.risc-v.lib(drv_sdcard.o)
 .debug_ranges  0x00000000000018b8      0x160 rtthread.risc-v.lib(system_RV32M1_ri5cy.o)
 .debug_ranges  0x0000000000001a18      0x120 rtthread.risc-v.lib(fsl_lpuart.o)
 .debug_ranges  0x0000000000001b38       0x60 rtthread.risc-v.lib(fsl_msmc.o)
 .debug_ranges  0x0000000000001b98       0xa0 rtthread.risc-v.lib(fsl_xrdc.o)
 .debug_ranges  0x0000000000001c38       0x10 rtthread.risc-v.lib(fsl_common.o)
 .debug_ranges  0x0000000000001c48      0x100 rtthread.risc-v.lib(fsl_clock.o)
 .debug_ranges  0x0000000000001d48       0x30 rtthread.risc-v.lib(fsl_gpio.o)
 .debug_ranges  0x0000000000001d78       0x48 rtthread.risc-v.lib(fsl_sema42.o)
 .debug_ranges  0x0000000000001dc0       0x70 rtthread.risc-v.lib(fsl_mu.o)
 .debug_ranges  0x0000000000001e30      0x128 rtthread.risc-v.lib(fsl_sd.o)
 .debug_ranges  0x0000000000001f58       0x68 rtthread.risc-v.lib(fsl_sdmmc.o)
 .debug_ranges  0x0000000000001fc0       0x78 rtthread.risc-v.lib(idle.o)
 .debug_ranges  0x0000000000002038       0x98 rtthread.risc-v.lib(scheduler.o)
 .debug_ranges  0x00000000000020d0      0x188 rtthread.risc-v.lib(ipc.o)
 .debug_ranges  0x0000000000002258       0x38 rtthread.risc-v.lib(components.o)
 .debug_ranges  0x0000000000002290       0x38 rtthread.risc-v.lib(clock.o)
 .debug_ranges  0x00000000000022c8       0x68 rtthread.risc-v.lib(cpu.o)
 .debug_ranges  0x0000000000002330      0x180 rtthread.risc-v.lib(kservice.o)
 .debug_ranges  0x00000000000024b0       0xc0 rtthread.risc-v.lib(thread.o)
 .debug_ranges  0x0000000000002570       0x38 rtthread.risc-v.lib(mem.o)
 .debug_ranges  0x00000000000025a8       0x80 rtthread.risc-v.lib(device.o)
 .debug_ranges  0x0000000000002628       0xc0 rtthread.risc-v.lib(timer.o)
 .debug_ranges  0x00000000000026e8       0x90 rtthread.risc-v.lib(object.o)
 .debug_ranges  0x0000000000002778       0x18 rtthread.risc-v.lib(cpuport.o)
 .debug_ranges  0x0000000000002790       0x58 rtthread.risc-v.lib(dfs_fs.o)
 .debug_ranges  0x00000000000027e8       0x80 rtthread.risc-v.lib(dfs.o)
 .debug_ranges  0x0000000000002868       0xa0 rtthread.risc-v.lib(dfs_file.o)
 .debug_ranges  0x0000000000002908       0x58 rtthread.risc-v.lib(devfs.o)
 .debug_ranges  0x0000000000002960      0x128 rtthread.risc-v.lib(dfs_elm.o)
 .debug_ranges  0x0000000000002a88       0xd0 rtthread.risc-v.lib(serial.o)
 .debug_ranges  0x0000000000002b58       0x70 rtthread.risc-v.lib(shell.o)
 .debug_ranges  0x0000000000002bc8       0x58 rtthread.risc-v.lib(msh.o)
 .debug_ranges  0x0000000000002c20       0x90 rtthread.risc-v.lib(cmd.o)
 .debug_ranges  0x0000000000002cb0      0x108 rtthread.risc-v.lib(time.o)
 .debug_ranges  0x0000000000002db8       0x40 rtthread.risc-v.lib(delay.o)
 .debug_ranges  0x0000000000002df8       0x28 rtthread.risc-v.lib(libc.o)
 .debug_ranges  0x0000000000002e20       0x78 rtthread.risc-v.lib(semaphore.o)
 .debug_ranges  0x0000000000002e98       0xd8 rtthread.risc-v.lib(pthread.o)
 .debug_ranges  0x0000000000002f70       0xa8 rtthread.risc-v.lib(pthread_attr.o)
 .debug_ranges  0x0000000000003018       0xd0 rtthread.risc-v.lib(ulog.o)
 .debug_ranges  0x00000000000030e8       0x50 rtthread.risc-v.lib(fsl_host.o)
 .debug_ranges  0x0000000000003138      0x160 rtthread.risc-v.lib(fsl_usdhc.o)
 .debug_ranges  0x0000000000003298       0x30 rtthread.risc-v.lib(irq.o)
 .debug_ranges  0x00000000000032c8       0xd8 rtthread.risc-v.lib(dfs_posix.o)
 .debug_ranges  0x00000000000033a0      0x1f8 rtthread.risc-v.lib(ff.o)
 .debug_ranges  0x0000000000003598       0x20 rtthread.risc-v.lib(ffunicode.o)
 .debug_ranges  0x00000000000035b8       0x38 rtthread.risc-v.lib(completion.o)
 .debug_ranges  0x00000000000035f0       0x50 rtthread.risc-v.lib(waitqueue.o)
 .debug_ranges  0x0000000000003640       0x90 rtthread.risc-v.lib(msh_file.o)
 .debug_ranges  0x00000000000036d0       0x30 rtthread.risc-v.lib(pthread_tls.o)
 .debug_ranges  0x0000000000003700       0x18 rtthread.risc-v.lib(console_be.o)
 .debug_ranges  0x0000000000003718       0x60 build/risc-v/libgcc.a(floatsidf.o)
 .debug_ranges  0x0000000000003778       0x18 build/risc-v/libgcc.a(_clzsi2.o)
 .debug_ranges  0x0000000000003790       0xe0 rtthread.arm.lib(syscalls.o)
 .debug_ranges  0x0000000000003870       0xe0 rtthread.risc-v.lib(syscalls.o)
 .debug_ranges  0x0000000000003950       0x10 rtthread.risc-v.lib(stdlib.o)

Cross Reference Table

Symbol                                            File
__DATA_ROM                                        rtthread.risc-v.lib(system_RV32M1_ri5cy.o)
__bss_end__                                       rtthread.risc-v.lib(system_RV32M1_ri5cy.o)
__bss_start__                                     rtthread.risc-v.lib(system_RV32M1_ri5cy.o)
__data_end__                                      rtthread.risc-v.lib(system_RV32M1_ri5cy.o)
__data_start__                                    rtthread.risc-v.lib(system_RV32M1_ri5cy.o)
__heap_start                                      rtthread.risc-v.lib(board.o)
                                                  rtthread.arm.lib(board.o)
_cpus_lock                                        rtthread.risc-v.lib(cpu.o)
                                                  rtthread.arm.lib(cpu.o)
                                                  rtthread.risc-v.lib(scheduler.o)
                                                  rtthread.risc-v.lib(startup.o)
                                                  rtthread.arm.lib(scheduler.o)
                                                  rtthread.arm.lib(startup.o)
_fdtab                                            rtthread.risc-v.lib(dfs.o)
                                                  rtthread.arm.lib(dfs.o)
_lock                                             rtthread.risc-v.lib(kservice.o)
                                                  rtthread.arm.lib(kservice.o)
arm_ADC0_IRQHandler                               startup_RV32M1_cm0.o
arm_BOARD_InitBootPins                            rtthread.arm.lib(pin_mux.o)
arm_BOARD_InitPins_Core1                          rtthread.arm.lib(pin_mux.o)
                                                  rtthread.arm.lib(board.o)
arm_CAU3_Security_Violation_IRQHandler            startup_RV32M1_cm0.o
arm_CAU3_Task_Complete_IRQHandler                 startup_RV32M1_cm0.o
arm_CLOCK_DeinitFirc                              rtthread.arm.lib(fsl_clock.o)
arm_CLOCK_DeinitLpFll                             rtthread.arm.lib(fsl_clock.o)
arm_CLOCK_DeinitSirc                              rtthread.arm.lib(fsl_clock.o)
arm_CLOCK_DeinitSysOsc                            rtthread.arm.lib(fsl_clock.o)
arm_CLOCK_EnableUsbfs0Clock                       rtthread.arm.lib(fsl_clock.o)
arm_CLOCK_GetBusClkFreq                           rtthread.arm.lib(fsl_clock.o)
arm_CLOCK_GetCoreSysClkFreq                       rtthread.arm.lib(fsl_clock.o)
arm_CLOCK_GetExtClkFreq                           rtthread.arm.lib(fsl_clock.o)
arm_CLOCK_GetFircAsyncFreq                        rtthread.arm.lib(fsl_clock.o)
arm_CLOCK_GetFircFreq                             rtthread.arm.lib(fsl_clock.o)
arm_CLOCK_GetFlashClkFreq                         rtthread.arm.lib(fsl_clock.o)
arm_CLOCK_GetFreq                                 rtthread.arm.lib(fsl_clock.o)
arm_CLOCK_GetIpFreq                               rtthread.arm.lib(fsl_clock.o)
                                                  rtthread.arm.lib(system_RV32M1_cm0plus.o)
                                                  rtthread.arm.lib(drv_uart.o)
                                                  rtthread.arm.lib(board.o)
arm_CLOCK_GetLpFllAsyncFreq                       rtthread.arm.lib(fsl_clock.o)
arm_CLOCK_GetLpFllFreq                            rtthread.arm.lib(fsl_clock.o)
arm_CLOCK_GetOsc32kClkFreq                        rtthread.arm.lib(fsl_clock.o)
arm_CLOCK_GetPlatClkFreq                          rtthread.arm.lib(fsl_clock.o)
arm_CLOCK_GetRtcOscFreq                           rtthread.arm.lib(fsl_clock.o)
arm_CLOCK_GetSircAsyncFreq                        rtthread.arm.lib(fsl_clock.o)
arm_CLOCK_GetSircFreq                             rtthread.arm.lib(fsl_clock.o)
arm_CLOCK_GetSysClkFreq                           rtthread.arm.lib(fsl_clock.o)
arm_CLOCK_GetSysOscAsyncFreq                      rtthread.arm.lib(fsl_clock.o)
arm_CLOCK_GetSysOscFreq                           rtthread.arm.lib(fsl_clock.o)
arm_CLOCK_InitFirc                                rtthread.arm.lib(fsl_clock.o)
arm_CLOCK_InitLpFll                               rtthread.arm.lib(fsl_clock.o)
arm_CLOCK_InitSirc                                rtthread.arm.lib(fsl_clock.o)
arm_CLOCK_InitSysOsc                              rtthread.arm.lib(fsl_clock.o)
arm_CMC1_IRQHandler                               startup_RV32M1_cm0.o
arm_CTI1_IRQHandler                               startup_RV32M1_cm0.o
arm_DMA1_04_DriverIRQHandler                      startup_RV32M1_cm0.o
arm_DMA1_04_IRQHandler                            startup_RV32M1_cm0.o
arm_DMA1_15_DriverIRQHandler                      startup_RV32M1_cm0.o
arm_DMA1_15_IRQHandler                            startup_RV32M1_cm0.o
arm_DMA1_26_DriverIRQHandler                      startup_RV32M1_cm0.o
arm_DMA1_26_IRQHandler                            startup_RV32M1_cm0.o
arm_DMA1_37_DriverIRQHandler                      startup_RV32M1_cm0.o
arm_DMA1_37_IRQHandler                            startup_RV32M1_cm0.o
arm_DMA1_Error_DriverIRQHandler                   startup_RV32M1_cm0.o
arm_DMA1_Error_IRQHandler                         startup_RV32M1_cm0.o
arm_DefaultISR                                    startup_RV32M1_cm0.o
arm_EMVSIM0_IRQHandler                            startup_RV32M1_cm0.o
arm_EWM_IRQHandler                                startup_RV32M1_cm0.o
arm_FLEXIO0_DriverIRQHandler                      startup_RV32M1_cm0.o
arm_FLEXIO0_IRQHandler                            startup_RV32M1_cm0.o
arm_FTFE_Command_Complete_IRQHandler              startup_RV32M1_cm0.o
arm_FTFE_Read_Collision_IRQHandler                startup_RV32M1_cm0.o
arm_HardFault_Handler                             rtthread.arm.lib(context_gcc.o)
                                                  startup_RV32M1_cm0.o
arm_I2S0_DriverIRQHandler                         startup_RV32M1_cm0.o
arm_I2S0_IRQHandler                               startup_RV32M1_cm0.o
arm_INTMUX1_0_DriverIRQHandler                    startup_RV32M1_cm0.o
arm_INTMUX1_0_IRQHandler                          startup_RV32M1_cm0.o
arm_INTMUX1_1_DriverIRQHandler                    startup_RV32M1_cm0.o
arm_INTMUX1_1_IRQHandler                          startup_RV32M1_cm0.o
arm_INTMUX1_2_DriverIRQHandler                    startup_RV32M1_cm0.o
arm_INTMUX1_2_IRQHandler                          startup_RV32M1_cm0.o
arm_INTMUX1_3_DriverIRQHandler                    startup_RV32M1_cm0.o
arm_INTMUX1_3_IRQHandler                          startup_RV32M1_cm0.o
arm_INTMUX1_4_DriverIRQHandler                    startup_RV32M1_cm0.o
arm_INTMUX1_4_IRQHandler                          startup_RV32M1_cm0.o
arm_INTMUX1_5_DriverIRQHandler                    startup_RV32M1_cm0.o
arm_INTMUX1_5_IRQHandler                          startup_RV32M1_cm0.o
arm_INTMUX1_6_DriverIRQHandler                    startup_RV32M1_cm0.o
arm_INTMUX1_6_IRQHandler                          startup_RV32M1_cm0.o
arm_INTMUX1_7_DriverIRQHandler                    startup_RV32M1_cm0.o
arm_INTMUX1_7_IRQHandler                          startup_RV32M1_cm0.o
arm_LLWU1_IRQHandler                              startup_RV32M1_cm0.o
arm_LPCMP0_IRQHandler                             startup_RV32M1_cm0.o
arm_LPCMP1_IRQHandler                             startup_RV32M1_cm0.o
arm_LPDAC0_IRQHandler                             startup_RV32M1_cm0.o
arm_LPI2C0_DriverIRQHandler                       startup_RV32M1_cm0.o
arm_LPI2C0_IRQHandler                             startup_RV32M1_cm0.o
arm_LPI2C1_DriverIRQHandler                       startup_RV32M1_cm0.o
arm_LPI2C1_IRQHandler                             startup_RV32M1_cm0.o
arm_LPI2C2_DriverIRQHandler                       startup_RV32M1_cm0.o
arm_LPI2C2_IRQHandler                             startup_RV32M1_cm0.o
arm_LPI2C3_DriverIRQHandler                       startup_RV32M1_cm0.o
arm_LPI2C3_IRQHandler                             startup_RV32M1_cm0.o
arm_LPIT0_IRQHandler                              startup_RV32M1_cm0.o
arm_LPIT1_IRQHandler                              rtthread.arm.lib(board.o)
                                                  startup_RV32M1_cm0.o
arm_LPSPI0_DriverIRQHandler                       startup_RV32M1_cm0.o
arm_LPSPI0_IRQHandler                             startup_RV32M1_cm0.o
arm_LPSPI1_DriverIRQHandler                       startup_RV32M1_cm0.o
arm_LPSPI1_IRQHandler                             startup_RV32M1_cm0.o
arm_LPSPI2_DriverIRQHandler                       startup_RV32M1_cm0.o
arm_LPSPI2_IRQHandler                             startup_RV32M1_cm0.o
arm_LPSPI3_DriverIRQHandler                       startup_RV32M1_cm0.o
arm_LPSPI3_IRQHandler                             startup_RV32M1_cm0.o
arm_LPTMR0_IRQHandler                             startup_RV32M1_cm0.o
arm_LPTMR1_IRQHandler                             startup_RV32M1_cm0.o
arm_LPTMR2_IRQHandler                             startup_RV32M1_cm0.o
arm_LPUART0_DriverIRQHandler                      rtthread.arm.lib(fsl_lpuart.o)
                                                  startup_RV32M1_cm0.o
arm_LPUART0_IRQHandler                            rtthread.arm.lib(drv_uart.o)
                                                  startup_RV32M1_cm0.o
arm_LPUART1_DriverIRQHandler                      rtthread.arm.lib(fsl_lpuart.o)
                                                  startup_RV32M1_cm0.o
arm_LPUART1_IRQHandler                            startup_RV32M1_cm0.o
arm_LPUART2_DriverIRQHandler                      rtthread.arm.lib(fsl_lpuart.o)
                                                  startup_RV32M1_cm0.o
arm_LPUART2_IRQHandler                            startup_RV32M1_cm0.o
arm_LPUART3_DriverIRQHandler                      rtthread.arm.lib(fsl_lpuart.o)
                                                  startup_RV32M1_cm0.o
arm_LPUART3_IRQHandler                            startup_RV32M1_cm0.o
arm_LPUART_ClearStatusFlags                       rtthread.arm.lib(fsl_lpuart.o)
arm_LPUART_Deinit                                 rtthread.arm.lib(fsl_lpuart.o)
arm_LPUART_DisableInterrupts                      rtthread.arm.lib(fsl_lpuart.o)
arm_LPUART_EnableInterrupts                       rtthread.arm.lib(fsl_lpuart.o)
                                                  rtthread.arm.lib(drv_uart.o)
arm_LPUART_GetDefaultConfig                       rtthread.arm.lib(fsl_lpuart.o)
                                                  rtthread.arm.lib(drv_uart.o)
arm_LPUART_GetEnabledInterrupts                   rtthread.arm.lib(fsl_lpuart.o)
arm_LPUART_GetInstance                            rtthread.arm.lib(fsl_lpuart.o)
arm_LPUART_GetStatusFlags                         rtthread.arm.lib(fsl_lpuart.o)
                                                  rtthread.arm.lib(drv_uart.o)
arm_LPUART_Init                                   rtthread.arm.lib(fsl_lpuart.o)
                                                  rtthread.arm.lib(drv_uart.o)
arm_LPUART_ReadBlocking                           rtthread.arm.lib(fsl_lpuart.o)
arm_LPUART_SetBaudRate                            rtthread.arm.lib(fsl_lpuart.o)
arm_LPUART_TransferAbortReceive                   rtthread.arm.lib(fsl_lpuart.o)
arm_LPUART_TransferAbortSend                      rtthread.arm.lib(fsl_lpuart.o)
arm_LPUART_TransferCreateHandle                   rtthread.arm.lib(fsl_lpuart.o)
arm_LPUART_TransferGetReceiveCount                rtthread.arm.lib(fsl_lpuart.o)
arm_LPUART_TransferGetSendCount                   rtthread.arm.lib(fsl_lpuart.o)
arm_LPUART_TransferHandleErrorIRQ                 rtthread.arm.lib(fsl_lpuart.o)
arm_LPUART_TransferHandleIRQ                      rtthread.arm.lib(fsl_lpuart.o)
arm_LPUART_TransferReceiveNonBlocking             rtthread.arm.lib(fsl_lpuart.o)
arm_LPUART_TransferSendNonBlocking                rtthread.arm.lib(fsl_lpuart.o)
arm_LPUART_TransferStartRingBuffer                rtthread.arm.lib(fsl_lpuart.o)
arm_LPUART_TransferStopRingBuffer                 rtthread.arm.lib(fsl_lpuart.o)
arm_LPUART_WriteBlocking                          rtthread.arm.lib(fsl_lpuart.o)
arm_MUB_IRQHandler                                rtthread.arm.lib(board.o)
                                                  startup_RV32M1_cm0.o
arm_MU_BootCoreB                                  rtthread.arm.lib(fsl_mu.o)
arm_MU_BootOtherCore                              rtthread.arm.lib(fsl_mu.o)
arm_MU_Deinit                                     rtthread.arm.lib(fsl_mu.o)
arm_MU_HardwareResetOtherCore                     rtthread.arm.lib(fsl_mu.o)
arm_MU_Init                                       rtthread.arm.lib(fsl_mu.o)
                                                  rtthread.arm.lib(board.o)
arm_MU_ReceiveMsg                                 rtthread.arm.lib(fsl_mu.o)
arm_MU_SendMsg                                    rtthread.arm.lib(fsl_mu.o)
arm_MU_SetFlags                                   rtthread.arm.lib(fsl_mu.o)
                                                  rtthread.arm.lib(board.o)
arm_MU_TriggerInterrupts                          rtthread.arm.lib(fsl_mu.o)
                                                  rtthread.arm.lib(board.o)
arm_NMI_Handler                                   startup_RV32M1_cm0.o
arm_PORTA_IRQHandler                              startup_RV32M1_cm0.o
arm_PORTB_IRQHandler                              startup_RV32M1_cm0.o
arm_PORTC_IRQHandler                              startup_RV32M1_cm0.o
arm_PORTD_IRQHandler                              startup_RV32M1_cm0.o
arm_PORTE_IRQHandler                              startup_RV32M1_cm0.o
arm_PendSV_Handler                                rtthread.arm.lib(context_gcc.o)
                                                  startup_RV32M1_cm0.o
arm_RF0_0_IRQHandler                              startup_RV32M1_cm0.o
arm_RF0_1_IRQHandler                              startup_RV32M1_cm0.o
arm_RTC_IRQHandler                                startup_RV32M1_cm0.o
arm_Reset_Handler                                 startup_RV32M1_cm0.o
arm_SCG_IRQHandler                                startup_RV32M1_cm0.o
arm_SEMA42_Deinit                                 rtthread.arm.lib(fsl_sema42.o)
arm_SEMA42_GetInstance                            rtthread.arm.lib(fsl_sema42.o)
arm_SEMA42_Init                                   rtthread.arm.lib(fsl_sema42.o)
arm_SEMA42_Lock                                   rtthread.arm.lib(fsl_sema42.o)
                                                  rtthread.arm.lib(board.o)
arm_SEMA42_ResetGate                              rtthread.arm.lib(fsl_sema42.o)
arm_SEMA42_TryLock                                rtthread.arm.lib(fsl_sema42.o)
arm_SPM_IRQHandler                                startup_RV32M1_cm0.o
arm_SVC_Handler                                   startup_RV32M1_cm0.o
arm_SysTick_Handler                               startup_RV32M1_cm0.o
arm_SystemClearSystickFlag                        rtthread.arm.lib(system_RV32M1_cm0plus.o)
                                                  rtthread.arm.lib(board.o)
arm_SystemCoreClock                               rtthread.arm.lib(system_RV32M1_cm0plus.o)
arm_SystemCoreClockUpdate                         rtthread.arm.lib(system_RV32M1_cm0plus.o)
arm_SystemInit                                    rtthread.arm.lib(system_RV32M1_cm0plus.o)
                                                  startup_RV32M1_cm0.o
arm_SystemInitHook                                rtthread.arm.lib(system_RV32M1_cm0plus.o)
arm_SystemSetupSystick                            rtthread.arm.lib(system_RV32M1_cm0plus.o)
                                                  rtthread.arm.lib(board.o)
arm_TPM0_IRQHandler                               startup_RV32M1_cm0.o
arm_TPM1_IRQHandler                               startup_RV32M1_cm0.o
arm_TPM2_IRQHandler                               startup_RV32M1_cm0.o
arm_TPM3_IRQHandler                               startup_RV32M1_cm0.o
arm_TRNG_IRQHandler                               startup_RV32M1_cm0.o
arm_USB0_IRQHandler                               startup_RV32M1_cm0.o
arm_USDHC0_DriverIRQHandler                       startup_RV32M1_cm0.o
arm_USDHC0_IRQHandler                             startup_RV32M1_cm0.o
arm_WDOG1_IRQHandler                              startup_RV32M1_cm0.o
arm__Balloc                                       build/arm/libc.a(lib_a-mprec.o)
                                                  build/arm/libc.a(lib_a-dtoa.o)
arm__Bfree                                        build/arm/libc.a(lib_a-mprec.o)
                                                  build/arm/libc.a(lib_a-dtoa.o)
arm__PathLocale                                   build/arm/libc.a(lib_a-locale.o)
arm___StackTop                                    startup_RV32M1_cm0.o
arm___aeabi_cdcmpeq                               build/arm/libgcc.a(_arm_cmpdf2.o)
arm___aeabi_cdcmple                               build/arm/libgcc.a(_arm_cmpdf2.o)
arm___aeabi_cdrcmple                              build/arm/libgcc.a(_arm_cmpdf2.o)
arm___aeabi_d2iz                                  build/arm/libgcc.a(fixdfsi.o)
                                                  build/arm/libc.a(lib_a-dtoa.o)
                                                  build/arm/libc.a(lib_a-svfprintf.o)
arm___aeabi_dadd                                  build/arm/libgcc.a(adddf3.o)
                                                  build/arm/libgcc.a(_floatdidf.o)
                                                  build/arm/libc.a(lib_a-dtoa.o)
arm___aeabi_dcmpeq                                build/arm/libgcc.a(_arm_cmpdf2.o)
                                                  build/arm/libc.a(lib_a-dtoa.o)
                                                  build/arm/libc.a(lib_a-svfprintf.o)
arm___aeabi_dcmpge                                build/arm/libgcc.a(_arm_cmpdf2.o)
arm___aeabi_dcmpgt                                build/arm/libgcc.a(_arm_cmpdf2.o)
                                                  build/arm/libc.a(lib_a-dtoa.o)
                                                  build/arm/libc.a(lib_a-svfprintf.o)
arm___aeabi_dcmple                                build/arm/libgcc.a(_arm_cmpdf2.o)
                                                  build/arm/libc.a(lib_a-dtoa.o)
                                                  build/arm/libc.a(lib_a-svfprintf.o)
arm___aeabi_dcmplt                                build/arm/libgcc.a(_arm_cmpdf2.o)
                                                  build/arm/libc.a(lib_a-dtoa.o)
                                                  build/arm/libc.a(lib_a-svfprintf.o)
arm___aeabi_dcmpun                                build/arm/libgcc.a(unorddf2.o)
                                                  build/arm/libc.a(lib_a-svfprintf.o)
arm___aeabi_ddiv                                  build/arm/libgcc.a(divdf3.o)
                                                  build/arm/libc.a(lib_a-mprec.o)
                                                  build/arm/libc.a(lib_a-dtoa.o)
arm___aeabi_dmul                                  build/arm/libgcc.a(muldf3.o)
                                                  build/arm/libgcc.a(_floatdidf.o)
                                                  build/arm/libc.a(lib_a-s_frexp.o)
                                                  build/arm/libc.a(lib_a-mprec.o)
                                                  build/arm/libc.a(lib_a-dtoa.o)
                                                  build/arm/libc.a(lib_a-svfprintf.o)
arm___aeabi_dsub                                  build/arm/libgcc.a(subdf3.o)
                                                  build/arm/libc.a(lib_a-dtoa.o)
                                                  build/arm/libc.a(lib_a-svfprintf.o)
arm___aeabi_i2d                                   build/arm/libgcc.a(floatsidf.o)
                                                  build/arm/libgcc.a(_floatdidf.o)
                                                  build/arm/libc.a(lib_a-dtoa.o)
                                                  build/arm/libc.a(lib_a-svfprintf.o)
arm___aeabi_idiv                                  build/arm/libgcc.a(_divsi3.o)
                                                  build/arm/libc.a(lib_a-fvwrite.o)
                                                  build/arm/libc.a(lib_a-mprec.o)
                                                  build/arm/libc.a(lib_a-svfprintf.o)
                                                  rtthread.arm.lib(time.o)
                                                  rtthread.arm.lib(main.o)
                                                  rtthread.arm.lib(clock.o)
                                                  rtthread.arm.lib(board.o)
arm___aeabi_idiv0                                 build/arm/libgcc.a(_dvmd_tls.o)
                                                  build/arm/libgcc.a(_divsi3.o)
                                                  build/arm/libgcc.a(_udivsi3.o)
arm___aeabi_idivmod                               build/arm/libgcc.a(_divsi3.o)
                                                  build/arm/libc.a(lib_a-svfprintf.o)
                                                  rtthread.arm.lib(time.o)
                                                  rtthread.arm.lib(main.o)
                                                  rtthread.arm.lib(clock.o)
arm___aeabi_l2d                                   build/arm/libgcc.a(_floatdidf.o)
                                                  rtthread.arm.lib(time.o)
arm___aeabi_ldiv0                                 build/arm/libgcc.a(_dvmd_tls.o)
                                                  build/arm/libgcc.a(_aeabi_uldivmod.o)
                                                  build/arm/libgcc.a(_aeabi_ldivmod.o)
arm___aeabi_ldivmod                               build/arm/libgcc.a(_aeabi_ldivmod.o)
                                                  rtthread.arm.lib(time.o)
arm___aeabi_lmul                                  build/arm/libgcc.a(_muldi3.o)
                                                  build/arm/libgcc.a(bpabi.o)
                                                  rtthread.arm.lib(time.o)
                                                  rtthread.arm.lib(dfs_fs.o)
arm___aeabi_ui2d                                  build/arm/libgcc.a(floatunsidf.o)
                                                  build/arm/libgcc.a(_floatdidf.o)
                                                  build/arm/libc.a(lib_a-dtoa.o)
arm___aeabi_uidiv                                 build/arm/libgcc.a(_udivsi3.o)
                                                  build/arm/libc.a(lib_a-dtoa.o)
                                                  rtthread.arm.lib(time.o)
                                                  rtthread.arm.lib(delay.o)
                                                  rtthread.arm.lib(devfs.o)
                                                  rtthread.arm.lib(ulog.o)
                                                  rtthread.arm.lib(cmd.o)
                                                  rtthread.arm.lib(ipc.o)
                                                  rtthread.arm.lib(kservice.o)
                                                  rtthread.arm.lib(system_RV32M1_cm0plus.o)
                                                  rtthread.arm.lib(fsl_clock.o)
                                                  rtthread.arm.lib(fsl_lpuart.o)
                                                  rtthread.arm.lib(board.o)
arm___aeabi_uidivmod                              build/arm/libgcc.a(_udivsi3.o)
                                                  build/arm/libgcc.a(divdf3.o)
                                                  build/arm/libc.a(lib_a-strtol.o)
                                                  rtthread.arm.lib(delay.o)
                                                  rtthread.arm.lib(ulog.o)
                                                  rtthread.arm.lib(kservice.o)
arm___aeabi_uldivmod                              build/arm/libgcc.a(_aeabi_uldivmod.o)
                                                  build/arm/libc.a(lib_a-vfiprintf.o)
                                                  build/arm/libc.a(lib_a-svfiprintf.o)
                                                  build/arm/libc.a(lib_a-svfprintf.o)
arm___any_on                                      build/arm/libc.a(lib_a-mprec.o)
arm___ascii_mbtowc                                build/arm/libc.a(lib_a-mbtowc_r.o)
                                                  build/arm/libc.a(lib_a-locale.o)
arm___ascii_wctomb                                build/arm/libc.a(lib_a-wctomb_r.o)
                                                  build/arm/libc.a(lib_a-locale.o)
arm___assert                                      build/arm/libc.a(lib_a-assert.o)
arm___assert_func                                 build/arm/libc.a(lib_a-assert.o)
                                                  build/arm/libc.a(lib_a-mprec.o)
                                                  build/arm/libc.a(lib_a-dtoa.o)
arm___b2d                                         build/arm/libc.a(lib_a-mprec.o)
arm___clzdi2                                      build/arm/libgcc.a(_clzdi2.o)
                                                  build/arm/libgcc.a(_divdi3.o)
                                                  build/arm/libgcc.a(_udivmoddi4.o)
arm___clzsi2                                      build/arm/libgcc.a(_clzsi2.o)
                                                  build/arm/libgcc.a(_clzdi2.o)
                                                  build/arm/libgcc.a(floatunsidf.o)
                                                  build/arm/libgcc.a(floatsidf.o)
                                                  build/arm/libgcc.a(subdf3.o)
                                                  build/arm/libgcc.a(muldf3.o)
                                                  build/arm/libgcc.a(divdf3.o)
                                                  build/arm/libgcc.a(adddf3.o)
arm___copybits                                    build/arm/libc.a(lib_a-mprec.o)
arm___d2b                                         build/arm/libc.a(lib_a-mprec.o)
                                                  build/arm/libc.a(lib_a-dtoa.o)
arm___divdi3                                      build/arm/libgcc.a(_divdi3.o)
                                                  build/arm/libgcc.a(bpabi.o)
arm___divsi3                                      build/arm/libgcc.a(_divsi3.o)
arm___eqdf2                                       build/arm/libgcc.a(eqdf2.o)
                                                  build/arm/libgcc.a(_arm_cmpdf2.o)
arm___errno                                       build/arm/libc.a(lib_a-errno.o)
                                                  build/arm/libc.a(lib_a-strtol.o)
arm___floatdidf                                   build/arm/libgcc.a(_floatdidf.o)
arm___fp_lock_all                                 build/arm/libc.a(lib_a-findfp.o)
arm___fp_unlock_all                               build/arm/libc.a(lib_a-findfp.o)
arm___fputwc                                      build/arm/libc.a(lib_a-fputwc.o)
arm___fsym_cat                                    rtthread.arm.lib(msh_file.o)
arm___fsym_cat_desc                               rtthread.arm.lib(msh_file.o)
arm___fsym_cat_name                               rtthread.arm.lib(msh_file.o)
arm___fsym_cd                                     rtthread.arm.lib(msh_file.o)
arm___fsym_cd_desc                                rtthread.arm.lib(msh_file.o)
arm___fsym_cd_name                                rtthread.arm.lib(msh_file.o)
arm___fsym_clear                                  rtthread.arm.lib(cmd.o)
arm___fsym_clear_desc                             rtthread.arm.lib(cmd.o)
arm___fsym_clear_name                             rtthread.arm.lib(cmd.o)
arm___fsym_cp                                     rtthread.arm.lib(msh_file.o)
arm___fsym_cp_desc                                rtthread.arm.lib(msh_file.o)
arm___fsym_cp_name                                rtthread.arm.lib(msh_file.o)
arm___fsym_df                                     rtthread.arm.lib(msh_file.o)
arm___fsym_df_desc                                rtthread.arm.lib(msh_file.o)
arm___fsym_df_name                                rtthread.arm.lib(msh_file.o)
arm___fsym_echo                                   rtthread.arm.lib(msh_file.o)
arm___fsym_echo_desc                              rtthread.arm.lib(msh_file.o)
arm___fsym_echo_name                              rtthread.arm.lib(msh_file.o)
arm___fsym_free                                   rtthread.arm.lib(msh.o)
arm___fsym_free_desc                              rtthread.arm.lib(msh.o)
arm___fsym_free_name                              rtthread.arm.lib(msh.o)
arm___fsym_help                                   rtthread.arm.lib(msh.o)
arm___fsym_help_desc                              rtthread.arm.lib(msh.o)
arm___fsym_help_name                              rtthread.arm.lib(msh.o)
arm___fsym_list_device                            rtthread.arm.lib(cmd.o)
arm___fsym_list_device_desc                       rtthread.arm.lib(cmd.o)
arm___fsym_list_device_name                       rtthread.arm.lib(cmd.o)
arm___fsym_list_event                             rtthread.arm.lib(cmd.o)
arm___fsym_list_event_desc                        rtthread.arm.lib(cmd.o)
arm___fsym_list_event_name                        rtthread.arm.lib(cmd.o)
arm___fsym_list_fd                                rtthread.arm.lib(dfs.o)
arm___fsym_list_fd_desc                           rtthread.arm.lib(dfs.o)
arm___fsym_list_fd_name                           rtthread.arm.lib(dfs.o)
arm___fsym_list_mailbox                           rtthread.arm.lib(cmd.o)
arm___fsym_list_mailbox_desc                      rtthread.arm.lib(cmd.o)
arm___fsym_list_mailbox_name                      rtthread.arm.lib(cmd.o)
arm___fsym_list_mempool                           rtthread.arm.lib(cmd.o)
arm___fsym_list_mempool_desc                      rtthread.arm.lib(cmd.o)
arm___fsym_list_mempool_name                      rtthread.arm.lib(cmd.o)
arm___fsym_list_msgqueue                          rtthread.arm.lib(cmd.o)
arm___fsym_list_msgqueue_desc                     rtthread.arm.lib(cmd.o)
arm___fsym_list_msgqueue_name                     rtthread.arm.lib(cmd.o)
arm___fsym_list_mutex                             rtthread.arm.lib(cmd.o)
arm___fsym_list_mutex_desc                        rtthread.arm.lib(cmd.o)
arm___fsym_list_mutex_name                        rtthread.arm.lib(cmd.o)
arm___fsym_list_sem                               rtthread.arm.lib(cmd.o)
arm___fsym_list_sem_desc                          rtthread.arm.lib(cmd.o)
arm___fsym_list_sem_name                          rtthread.arm.lib(cmd.o)
arm___fsym_list_thread                            rtthread.arm.lib(cmd.o)
arm___fsym_list_thread_desc                       rtthread.arm.lib(cmd.o)
arm___fsym_list_thread_name                       rtthread.arm.lib(cmd.o)
arm___fsym_list_timer                             rtthread.arm.lib(cmd.o)
arm___fsym_list_timer_desc                        rtthread.arm.lib(cmd.o)
arm___fsym_list_timer_name                        rtthread.arm.lib(cmd.o)
arm___fsym_ls                                     rtthread.arm.lib(msh_file.o)
arm___fsym_ls_desc                                rtthread.arm.lib(msh_file.o)
arm___fsym_ls_name                                rtthread.arm.lib(msh_file.o)
arm___fsym_mkdir                                  rtthread.arm.lib(msh_file.o)
arm___fsym_mkdir_desc                             rtthread.arm.lib(msh_file.o)
arm___fsym_mkdir_name                             rtthread.arm.lib(msh_file.o)
arm___fsym_mkfs                                   rtthread.arm.lib(msh_file.o)
arm___fsym_mkfs_desc                              rtthread.arm.lib(msh_file.o)
arm___fsym_mkfs_name                              rtthread.arm.lib(msh_file.o)
arm___fsym_mount                                  rtthread.arm.lib(msh_file.o)
arm___fsym_mount_desc                             rtthread.arm.lib(msh_file.o)
arm___fsym_mount_name                             rtthread.arm.lib(msh_file.o)
arm___fsym_mv                                     rtthread.arm.lib(msh_file.o)
arm___fsym_mv_desc                                rtthread.arm.lib(msh_file.o)
arm___fsym_mv_name                                rtthread.arm.lib(msh_file.o)
arm___fsym_ps                                     rtthread.arm.lib(msh.o)
arm___fsym_ps_desc                                rtthread.arm.lib(msh.o)
arm___fsym_ps_name                                rtthread.arm.lib(msh.o)
arm___fsym_pwd                                    rtthread.arm.lib(msh_file.o)
arm___fsym_pwd_desc                               rtthread.arm.lib(msh_file.o)
arm___fsym_pwd_name                               rtthread.arm.lib(msh_file.o)
arm___fsym_rm                                     rtthread.arm.lib(msh_file.o)
arm___fsym_rm_desc                                rtthread.arm.lib(msh_file.o)
arm___fsym_rm_name                                rtthread.arm.lib(msh_file.o)
arm___fsym_tail                                   rtthread.arm.lib(msh_file.o)
arm___fsym_tail_desc                              rtthread.arm.lib(msh_file.o)
arm___fsym_tail_name                              rtthread.arm.lib(msh_file.o)
arm___fsym_umount                                 rtthread.arm.lib(msh_file.o)
arm___fsym_umount_desc                            rtthread.arm.lib(msh_file.o)
arm___fsym_umount_name                            rtthread.arm.lib(msh_file.o)
arm___fsym_version                                rtthread.arm.lib(cmd.o)
arm___fsym_version_desc                           rtthread.arm.lib(cmd.o)
arm___fsym_version_name                           rtthread.arm.lib(cmd.o)
arm___fsymtab_end                                 rtthread.arm.lib(shell.o)
arm___fsymtab_start                               rtthread.arm.lib(shell.o)
arm___gedf2                                       build/arm/libgcc.a(gedf2.o)
                                                  build/arm/libgcc.a(_arm_cmpdf2.o)
arm___global_locale                               build/arm/libc.a(lib_a-locale.o)
                                                  build/arm/libc.a(lib_a-wcrtomb.o)
                                                  build/arm/libc.a(lib_a-wctomb_r.o)
                                                  build/arm/libc.a(lib_a-mbtowc_r.o)
                                                  build/arm/libc.a(lib_a-localeconv.o)
arm___gnu_ldivmod_helper                          build/arm/libgcc.a(bpabi.o)
                                                  build/arm/libgcc.a(_aeabi_ldivmod.o)
arm___gtdf2                                       build/arm/libgcc.a(gedf2.o)
arm___hi0bits                                     build/arm/libc.a(lib_a-mprec.o)
                                                  build/arm/libc.a(lib_a-dtoa.o)
arm___i2b                                         build/arm/libc.a(lib_a-mprec.o)
                                                  build/arm/libc.a(lib_a-dtoa.o)
arm___isr_vector                                  startup_RV32M1_cm0.o
arm___ledf2                                       build/arm/libgcc.a(ledf2.o)
                                                  build/arm/libgcc.a(_arm_cmpdf2.o)
arm___libc_init_array                             rtthread.arm.lib(syscalls.o)
arm___lo0bits                                     build/arm/libc.a(lib_a-mprec.o)
arm___locale_mb_cur_max                           build/arm/libc.a(lib_a-locale.o)
                                                  build/arm/libc.a(lib_a-fputwc.o)
arm___localeconv_l                                build/arm/libc.a(lib_a-localeconv.o)
arm___lock___arc4random_mutex                     build/arm/libc.a(lib_a-lock.o)
arm___lock___at_quick_exit_mutex                  build/arm/libc.a(lib_a-lock.o)
arm___lock___atexit_recursive_mutex               build/arm/libc.a(lib_a-lock.o)
arm___lock___dd_hash_mutex                        build/arm/libc.a(lib_a-lock.o)
arm___lock___env_recursive_mutex                  build/arm/libc.a(lib_a-lock.o)
arm___lock___malloc_recursive_mutex               build/arm/libc.a(lib_a-lock.o)
arm___lock___sfp_recursive_mutex                  build/arm/libc.a(lib_a-lock.o)
                                                  build/arm/libc.a(lib_a-findfp.o)
arm___lock___sinit_recursive_mutex                build/arm/libc.a(lib_a-lock.o)
                                                  build/arm/libc.a(lib_a-findfp.o)
arm___lock___tz_mutex                             build/arm/libc.a(lib_a-lock.o)
arm___lowest_bit_bitmap                           rtthread.arm.lib(kservice.o)
arm___lshift                                      build/arm/libc.a(lib_a-mprec.o)
                                                  build/arm/libc.a(lib_a-dtoa.o)
arm___ltdf2                                       build/arm/libgcc.a(ledf2.o)
arm___mcmp                                        build/arm/libc.a(lib_a-mprec.o)
                                                  build/arm/libc.a(lib_a-dtoa.o)
arm___mdiff                                       build/arm/libc.a(lib_a-mprec.o)
                                                  build/arm/libc.a(lib_a-dtoa.o)
arm___mprec_bigtens                               build/arm/libc.a(lib_a-mprec.o)
                                                  build/arm/libc.a(lib_a-dtoa.o)
arm___mprec_tens                                  build/arm/libc.a(lib_a-mprec.o)
                                                  build/arm/libc.a(lib_a-dtoa.o)
arm___mprec_tinytens                              build/arm/libc.a(lib_a-mprec.o)
arm___muldi3                                      build/arm/libgcc.a(_muldi3.o)
arm___multadd                                     build/arm/libc.a(lib_a-mprec.o)
                                                  build/arm/libc.a(lib_a-dtoa.o)
arm___multiply                                    build/arm/libc.a(lib_a-mprec.o)
                                                  build/arm/libc.a(lib_a-dtoa.o)
arm___nedf2                                       build/arm/libgcc.a(eqdf2.o)
arm___pow5mult                                    build/arm/libc.a(lib_a-mprec.o)
                                                  build/arm/libc.a(lib_a-dtoa.o)
arm___ratio                                       build/arm/libc.a(lib_a-mprec.o)
arm___retarget_lock_acquire                       build/arm/libc.a(lib_a-lock.o)
arm___retarget_lock_acquire_recursive             build/arm/libc.a(lib_a-lock.o)
                                                  build/arm/libc.a(lib_a-fputwc.o)
                                                  build/arm/libc.a(lib_a-vfiprintf.o)
                                                  build/arm/libc.a(lib_a-setvbuf.o)
                                                  build/arm/libc.a(lib_a-ftello.o)
                                                  build/arm/libc.a(lib_a-fseeko.o)
                                                  build/arm/libc.a(lib_a-fopen.o)
                                                  build/arm/libc.a(lib_a-findfp.o)
                                                  build/arm/libc.a(lib_a-fileno.o)
                                                  build/arm/libc.a(lib_a-fflush.o)
                                                  build/arm/libc.a(lib_a-fclose.o)
arm___retarget_lock_close                         build/arm/libc.a(lib_a-lock.o)
arm___retarget_lock_close_recursive               build/arm/libc.a(lib_a-lock.o)
                                                  build/arm/libc.a(lib_a-vfiprintf.o)
                                                  build/arm/libc.a(lib_a-fopen.o)
                                                  build/arm/libc.a(lib_a-fclose.o)
arm___retarget_lock_init                          build/arm/libc.a(lib_a-lock.o)
arm___retarget_lock_init_recursive                build/arm/libc.a(lib_a-lock.o)
                                                  build/arm/libc.a(lib_a-vfiprintf.o)
                                                  build/arm/libc.a(lib_a-findfp.o)
arm___retarget_lock_release                       build/arm/libc.a(lib_a-lock.o)
arm___retarget_lock_release_recursive             build/arm/libc.a(lib_a-lock.o)
                                                  build/arm/libc.a(lib_a-fputwc.o)
                                                  build/arm/libc.a(lib_a-vfiprintf.o)
                                                  build/arm/libc.a(lib_a-setvbuf.o)
                                                  build/arm/libc.a(lib_a-ftello.o)
                                                  build/arm/libc.a(lib_a-fseeko.o)
                                                  build/arm/libc.a(lib_a-fopen.o)
                                                  build/arm/libc.a(lib_a-findfp.o)
                                                  build/arm/libc.a(lib_a-fileno.o)
                                                  build/arm/libc.a(lib_a-fflush.o)
                                                  build/arm/libc.a(lib_a-fclose.o)
arm___retarget_lock_try_acquire                   build/arm/libc.a(lib_a-lock.o)
arm___retarget_lock_try_acquire_recursive         build/arm/libc.a(lib_a-lock.o)
arm___rt_ffs                                      rtthread.arm.lib(kservice.o)
                                                  rtthread.arm.lib(scheduler.o)
arm___rt_libc_exit                                rtthread.arm.lib(stdlib.o)
                                                  rtthread.arm.lib(syscalls.o)
arm___s2b                                         build/arm/libc.a(lib_a-mprec.o)
arm___sclose                                      build/arm/libc.a(lib_a-stdio.o)
                                                  build/arm/libc.a(lib_a-fopen.o)
                                                  build/arm/libc.a(lib_a-findfp.o)
arm___seofread                                    build/arm/libc.a(lib_a-stdio.o)
arm___sflags                                      build/arm/libc.a(lib_a-flags.o)
                                                  build/arm/libc.a(lib_a-fopen.o)
arm___sflush_r                                    build/arm/libc.a(lib_a-fflush.o)
                                                  build/arm/libc.a(lib_a-refill.o)
                                                  build/arm/libc.a(lib_a-fclose.o)
arm___sfmoreglue                                  build/arm/libc.a(lib_a-findfp.o)
arm___sfp                                         build/arm/libc.a(lib_a-findfp.o)
                                                  build/arm/libc.a(lib_a-fopen.o)
arm___sfp_lock_acquire                            build/arm/libc.a(lib_a-findfp.o)
                                                  build/arm/libc.a(lib_a-fopen.o)
                                                  build/arm/libc.a(lib_a-fclose.o)
arm___sfp_lock_release                            build/arm/libc.a(lib_a-findfp.o)
                                                  build/arm/libc.a(lib_a-fopen.o)
                                                  build/arm/libc.a(lib_a-fclose.o)
arm___sfvwrite_r                                  build/arm/libc.a(lib_a-fvwrite.o)
                                                  build/arm/libc.a(lib_a-vfiprintf.o)
arm___sigtramp                                    build/arm/libc.a(lib_a-signal.o)
arm___sigtramp_r                                  build/arm/libc.a(lib_a-signal.o)
arm___sinit                                       build/arm/libc.a(lib_a-findfp.o)
                                                  build/arm/libc.a(lib_a-wbuf.o)
                                                  build/arm/libc.a(lib_a-fputwc.o)
                                                  build/arm/libc.a(lib_a-wsetup.o)
                                                  build/arm/libc.a(lib_a-vfiprintf.o)
                                                  build/arm/libc.a(lib_a-setvbuf.o)
                                                  build/arm/libc.a(lib_a-refill.o)
                                                  build/arm/libc.a(lib_a-ftello.o)
                                                  build/arm/libc.a(lib_a-fseeko.o)
                                                  build/arm/libc.a(lib_a-fileno.o)
                                                  build/arm/libc.a(lib_a-fflush.o)
                                                  build/arm/libc.a(lib_a-fclose.o)
arm___sinit_lock_acquire                          build/arm/libc.a(lib_a-findfp.o)
arm___sinit_lock_release                          build/arm/libc.a(lib_a-findfp.o)
arm___smakebuf_r                                  build/arm/libc.a(lib_a-makebuf.o)
                                                  build/arm/libc.a(lib_a-wsetup.o)
                                                  build/arm/libc.a(lib_a-refill.o)
                                                  build/arm/libc.a(lib_a-fseeko.o)
arm___sprint_r                                    build/arm/libc.a(lib_a-vfiprintf.o)
arm___sread                                       build/arm/libc.a(lib_a-stdio.o)
                                                  build/arm/libc.a(lib_a-fopen.o)
                                                  build/arm/libc.a(lib_a-findfp.o)
arm___srefill_r                                   build/arm/libc.a(lib_a-refill.o)
                                                  build/arm/libc.a(lib_a-fseeko.o)
arm___sseek                                       build/arm/libc.a(lib_a-stdio.o)
                                                  build/arm/libc.a(lib_a-fseeko.o)
                                                  build/arm/libc.a(lib_a-fopen.o)
                                                  build/arm/libc.a(lib_a-findfp.o)
arm___ssprint_r                                   build/arm/libc.a(lib_a-svfiprintf.o)
                                                  build/arm/libc.a(lib_a-svfprintf.o)
arm___swbuf                                       build/arm/libc.a(lib_a-wbuf.o)
arm___swbuf_r                                     build/arm/libc.a(lib_a-wbuf.o)
                                                  build/arm/libc.a(lib_a-fputwc.o)
arm___swhatbuf_r                                  build/arm/libc.a(lib_a-makebuf.o)
                                                  build/arm/libc.a(lib_a-setvbuf.o)
arm___swrite                                      build/arm/libc.a(lib_a-stdio.o)
                                                  build/arm/libc.a(lib_a-fopen.o)
                                                  build/arm/libc.a(lib_a-findfp.o)
arm___swsetup_r                                   build/arm/libc.a(lib_a-wsetup.o)
                                                  build/arm/libc.a(lib_a-wbuf.o)
                                                  build/arm/libc.a(lib_a-fvwrite.o)
                                                  build/arm/libc.a(lib_a-vfiprintf.o)
arm___udivmoddi4                                  build/arm/libgcc.a(_udivmoddi4.o)
                                                  build/arm/libgcc.a(_aeabi_uldivmod.o)
arm___udivsi3                                     build/arm/libgcc.a(_udivsi3.o)
arm___ulp                                         build/arm/libc.a(lib_a-mprec.o)
arm___wqueue_default_wake                         rtthread.arm.lib(waitqueue.o)
arm__atoi_r                                       build/arm/libc.a(lib_a-atoi.o)
arm__calloc_r                                     build/arm/libc.a(lib_a-callocr.o)
                                                  build/arm/libc.a(lib_a-mprec.o)
arm__cleanup                                      build/arm/libc.a(lib_a-findfp.o)
arm__cleanup_r                                    build/arm/libc.a(lib_a-findfp.o)
                                                  build/arm/libc.a(lib_a-makebuf.o)
arm__close                                        build/arm/libnosys.a(close.o)
                                                  build/arm/libc.a(lib_a-closer.o)
arm__close_r                                      build/arm/libc.a(lib_a-closer.o)
                                                  build/arm/libc.a(lib_a-stdio.o)
arm__ctype_                                       build/arm/libc.a(lib_a-ctype_.o)
                                                  build/arm/libc.a(lib_a-locale.o)
                                                  build/arm/libc.a(lib_a-strtol.o)
arm__dtoa_r                                       build/arm/libc.a(lib_a-dtoa.o)
                                                  build/arm/libc.a(lib_a-svfprintf.o)
arm__execve_r                                     rtthread.arm.lib(syscalls.o)
arm__exit                                         build/arm/libnosys.a(_exit.o)
                                                  build/arm/libc.a(lib_a-abort.o)
arm__fclose_r                                     build/arm/libc.a(lib_a-fclose.o)
                                                  build/arm/libc.a(lib_a-findfp.o)
arm__fcntl_r                                      rtthread.arm.lib(syscalls.o)
arm__fflush_r                                     build/arm/libc.a(lib_a-fflush.o)
                                                  build/arm/libc.a(lib_a-wbuf.o)
                                                  build/arm/libc.a(lib_a-fvwrite.o)
                                                  build/arm/libc.a(lib_a-vfiprintf.o)
                                                  build/arm/libc.a(lib_a-setvbuf.o)
                                                  build/arm/libc.a(lib_a-refill.o)
                                                  build/arm/libc.a(lib_a-fseeko.o)
arm__fiprintf_r                                   build/arm/libc.a(lib_a-fiprintf.o)
arm__fopen_r                                      build/arm/libc.a(lib_a-fopen.o)
arm__fork_r                                       rtthread.arm.lib(syscalls.o)
arm__fputwc_r                                     build/arm/libc.a(lib_a-fputwc.o)
                                                  build/arm/libc.a(lib_a-vfiprintf.o)
arm__free_r                                       rtthread.arm.lib(syscalls.o)
                                                  build/arm/libc.a(lib_a-fvwrite.o)
                                                  build/arm/libc.a(lib_a-wsetup.o)
                                                  build/arm/libc.a(lib_a-svfiprintf.o)
                                                  build/arm/libc.a(lib_a-malloc.o)
                                                  build/arm/libc.a(lib_a-svfprintf.o)
                                                  build/arm/libc.a(lib_a-setvbuf.o)
                                                  build/arm/libc.a(lib_a-refill.o)
                                                  build/arm/libc.a(lib_a-reent.o)
                                                  build/arm/libc.a(lib_a-fseeko.o)
                                                  build/arm/libc.a(lib_a-fflush.o)
                                                  build/arm/libc.a(lib_a-fclose.o)
arm__fseek_r                                      build/arm/libc.a(lib_a-fseek.o)
                                                  build/arm/libc.a(lib_a-fopen.o)
arm__fseeko_r                                     build/arm/libc.a(lib_a-fseeko.o)
                                                  build/arm/libc.a(lib_a-fseek.o)
arm__fstat                                        build/arm/libnosys.a(fstat.o)
                                                  build/arm/libc.a(lib_a-fstatr.o)
arm__fstat_r                                      build/arm/libc.a(lib_a-fstatr.o)
                                                  build/arm/libc.a(lib_a-makebuf.o)
                                                  build/arm/libc.a(lib_a-fseeko.o)
arm__ftello_r                                     build/arm/libc.a(lib_a-ftello.o)
                                                  build/arm/libc.a(lib_a-fseeko.o)
arm__fwalk                                        build/arm/libc.a(lib_a-fwalk.o)
                                                  build/arm/libc.a(lib_a-refill.o)
                                                  build/arm/libc.a(lib_a-findfp.o)
arm__fwalk_reent                                  build/arm/libc.a(lib_a-fwalk.o)
                                                  build/arm/libc.a(lib_a-findfp.o)
                                                  build/arm/libc.a(lib_a-fflush.o)
arm__getpid                                       build/arm/libnosys.a(getpid.o)
                                                  build/arm/libc.a(lib_a-signalr.o)
arm__getpid_r                                     build/arm/libc.a(lib_a-signalr.o)
                                                  build/arm/libc.a(lib_a-signal.o)
arm__global_impure_ptr                            build/arm/libc.a(lib_a-impure.o)
                                                  build/arm/libc.a(lib_a-refill.o)
                                                  build/arm/libc.a(lib_a-findfp.o)
                                                  build/arm/libc.a(lib_a-fflush.o)
                                                  rtthread.arm.lib(libc.o)
arm__impure_ptr                                   build/arm/libc.a(lib_a-impure.o)
                                                  build/arm/libc.a(lib_a-wcrtomb.o)
                                                  build/arm/libc.a(lib_a-wbuf.o)
                                                  build/arm/libc.a(lib_a-signal.o)
                                                  build/arm/libc.a(lib_a-fputwc.o)
                                                  build/arm/libc.a(lib_a-wsetup.o)
                                                  build/arm/libc.a(lib_a-vfiprintf.o)
                                                  build/arm/libc.a(lib_a-locale.o)
                                                  build/arm/libc.a(lib_a-fiprintf.o)
                                                  build/arm/libc.a(lib_a-assert.o)
                                                  build/arm/libc.a(lib_a-malloc.o)
                                                  build/arm/libc.a(lib_a-errno.o)
                                                  build/arm/libc.a(lib_a-strtol.o)
                                                  build/arm/libc.a(lib_a-snprintf.o)
                                                  build/arm/libc.a(lib_a-setvbuf.o)
                                                  build/arm/libc.a(lib_a-reent.o)
                                                  build/arm/libc.a(lib_a-ftello.o)
                                                  build/arm/libc.a(lib_a-fseeko.o)
                                                  build/arm/libc.a(lib_a-fseek.o)
                                                  build/arm/libc.a(lib_a-fopen.o)
                                                  build/arm/libc.a(lib_a-findfp.o)
                                                  build/arm/libc.a(lib_a-fileno.o)
                                                  build/arm/libc.a(lib_a-fflush.o)
                                                  build/arm/libc.a(lib_a-fclose.o)
arm__init_signal                                  build/arm/libc.a(lib_a-signal.o)
arm__init_signal_r                                build/arm/libc.a(lib_a-signal.o)
arm__isatty                                       build/arm/libnosys.a(isatty.o)
                                                  build/arm/libc.a(lib_a-isattyr.o)
arm__isatty_r                                     build/arm/libc.a(lib_a-isattyr.o)
                                                  build/arm/libc.a(lib_a-makebuf.o)
arm__kill                                         build/arm/libnosys.a(kill.o)
                                                  build/arm/libc.a(lib_a-signalr.o)
arm__kill_r                                       build/arm/libc.a(lib_a-signalr.o)
                                                  build/arm/libc.a(lib_a-signal.o)
arm__link_r                                       rtthread.arm.lib(syscalls.o)
arm__localeconv_r                                 build/arm/libc.a(lib_a-localeconv.o)
                                                  build/arm/libc.a(lib_a-vfiprintf.o)
                                                  build/arm/libc.a(lib_a-svfiprintf.o)
                                                  build/arm/libc.a(lib_a-svfprintf.o)
arm__lseek_r                                      rtthread.arm.lib(syscalls.o)
                                                  build/arm/libc.a(lib_a-stdio.o)
arm__malloc_r                                     rtthread.arm.lib(syscalls.o)
                                                  build/arm/libc.a(lib_a-signal.o)
                                                  build/arm/libc.a(lib_a-fvwrite.o)
                                                  build/arm/libc.a(lib_a-callocr.o)
                                                  build/arm/libc.a(lib_a-svfiprintf.o)
                                                  build/arm/libc.a(lib_a-malloc.o)
                                                  build/arm/libc.a(lib_a-svfprintf.o)
                                                  build/arm/libc.a(lib_a-makebuf.o)
                                                  build/arm/libc.a(lib_a-findfp.o)
arm__mbtowc_r                                     build/arm/libc.a(lib_a-mbtowc_r.o)
arm__mkdir_r                                      rtthread.arm.lib(syscalls.o)
arm__mprec_log10                                  build/arm/libc.a(lib_a-mprec.o)
arm__open_r                                       rtthread.arm.lib(syscalls.o)
                                                  build/arm/libc.a(lib_a-fopen.o)
arm__pthread_data_create                          rtthread.arm.lib(pthread.o)
arm__pthread_data_destroy                         rtthread.arm.lib(pthread.o)
arm__pthread_data_get_pth                         rtthread.arm.lib(pthread.o)
arm__pthread_get_data                             rtthread.arm.lib(pthread.o)
arm__raise_r                                      build/arm/libc.a(lib_a-signal.o)
arm__read_r                                       rtthread.arm.lib(syscalls.o)
                                                  build/arm/libc.a(lib_a-stdio.o)
arm__realloc_r                                    rtthread.arm.lib(syscalls.o)
                                                  build/arm/libc.a(lib_a-fvwrite.o)
                                                  build/arm/libc.a(lib_a-svfiprintf.o)
arm__reclaim_reent                                build/arm/libc.a(lib_a-reent.o)
arm__rename_r                                     rtthread.arm.lib(syscalls.o)
arm__rt_errno                                     rtthread.arm.lib(kservice.o)
                                                  rtthread.arm.lib(syscalls.o)
arm__setlocale_r                                  build/arm/libc.a(lib_a-locale.o)
arm__signal_r                                     build/arm/libc.a(lib_a-signal.o)
arm__snprintf_r                                   build/arm/libc.a(lib_a-snprintf.o)
arm__stat_r                                       rtthread.arm.lib(syscalls.o)
arm__strtol_r                                     build/arm/libc.a(lib_a-strtol.o)
                                                  build/arm/libc.a(lib_a-atoi.o)
arm__svfiprintf_r                                 build/arm/libc.a(lib_a-svfiprintf.o)
arm__svfprintf_r                                  build/arm/libc.a(lib_a-svfprintf.o)
                                                  build/arm/libc.a(lib_a-snprintf.o)
arm__syscall_table_begin                          rtthread.arm.lib(shell.o)
                                                  rtthread.arm.lib(msh.o)
arm__syscall_table_end                            rtthread.arm.lib(shell.o)
                                                  rtthread.arm.lib(msh.o)
arm__thread_keys                                  rtthread.arm.lib(pthread_tls.o)
                                                  rtthread.arm.lib(pthread.o)
arm__uart_ops                                     rtthread.arm.lib(drv_uart.o)
arm__unlink_r                                     rtthread.arm.lib(syscalls.o)
arm__vfiprintf_r                                  build/arm/libc.a(lib_a-vfiprintf.o)
                                                  build/arm/libc.a(lib_a-fiprintf.o)
arm__wait_r                                       rtthread.arm.lib(syscalls.o)
arm__wcrtomb_r                                    build/arm/libc.a(lib_a-wcrtomb.o)
                                                  build/arm/libc.a(lib_a-fputwc.o)
arm__wctomb_r                                     build/arm/libc.a(lib_a-wctomb_r.o)
arm__write_r                                      rtthread.arm.lib(syscalls.o)
                                                  build/arm/libc.a(lib_a-stdio.o)
arm_abort                                         build/arm/libc.a(lib_a-abort.o)
                                                  build/arm/libc.a(lib_a-assert.o)
arm_access                                        rtthread.arm.lib(dfs_posix.o)
arm_asctime                                       rtthread.arm.lib(time.o)
arm_asctime_r                                     rtthread.arm.lib(time.o)
arm_atoi                                          build/arm/libc.a(lib_a-atoi.o)
                                                  rtthread.arm.lib(msh_file.o)
                                                  rtthread.arm.lib(serial.o)
arm_cat                                           rtthread.arm.lib(dfs_file.o)
                                                  rtthread.arm.lib(msh_file.o)
arm_chdir                                         rtthread.arm.lib(dfs_posix.o)
                                                  rtthread.arm.lib(msh_file.o)
arm_cleanup_glue                                  build/arm/libc.a(lib_a-reent.o)
arm_clock                                         rtthread.arm.lib(time.o)
arm_clock_getres                                  rtthread.arm.lib(time.o)
arm_clock_gettime                                 rtthread.arm.lib(time.o)
arm_clock_nanosleep                               rtthread.arm.lib(time.o)
arm_clock_settime                                 rtthread.arm.lib(time.o)
arm_close                                         rtthread.arm.lib(dfs_posix.o)
                                                  rtthread.arm.lib(syscalls.o)
                                                  rtthread.arm.lib(msh_file.o)
arm_closedir                                      rtthread.arm.lib(dfs_posix.o)
                                                  rtthread.arm.lib(msh_file.o)
                                                  rtthread.arm.lib(msh.o)
arm_cmd_free                                      rtthread.arm.lib(msh.o)
arm_cmd_ps                                        rtthread.arm.lib(msh.o)
arm_copy                                          rtthread.arm.lib(dfs_file.o)
                                                  rtthread.arm.lib(msh_file.o)
arm_creat                                         rtthread.arm.lib(dfs_posix.o)
arm_ctime                                         rtthread.arm.lib(time.o)
arm_ctime_r                                       rtthread.arm.lib(time.o)
arm_dec32                                         rtthread.arm.lib(main.o)
arm_devfs_init                                    rtthread.arm.lib(devfs.o)
                                                  rtthread.arm.lib(dfs.o)
arm_df                                            rtthread.arm.lib(dfs_fs.o)
                                                  rtthread.arm.lib(msh_file.o)
arm_dfs_device_fs_close                           rtthread.arm.lib(devfs.o)
arm_dfs_device_fs_getdents                        rtthread.arm.lib(devfs.o)
arm_dfs_device_fs_ioctl                           rtthread.arm.lib(devfs.o)
arm_dfs_device_fs_mount                           rtthread.arm.lib(devfs.o)
arm_dfs_device_fs_open                            rtthread.arm.lib(devfs.o)
arm_dfs_device_fs_read                            rtthread.arm.lib(devfs.o)
arm_dfs_device_fs_stat                            rtthread.arm.lib(devfs.o)
arm_dfs_device_fs_write                           rtthread.arm.lib(devfs.o)
arm_dfs_fdtable_get                               rtthread.arm.lib(dfs.o)
arm_dfs_file_close                                rtthread.arm.lib(dfs_file.o)
                                                  rtthread.arm.lib(dfs_fs.o)
                                                  rtthread.arm.lib(dfs_posix.o)
arm_dfs_file_flush                                rtthread.arm.lib(dfs_file.o)
                                                  rtthread.arm.lib(dfs_posix.o)
arm_dfs_file_ftruncate                            rtthread.arm.lib(dfs_file.o)
                                                  rtthread.arm.lib(dfs_posix.o)
arm_dfs_file_getdents                             rtthread.arm.lib(dfs_file.o)
                                                  rtthread.arm.lib(dfs_posix.o)
arm_dfs_file_ioctl                                rtthread.arm.lib(dfs_file.o)
                                                  rtthread.arm.lib(dfs_posix.o)
arm_dfs_file_lseek                                rtthread.arm.lib(dfs_file.o)
                                                  rtthread.arm.lib(dfs_posix.o)
arm_dfs_file_open                                 rtthread.arm.lib(dfs_file.o)
                                                  rtthread.arm.lib(dfs_fs.o)
                                                  rtthread.arm.lib(dfs_posix.o)
arm_dfs_file_read                                 rtthread.arm.lib(dfs_file.o)
                                                  rtthread.arm.lib(dfs_posix.o)
arm_dfs_file_rename                               rtthread.arm.lib(dfs_file.o)
                                                  rtthread.arm.lib(dfs_posix.o)
arm_dfs_file_stat                                 rtthread.arm.lib(dfs_file.o)
                                                  rtthread.arm.lib(dfs_posix.o)
arm_dfs_file_unlink                               rtthread.arm.lib(dfs_file.o)
                                                  rtthread.arm.lib(dfs_posix.o)
arm_dfs_file_write                                rtthread.arm.lib(dfs_file.o)
                                                  rtthread.arm.lib(dfs_posix.o)
arm_dfs_filesystem_get_mounted_path               rtthread.arm.lib(dfs_fs.o)
arm_dfs_filesystem_get_partition                  rtthread.arm.lib(dfs_fs.o)
arm_dfs_filesystem_lookup                         rtthread.arm.lib(dfs_fs.o)
                                                  rtthread.arm.lib(dfs_file.o)
                                                  rtthread.arm.lib(dfs.o)
arm_dfs_init                                      rtthread.arm.lib(dfs.o)
arm_dfs_lock                                      rtthread.arm.lib(dfs.o)
                                                  rtthread.arm.lib(dfs_fs.o)
                                                  rtthread.arm.lib(dfs_posix.o)
arm_dfs_mkfs                                      rtthread.arm.lib(dfs_fs.o)
                                                  rtthread.arm.lib(msh_file.o)
arm_dfs_mount                                     rtthread.arm.lib(dfs_fs.o)
                                                  rtthread.arm.lib(msh_file.o)
                                                  rtthread.arm.lib(dfs.o)
arm_dfs_normalize_path                            rtthread.arm.lib(dfs.o)
                                                  rtthread.arm.lib(dfs_file.o)
                                                  rtthread.arm.lib(dfs_fs.o)
                                                  rtthread.arm.lib(dfs_posix.o)
arm_dfs_register                                  rtthread.arm.lib(dfs_fs.o)
                                                  rtthread.arm.lib(devfs.o)
arm_dfs_statfs                                    rtthread.arm.lib(dfs_fs.o)
                                                  rtthread.arm.lib(dfs_posix.o)
arm_dfs_subdir                                    rtthread.arm.lib(dfs.o)
                                                  rtthread.arm.lib(dfs_file.o)
arm_dfs_unlock                                    rtthread.arm.lib(dfs.o)
                                                  rtthread.arm.lib(dfs_fs.o)
                                                  rtthread.arm.lib(dfs_posix.o)
arm_dfs_unmount                                   rtthread.arm.lib(dfs_fs.o)
                                                  rtthread.arm.lib(msh_file.o)
arm_difftime                                      rtthread.arm.lib(time.o)
arm_enc32                                         rtthread.arm.lib(main.o)
arm_entry                                         rtthread.arm.lib(startup.o)
                                                  startup_RV32M1_cm0.o
arm_errno                                         build/arm/libc.a(lib_a-reent.o)
                                                  build/arm/libnosys.a(kill.o)
                                                  build/arm/libnosys.a(isatty.o)
                                                  build/arm/libnosys.a(getpid.o)
                                                  build/arm/libnosys.a(fstat.o)
                                                  build/arm/libnosys.a(close.o)
                                                  build/arm/libc.a(lib_a-signalr.o)
                                                  build/arm/libc.a(lib_a-isattyr.o)
                                                  build/arm/libc.a(lib_a-closer.o)
                                                  build/arm/libc.a(lib_a-fstatr.o)
arm_fclose                                        build/arm/libc.a(lib_a-fclose.o)
                                                  rtthread.arm.lib(libc.o)
arm_fcntl                                         rtthread.arm.lib(dfs_posix.o)
arm_fd_get                                        rtthread.arm.lib(dfs.o)
                                                  rtthread.arm.lib(dfs_posix.o)
arm_fd_is_open                                    rtthread.arm.lib(dfs.o)
                                                  rtthread.arm.lib(dfs_file.o)
arm_fd_new                                        rtthread.arm.lib(dfs.o)
                                                  rtthread.arm.lib(dfs_posix.o)
arm_fd_put                                        rtthread.arm.lib(dfs.o)
                                                  rtthread.arm.lib(dfs_posix.o)
arm_fflush                                        build/arm/libc.a(lib_a-fflush.o)
                                                  build/arm/libc.a(lib_a-refill.o)
arm_fileno                                        build/arm/libc.a(lib_a-fileno.o)
                                                  rtthread.arm.lib(libc.o)
arm_finsh_get_echo                                rtthread.arm.lib(shell.o)
arm_finsh_get_prompt                              rtthread.arm.lib(shell.o)
arm_finsh_get_prompt_mode                         rtthread.arm.lib(shell.o)
arm_finsh_getchar                                 rtthread.arm.lib(shell.o)
                                                  rtthread.arm.lib(serial.o)
arm_finsh_set_echo                                rtthread.arm.lib(shell.o)
arm_finsh_set_prompt                              rtthread.arm.lib(shell.o)
arm_finsh_set_prompt_mode                         rtthread.arm.lib(shell.o)
arm_finsh_system_function_init                    rtthread.arm.lib(shell.o)
arm_finsh_system_init                             rtthread.arm.lib(shell.o)
arm_finsh_thread_entry                            rtthread.arm.lib(shell.o)
arm_fiprintf                                      build/arm/libc.a(lib_a-fiprintf.o)
                                                  build/arm/libc.a(lib_a-assert.o)
arm_flock                                         rtthread.arm.lib(syscalls.o)
arm_fopen                                         build/arm/libc.a(lib_a-fopen.o)
                                                  rtthread.arm.lib(libc.o)
arm_fputwc                                        build/arm/libc.a(lib_a-fputwc.o)
arm_free                                          build/arm/libc.a(lib_a-malloc.o)
arm_frexp                                         build/arm/libc.a(lib_a-s_frexp.o)
                                                  build/arm/libc.a(lib_a-svfprintf.o)
arm_fseek                                         build/arm/libc.a(lib_a-fseek.o)
arm_fseeko                                        build/arm/libc.a(lib_a-fseeko.o)
arm_fstat                                         rtthread.arm.lib(dfs_posix.o)
arm_fsync                                         rtthread.arm.lib(dfs_posix.o)
arm_ftello                                        build/arm/libc.a(lib_a-ftello.o)
arm_ftruncate                                     rtthread.arm.lib(dfs_posix.o)
arm_g_xtal0Freq                                   rtthread.arm.lib(fsl_clock.o)
arm_g_xtal32Freq                                  rtthread.arm.lib(fsl_clock.o)
arm_getcwd                                        rtthread.arm.lib(dfs_posix.o)
                                                  rtthread.arm.lib(msh.o)
                                                  rtthread.arm.lib(shell.o)
arm_gettimeofday                                  rtthread.arm.lib(time.o)
arm_gmtime                                        rtthread.arm.lib(time.o)
arm_gmtime_r                                      rtthread.arm.lib(time.o)
arm_ioctl                                         rtthread.arm.lib(dfs_posix.o)
arm_isatty                                        rtthread.arm.lib(libc.o)
arm_libc_stdio_get_console                        rtthread.arm.lib(libc.o)
                                                  rtthread.arm.lib(syscalls.o)
                                                  rtthread.arm.lib(dfs.o)
arm_libc_stdio_set_console                        rtthread.arm.lib(libc.o)
arm_libc_system_init                              rtthread.arm.lib(libc.o)
arm_list_device                                   rtthread.arm.lib(cmd.o)
arm_list_event                                    rtthread.arm.lib(cmd.o)
arm_list_fd                                       rtthread.arm.lib(dfs.o)
arm_list_mailbox                                  rtthread.arm.lib(cmd.o)
arm_list_mempool                                  rtthread.arm.lib(cmd.o)
arm_list_msgqueue                                 rtthread.arm.lib(cmd.o)
arm_list_mutex                                    rtthread.arm.lib(cmd.o)
arm_list_sem                                      rtthread.arm.lib(cmd.o)
arm_list_thread                                   rtthread.arm.lib(cmd.o)
                                                  rtthread.arm.lib(msh.o)
                                                  rtthread.arm.lib(cpuport.o)
arm_list_timer                                    rtthread.arm.lib(cmd.o)
arm_localeconv                                    build/arm/libc.a(lib_a-localeconv.o)
arm_localtime                                     rtthread.arm.lib(time.o)
arm_localtime_r                                   rtthread.arm.lib(time.o)
arm_ls                                            rtthread.arm.lib(dfs_file.o)
                                                  rtthread.arm.lib(msh_file.o)
arm_lseek                                         rtthread.arm.lib(dfs_posix.o)
                                                  rtthread.arm.lib(syscalls.o)
                                                  rtthread.arm.lib(msh_file.o)
arm_main                                          rtthread.arm.lib(main.o)
                                                  rtthread.arm.lib(startup.o)
arm_main_thread_entry                             rtthread.arm.lib(startup.o)
arm_malloc                                        build/arm/libc.a(lib_a-malloc.o)
                                                  build/arm/libc.a(lib_a-setvbuf.o)
arm_mdelay                                        rtthread.arm.lib(delay.o)
                                                  rtthread.arm.lib(main.o)
arm_memchr                                        build/arm/libc.a(lib_a-memchr-stub.o)
                                                  build/arm/libc.a(lib_a-fvwrite.o)
                                                  build/arm/libc.a(lib_a-vfiprintf.o)
                                                  build/arm/libc.a(lib_a-svfiprintf.o)
                                                  build/arm/libc.a(lib_a-svfprintf.o)
arm_memcmp                                        build/arm/libc.a(lib_a-memcmp.o)
                                                  build/arm/libc.a(lib_a-strstr.o)
                                                  rtthread.arm.lib(shell.o)
arm_memcpy                                        build/arm/libc.a(lib_a-memcpy-stub.o)
                                                  build/arm/libc.a(lib_a-fvwrite.o)
                                                  build/arm/libc.a(lib_a-svfiprintf.o)
                                                  build/arm/libc.a(lib_a-mprec.o)
                                                  build/arm/libc.a(lib_a-dtoa.o)
                                                  rtthread.arm.lib(msh.o)
                                                  rtthread.arm.lib(shell.o)
arm_memmove                                       build/arm/libc.a(lib_a-memmove.o)
                                                  build/arm/libc.a(lib_a-fvwrite.o)
                                                  build/arm/libc.a(lib_a-svfiprintf.o)
arm_memset                                        build/arm/libc.a(lib_a-memset.o)
                                                  build/arm/libc.a(lib_a-callocr.o)
                                                  build/arm/libc.a(lib_a-strstr.o)
                                                  build/arm/libc.a(lib_a-fseeko.o)
                                                  build/arm/libc.a(lib_a-findfp.o)
                                                  rtthread.arm.lib(pthread_attr.o)
                                                  rtthread.arm.lib(time.o)
                                                  rtthread.arm.lib(pthread.o)
                                                  rtthread.arm.lib(main.o)
                                                  rtthread.arm.lib(fsl_lpuart.o)
arm_mkdir                                         rtthread.arm.lib(dfs_posix.o)
                                                  rtthread.arm.lib(syscalls.o)
                                                  rtthread.arm.lib(msh_file.o)
                                                  rtthread.arm.lib(dfs_file.o)
arm_mkfs                                          rtthread.arm.lib(dfs_fs.o)
arm_mktime                                        rtthread.arm.lib(time.o)
arm_msh_auto_complete                             rtthread.arm.lib(msh.o)
                                                  rtthread.arm.lib(shell.o)
arm_msh_auto_complete_path                        rtthread.arm.lib(msh.o)
arm_msh_exec                                      rtthread.arm.lib(msh.o)
                                                  rtthread.arm.lib(msh_file.o)
                                                  rtthread.arm.lib(shell.o)
arm_msh_exec_script                               rtthread.arm.lib(msh_file.o)
                                                  rtthread.arm.lib(msh.o)
arm_msh_help                                      rtthread.arm.lib(msh.o)
arm_msleep                                        rtthread.arm.lib(delay.o)
arm_nanosleep                                     rtthread.arm.lib(time.o)
arm_ndelay                                        rtthread.arm.lib(delay.o)
                                                  rtthread.arm.lib(time.o)
arm_open                                          rtthread.arm.lib(dfs_posix.o)
                                                  rtthread.arm.lib(syscalls.o)
                                                  rtthread.arm.lib(msh_file.o)
arm_opendir                                       rtthread.arm.lib(dfs_posix.o)
                                                  rtthread.arm.lib(msh_file.o)
                                                  rtthread.arm.lib(msh.o)
arm_posix_sem_system_init                         rtthread.arm.lib(semaphore.o)
arm_pthread_atfork                                rtthread.arm.lib(pthread.o)
arm_pthread_attr_destroy                          rtthread.arm.lib(pthread_attr.o)
arm_pthread_attr_getdetachstate                   rtthread.arm.lib(pthread_attr.o)
arm_pthread_attr_getguardsize                     rtthread.arm.lib(pthread_attr.o)
arm_pthread_attr_getinheritsched                  rtthread.arm.lib(pthread_attr.o)
arm_pthread_attr_getschedparam                    rtthread.arm.lib(pthread_attr.o)
                                                  rtthread.arm.lib(pthread.o)
arm_pthread_attr_getschedpolicy                   rtthread.arm.lib(pthread_attr.o)
                                                  rtthread.arm.lib(pthread.o)
arm_pthread_attr_getscope                         rtthread.arm.lib(pthread_attr.o)
arm_pthread_attr_getstack                         rtthread.arm.lib(pthread_attr.o)
arm_pthread_attr_getstackaddr                     rtthread.arm.lib(pthread_attr.o)
arm_pthread_attr_getstacksize                     rtthread.arm.lib(pthread_attr.o)
arm_pthread_attr_init                             rtthread.arm.lib(pthread_attr.o)
                                                  rtthread.arm.lib(pthread.o)
arm_pthread_attr_setdetachstate                   rtthread.arm.lib(pthread_attr.o)
arm_pthread_attr_setguardsize                     rtthread.arm.lib(pthread_attr.o)
arm_pthread_attr_setinheritsched                  rtthread.arm.lib(pthread_attr.o)
arm_pthread_attr_setschedparam                    rtthread.arm.lib(pthread_attr.o)
                                                  rtthread.arm.lib(pthread.o)
arm_pthread_attr_setschedpolicy                   rtthread.arm.lib(pthread_attr.o)
                                                  rtthread.arm.lib(pthread.o)
arm_pthread_attr_setscope                         rtthread.arm.lib(pthread_attr.o)
arm_pthread_attr_setstack                         rtthread.arm.lib(pthread_attr.o)
arm_pthread_attr_setstackaddr                     rtthread.arm.lib(pthread_attr.o)
arm_pthread_attr_setstacksize                     rtthread.arm.lib(pthread_attr.o)
arm_pthread_cancel                                rtthread.arm.lib(pthread.o)
arm_pthread_cleanup_pop                           rtthread.arm.lib(pthread.o)
arm_pthread_cleanup_push                          rtthread.arm.lib(pthread.o)
arm_pthread_create                                rtthread.arm.lib(pthread.o)
                                                  rtthread.arm.lib(main.o)
arm_pthread_default_attr                          rtthread.arm.lib(pthread_attr.o)
arm_pthread_detach                                rtthread.arm.lib(pthread.o)
arm_pthread_exit                                  rtthread.arm.lib(pthread.o)
                                                  rtthread.arm.lib(stdlib.o)
arm_pthread_getconcurrency                        rtthread.arm.lib(pthread.o)
arm_pthread_getcpuclockid                         rtthread.arm.lib(pthread.o)
arm_pthread_getschedparam                         rtthread.arm.lib(pthread.o)
arm_pthread_getspecific                           rtthread.arm.lib(pthread_tls.o)
arm_pthread_join                                  rtthread.arm.lib(pthread.o)
                                                  rtthread.arm.lib(main.o)
arm_pthread_key_create                            rtthread.arm.lib(pthread_tls.o)
arm_pthread_key_delete                            rtthread.arm.lib(pthread_tls.o)
arm_pthread_kill                                  rtthread.arm.lib(pthread.o)
arm_pthread_once                                  rtthread.arm.lib(pthread.o)
arm_pthread_self                                  rtthread.arm.lib(pthread.o)
arm_pthread_setcancelstate                        rtthread.arm.lib(pthread.o)
arm_pthread_setcanceltype                         rtthread.arm.lib(pthread.o)
arm_pthread_setconcurrency                        rtthread.arm.lib(pthread.o)
arm_pthread_setschedparam                         rtthread.arm.lib(pthread.o)
arm_pthread_setschedprio                          rtthread.arm.lib(pthread.o)
arm_pthread_setspecific                           rtthread.arm.lib(pthread_tls.o)
arm_pthread_testcancel                            rtthread.arm.lib(pthread.o)
arm_raise                                         build/arm/libc.a(lib_a-signal.o)
                                                  build/arm/libc.a(lib_a-abort.o)
arm_read                                          rtthread.arm.lib(dfs_posix.o)
                                                  rtthread.arm.lib(syscalls.o)
                                                  rtthread.arm.lib(msh_file.o)
                                                  rtthread.arm.lib(shell.o)
arm_readdir                                       rtthread.arm.lib(dfs_posix.o)
                                                  rtthread.arm.lib(msh_file.o)
                                                  rtthread.arm.lib(msh.o)
arm_rename                                        rtthread.arm.lib(dfs_posix.o)
                                                  rtthread.arm.lib(syscalls.o)
                                                  rtthread.arm.lib(msh_file.o)
arm_rewinddir                                     rtthread.arm.lib(dfs_posix.o)
                                                  rtthread.arm.lib(msh.o)
arm_rm                                            rtthread.arm.lib(dfs_file.o)
arm_rmdir                                         rtthread.arm.lib(dfs_posix.o)
arm_rt_application_init                           rtthread.arm.lib(startup.o)
arm_rt_assert_handler                             rtthread.arm.lib(kservice.o)
                                                  rtthread.arm.lib(pthread_attr.o)
                                                  rtthread.arm.lib(time.o)
                                                  rtthread.arm.lib(pthread_tls.o)
                                                  rtthread.arm.lib(pthread.o)
                                                  rtthread.arm.lib(completion.o)
                                                  rtthread.arm.lib(devfs.o)
                                                  rtthread.arm.lib(dfs.o)
                                                  rtthread.arm.lib(dfs_fs.o)
                                                  rtthread.arm.lib(mem.o)
                                                  rtthread.arm.lib(ulog.o)
                                                  rtthread.arm.lib(msh.o)
                                                  rtthread.arm.lib(shell.o)
                                                  rtthread.arm.lib(serial.o)
                                                  rtthread.arm.lib(thread.o)
                                                  rtthread.arm.lib(scheduler.o)
                                                  rtthread.arm.lib(device.o)
                                                  rtthread.arm.lib(ipc.o)
                                                  rtthread.arm.lib(object.o)
                                                  rtthread.arm.lib(timer.o)
                                                  rtthread.arm.lib(drv_uart.o)
                                                  rtthread.arm.lib(board.o)
                                                  rtthread.arm.lib(startup.o)
arm_rt_assert_hook                                rtthread.arm.lib(kservice.o)
arm_rt_assert_set_hook                            rtthread.arm.lib(kservice.o)
arm_rt_calloc                                     rtthread.arm.lib(kservice.o)
                                                  rtthread.arm.lib(syscalls.o)
                                                  rtthread.arm.lib(dfs.o)
                                                  rtthread.arm.lib(shell.o)
arm_rt_completion_done                            rtthread.arm.lib(completion.o)
                                                  rtthread.arm.lib(serial.o)
arm_rt_completion_init                            rtthread.arm.lib(completion.o)
                                                  rtthread.arm.lib(serial.o)
arm_rt_completion_wait                            rtthread.arm.lib(completion.o)
                                                  rtthread.arm.lib(serial.o)
arm_rt_console_get_device                         rtthread.arm.lib(kservice.o)
                                                  rtthread.arm.lib(syscalls.o)
                                                  rtthread.arm.lib(console_be.o)
                                                  rtthread.arm.lib(libc.o)
arm_rt_console_set_device                         rtthread.arm.lib(kservice.o)
                                                  rtthread.arm.lib(board.o)
arm_rt_cpu_index                                  rtthread.arm.lib(cpu.o)
                                                  rtthread.arm.lib(scheduler.o)
                                                  rtthread.arm.lib(clock.o)
                                                  rtthread.arm.lib(board.o)
arm_rt_cpu_self                                   rtthread.arm.lib(cpu.o)
                                                  rtthread.arm.lib(irq.o)
                                                  rtthread.arm.lib(thread.o)
                                                  rtthread.arm.lib(scheduler.o)
                                                  rtthread.arm.lib(clock.o)
arm_rt_cpus_lock                                  rtthread.arm.lib(cpu.o)
                                                  rtthread.arm.lib(time.o)
                                                  rtthread.arm.lib(waitqueue.o)
                                                  rtthread.arm.lib(completion.o)
                                                  rtthread.arm.lib(ulog.o)
                                                  rtthread.arm.lib(cmd.o)
                                                  rtthread.arm.lib(serial.o)
                                                  rtthread.arm.lib(irq.o)
                                                  rtthread.arm.lib(thread.o)
                                                  rtthread.arm.lib(scheduler.o)
                                                  rtthread.arm.lib(ipc.o)
                                                  rtthread.arm.lib(clock.o)
                                                  rtthread.arm.lib(object.o)
                                                  rtthread.arm.lib(timer.o)
                                                  rtthread.arm.lib(idle.o)
                                                  rtthread.arm.lib(board.o)
                                                  rtthread.arm.lib(startup.o)
arm_rt_cpus_lock_status_restore                   rtthread.arm.lib(cpu.o)
                                                  rtthread.arm.lib(context_gcc.o)
arm_rt_cpus_unlock                                rtthread.arm.lib(cpu.o)
                                                  rtthread.arm.lib(time.o)
                                                  rtthread.arm.lib(waitqueue.o)
                                                  rtthread.arm.lib(completion.o)
                                                  rtthread.arm.lib(ulog.o)
                                                  rtthread.arm.lib(cmd.o)
                                                  rtthread.arm.lib(serial.o)
                                                  rtthread.arm.lib(irq.o)
                                                  rtthread.arm.lib(thread.o)
                                                  rtthread.arm.lib(scheduler.o)
                                                  rtthread.arm.lib(ipc.o)
                                                  rtthread.arm.lib(clock.o)
                                                  rtthread.arm.lib(object.o)
                                                  rtthread.arm.lib(timer.o)
                                                  rtthread.arm.lib(idle.o)
arm_rt_critical_level                             rtthread.arm.lib(scheduler.o)
arm_rt_current_thread                             rtthread.arm.lib(board.o)
                                                  rtthread.arm.lib(cpuport.o)
arm_rt_device_close                               rtthread.arm.lib(device.o)
                                                  rtthread.arm.lib(devfs.o)
                                                  rtthread.arm.lib(dfs_fs.o)
                                                  rtthread.arm.lib(serial.o)
                                                  rtthread.arm.lib(kservice.o)
arm_rt_device_control                             rtthread.arm.lib(device.o)
                                                  rtthread.arm.lib(devfs.o)
                                                  rtthread.arm.lib(serial.o)
arm_rt_device_create                              rtthread.arm.lib(device.o)
arm_rt_device_destroy                             rtthread.arm.lib(device.o)
arm_rt_device_find                                rtthread.arm.lib(device.o)
                                                  rtthread.arm.lib(devfs.o)
                                                  rtthread.arm.lib(dfs_fs.o)
                                                  rtthread.arm.lib(kservice.o)
arm_rt_device_init                                rtthread.arm.lib(device.o)
arm_rt_device_open                                rtthread.arm.lib(device.o)
                                                  rtthread.arm.lib(devfs.o)
                                                  rtthread.arm.lib(dfs_fs.o)
                                                  rtthread.arm.lib(serial.o)
                                                  rtthread.arm.lib(kservice.o)
arm_rt_device_read                                rtthread.arm.lib(device.o)
                                                  rtthread.arm.lib(devfs.o)
                                                  rtthread.arm.lib(serial.o)
arm_rt_device_register                            rtthread.arm.lib(device.o)
                                                  rtthread.arm.lib(serial.o)
arm_rt_device_set_rx_indicate                     rtthread.arm.lib(device.o)
                                                  rtthread.arm.lib(serial.o)
arm_rt_device_set_tx_complete                     rtthread.arm.lib(device.o)
arm_rt_device_unregister                          rtthread.arm.lib(device.o)
arm_rt_device_write                               rtthread.arm.lib(device.o)
                                                  rtthread.arm.lib(syscalls.o)
                                                  rtthread.arm.lib(console_be.o)
                                                  rtthread.arm.lib(devfs.o)
                                                  rtthread.arm.lib(serial.o)
                                                  rtthread.arm.lib(kservice.o)
arm_rt_enter_critical                             rtthread.arm.lib(scheduler.o)
                                                  rtthread.arm.lib(pthread_tls.o)
                                                  rtthread.arm.lib(pthread.o)
                                                  rtthread.arm.lib(devfs.o)
                                                  rtthread.arm.lib(dfs.o)
                                                  rtthread.arm.lib(object.o)
arm_rt_event_control                              rtthread.arm.lib(ipc.o)
arm_rt_event_create                               rtthread.arm.lib(ipc.o)
arm_rt_event_delete                               rtthread.arm.lib(ipc.o)
arm_rt_event_detach                               rtthread.arm.lib(ipc.o)
arm_rt_event_init                                 rtthread.arm.lib(ipc.o)
arm_rt_event_recv                                 rtthread.arm.lib(ipc.o)
arm_rt_event_send                                 rtthread.arm.lib(ipc.o)
arm_rt_exit_critical                              rtthread.arm.lib(scheduler.o)
                                                  rtthread.arm.lib(pthread_tls.o)
                                                  rtthread.arm.lib(pthread.o)
                                                  rtthread.arm.lib(devfs.o)
                                                  rtthread.arm.lib(dfs.o)
                                                  rtthread.arm.lib(object.o)
arm_rt_free                                       rtthread.arm.lib(kservice.o)
                                                  rtthread.arm.lib(syscalls.o)
                                                  rtthread.arm.lib(pthread.o)
                                                  rtthread.arm.lib(semaphore.o)
                                                  rtthread.arm.lib(msh_file.o)
                                                  rtthread.arm.lib(devfs.o)
                                                  rtthread.arm.lib(dfs_file.o)
                                                  rtthread.arm.lib(dfs.o)
                                                  rtthread.arm.lib(dfs_fs.o)
                                                  rtthread.arm.lib(dfs_posix.o)
                                                  rtthread.arm.lib(msh.o)
                                                  rtthread.arm.lib(shell.o)
                                                  rtthread.arm.lib(serial.o)
                                                  rtthread.arm.lib(device.o)
                                                  rtthread.arm.lib(ipc.o)
                                                  rtthread.arm.lib(object.o)
                                                  rtthread.arm.lib(idle.o)
arm_rt_free_align                                 rtthread.arm.lib(kservice.o)
arm_rt_free_sethook                               rtthread.arm.lib(kservice.o)
arm_rt_get_errno                                  rtthread.arm.lib(kservice.o)
arm_rt_hw_board_init                              rtthread.arm.lib(board.o)
                                                  rtthread.arm.lib(startup.o)
arm_rt_hw_console_output                          rtthread.arm.lib(kservice.o)
                                                  rtthread.arm.lib(console_be.o)
arm_rt_hw_context_switch                          rtthread.arm.lib(context_gcc.o)
                                                  rtthread.arm.lib(scheduler.o)
arm_rt_hw_context_switch_interrupt                rtthread.arm.lib(context_gcc.o)
                                                  rtthread.arm.lib(scheduler.o)
arm_rt_hw_context_switch_to                       rtthread.arm.lib(context_gcc.o)
                                                  rtthread.arm.lib(scheduler.o)
arm_rt_hw_cpu_id                                  rtthread.arm.lib(board.o)
                                                  rtthread.arm.lib(pthread.o)
                                                  rtthread.arm.lib(shell.o)
                                                  rtthread.arm.lib(scheduler.o)
                                                  rtthread.arm.lib(clock.o)
                                                  rtthread.arm.lib(cpu.o)
                                                  rtthread.arm.lib(idle.o)
                                                  rtthread.arm.lib(startup.o)
arm_rt_hw_cpu_reset                               rtthread.arm.lib(cpuport.o)
arm_rt_hw_cpu_shutdown                            rtthread.arm.lib(board.o)
arm_rt_hw_hard_fault_exception                    rtthread.arm.lib(cpuport.o)
                                                  rtthread.arm.lib(context_gcc.o)
arm_rt_hw_interrupt_check                         rtthread.arm.lib(context_gcc.o)
arm_rt_hw_interrupt_thread_switch                 rtthread.arm.lib(context_gcc.o)
arm_rt_hw_ipi_send                                rtthread.arm.lib(board.o)
                                                  rtthread.arm.lib(scheduler.o)
arm_rt_hw_local_irq_disable                       rtthread.arm.lib(context_gcc.o)
                                                  rtthread.arm.lib(thread.o)
                                                  rtthread.arm.lib(scheduler.o)
                                                  rtthread.arm.lib(cpu.o)
arm_rt_hw_local_irq_enable                        rtthread.arm.lib(context_gcc.o)
                                                  rtthread.arm.lib(thread.o)
                                                  rtthread.arm.lib(scheduler.o)
                                                  rtthread.arm.lib(cpu.o)
arm_rt_hw_object_delete                           rtthread.arm.lib(board.o)
arm_rt_hw_object_dump                             rtthread.arm.lib(board.o)
arm_rt_hw_object_put                              rtthread.arm.lib(board.o)
arm_rt_hw_object_take                             rtthread.arm.lib(board.o)
arm_rt_hw_object_trytake                          rtthread.arm.lib(board.o)
arm_rt_hw_secondary_cpu_idle_exec                 rtthread.arm.lib(board.o)
                                                  rtthread.arm.lib(idle.o)
arm_rt_hw_secondary_cpu_up                        rtthread.arm.lib(board.o)
                                                  rtthread.arm.lib(startup.o)
arm_rt_hw_serial_isr                              rtthread.arm.lib(serial.o)
                                                  rtthread.arm.lib(drv_uart.o)
arm_rt_hw_serial_register                         rtthread.arm.lib(serial.o)
                                                  rtthread.arm.lib(drv_uart.o)
arm_rt_hw_spin_lock                               rtthread.arm.lib(board.o)
                                                  rtthread.arm.lib(pthread.o)
                                                  rtthread.arm.lib(scheduler.o)
                                                  rtthread.arm.lib(cpu.o)
                                                  rtthread.arm.lib(startup.o)
arm_rt_hw_spin_lock_init                          rtthread.arm.lib(board.o)
                                                  rtthread.arm.lib(cpu.o)
arm_rt_hw_spin_unlock                             rtthread.arm.lib(board.o)
                                                  rtthread.arm.lib(pthread.o)
                                                  rtthread.arm.lib(scheduler.o)
                                                  rtthread.arm.lib(cpu.o)
arm_rt_hw_stack_init                              rtthread.arm.lib(cpuport.o)
                                                  rtthread.arm.lib(thread.o)
arm_rt_hw_systick_init                            rtthread.arm.lib(board.o)
arm_rt_hw_uart_init                               rtthread.arm.lib(drv_uart.o)
                                                  rtthread.arm.lib(board.o)
arm_rt_hw_us_delay                                rtthread.arm.lib(board.o)
                                                  rtthread.arm.lib(delay.o)
arm_rt_hw_usec_get                                rtthread.arm.lib(board.o)
                                                  rtthread.arm.lib(main.o)
arm_rt_interrupt_enter                            rtthread.arm.lib(irq.o)
arm_rt_interrupt_enter_sethook                    rtthread.arm.lib(irq.o)
arm_rt_interrupt_from_thread                      rtthread.arm.lib(cpuport.o)
                                                  rtthread.arm.lib(context_gcc.o)
arm_rt_interrupt_get_nest                         rtthread.arm.lib(irq.o)
                                                  rtthread.arm.lib(ulog.o)
                                                  rtthread.arm.lib(kservice.o)
arm_rt_interrupt_leave                            rtthread.arm.lib(irq.o)
arm_rt_interrupt_leave_sethook                    rtthread.arm.lib(irq.o)
arm_rt_interrupt_to_thread                        rtthread.arm.lib(cpuport.o)
                                                  rtthread.arm.lib(context_gcc.o)
arm_rt_kprintf                                    rtthread.arm.lib(kservice.o)
                                                  rtthread.arm.lib(msh_file.o)
                                                  rtthread.arm.lib(devfs.o)
                                                  rtthread.arm.lib(dfs_file.o)
                                                  rtthread.arm.lib(dfs.o)
                                                  rtthread.arm.lib(dfs_fs.o)
                                                  rtthread.arm.lib(dfs_posix.o)
                                                  rtthread.arm.lib(mem.o)
                                                  rtthread.arm.lib(main.o)
                                                  rtthread.arm.lib(ulog.o)
                                                  rtthread.arm.lib(cmd.o)
                                                  rtthread.arm.lib(msh.o)
                                                  rtthread.arm.lib(shell.o)
                                                  rtthread.arm.lib(serial.o)
                                                  rtthread.arm.lib(cpuport.o)
                                                  rtthread.arm.lib(scheduler.o)
                                                  rtthread.arm.lib(device.o)
                                                  rtthread.arm.lib(board.o)
arm_rt_kputs                                      rtthread.arm.lib(kservice.o)
                                                  rtthread.arm.lib(ulog.o)
arm_rt_malloc                                     rtthread.arm.lib(kservice.o)
                                                  rtthread.arm.lib(syscalls.o)
                                                  rtthread.arm.lib(pthread_tls.o)
                                                  rtthread.arm.lib(pthread.o)
                                                  rtthread.arm.lib(semaphore.o)
                                                  rtthread.arm.lib(msh_file.o)
                                                  rtthread.arm.lib(devfs.o)
                                                  rtthread.arm.lib(dfs_file.o)
                                                  rtthread.arm.lib(dfs.o)
                                                  rtthread.arm.lib(dfs_posix.o)
                                                  rtthread.arm.lib(msh.o)
                                                  rtthread.arm.lib(shell.o)
                                                  rtthread.arm.lib(serial.o)
                                                  rtthread.arm.lib(thread.o)
                                                  rtthread.arm.lib(device.o)
                                                  rtthread.arm.lib(ipc.o)
                                                  rtthread.arm.lib(object.o)
arm_rt_malloc_align                               rtthread.arm.lib(kservice.o)
arm_rt_malloc_sethook                             rtthread.arm.lib(kservice.o)
arm_rt_mb_control                                 rtthread.arm.lib(ipc.o)
arm_rt_mb_create                                  rtthread.arm.lib(ipc.o)
arm_rt_mb_delete                                  rtthread.arm.lib(ipc.o)
arm_rt_mb_detach                                  rtthread.arm.lib(ipc.o)
arm_rt_mb_init                                    rtthread.arm.lib(ipc.o)
arm_rt_mb_recv                                    rtthread.arm.lib(ipc.o)
arm_rt_mb_send                                    rtthread.arm.lib(ipc.o)
arm_rt_mb_send_wait                               rtthread.arm.lib(ipc.o)
arm_rt_mb_urgent                                  rtthread.arm.lib(ipc.o)
arm_rt_memcmp                                     rtthread.arm.lib(kservice.o)
arm_rt_memcpy                                     rtthread.arm.lib(kservice.o)
                                                  rtthread.arm.lib(msh_file.o)
                                                  rtthread.arm.lib(mem.o)
                                                  rtthread.arm.lib(cmd.o)
                                                  rtthread.arm.lib(msh.o)
                                                  rtthread.arm.lib(shell.o)
                                                  rtthread.arm.lib(ipc.o)
arm_rt_memmove                                    rtthread.arm.lib(kservice.o)
                                                  rtthread.arm.lib(shell.o)
arm_rt_memory_info                                rtthread.arm.lib(kservice.o)
                                                  rtthread.arm.lib(msh.o)
arm_rt_memset                                     rtthread.arm.lib(kservice.o)
                                                  rtthread.arm.lib(pthread_tls.o)
                                                  rtthread.arm.lib(dfs_file.o)
                                                  rtthread.arm.lib(dfs.o)
                                                  rtthread.arm.lib(dfs_fs.o)
                                                  rtthread.arm.lib(dfs_posix.o)
                                                  rtthread.arm.lib(mem.o)
                                                  rtthread.arm.lib(ulog.o)
                                                  rtthread.arm.lib(msh.o)
                                                  rtthread.arm.lib(shell.o)
                                                  rtthread.arm.lib(serial.o)
                                                  rtthread.arm.lib(thread.o)
                                                  rtthread.arm.lib(device.o)
                                                  rtthread.arm.lib(object.o)
arm_rt_mq_control                                 rtthread.arm.lib(ipc.o)
arm_rt_mq_create                                  rtthread.arm.lib(ipc.o)
arm_rt_mq_delete                                  rtthread.arm.lib(ipc.o)
arm_rt_mq_detach                                  rtthread.arm.lib(ipc.o)
arm_rt_mq_init                                    rtthread.arm.lib(ipc.o)
arm_rt_mq_recv                                    rtthread.arm.lib(ipc.o)
arm_rt_mq_send                                    rtthread.arm.lib(ipc.o)
arm_rt_mq_send_wait                               rtthread.arm.lib(ipc.o)
arm_rt_mq_urgent                                  rtthread.arm.lib(ipc.o)
arm_rt_mutex_control                              rtthread.arm.lib(ipc.o)
arm_rt_mutex_create                               rtthread.arm.lib(ipc.o)
arm_rt_mutex_delete                               rtthread.arm.lib(ipc.o)
arm_rt_mutex_detach                               rtthread.arm.lib(ipc.o)
                                                  rtthread.arm.lib(ulog.o)
arm_rt_mutex_init                                 rtthread.arm.lib(ipc.o)
                                                  rtthread.arm.lib(dfs.o)
                                                  rtthread.arm.lib(ulog.o)
                                                  rtthread.arm.lib(kservice.o)
arm_rt_mutex_release                              rtthread.arm.lib(ipc.o)
                                                  rtthread.arm.lib(dfs.o)
                                                  rtthread.arm.lib(ulog.o)
                                                  rtthread.arm.lib(kservice.o)
arm_rt_mutex_take                                 rtthread.arm.lib(ipc.o)
                                                  rtthread.arm.lib(dfs.o)
                                                  rtthread.arm.lib(ulog.o)
                                                  rtthread.arm.lib(kservice.o)
arm_rt_mutex_trytake                              rtthread.arm.lib(ipc.o)
arm_rt_object_allocate                            rtthread.arm.lib(object.o)
                                                  rtthread.arm.lib(thread.o)
                                                  rtthread.arm.lib(ipc.o)
                                                  rtthread.arm.lib(timer.o)
arm_rt_object_attach_sethook                      rtthread.arm.lib(object.o)
arm_rt_object_delete                              rtthread.arm.lib(object.o)
                                                  rtthread.arm.lib(thread.o)
                                                  rtthread.arm.lib(ipc.o)
                                                  rtthread.arm.lib(timer.o)
                                                  rtthread.arm.lib(idle.o)
arm_rt_object_detach                              rtthread.arm.lib(object.o)
                                                  rtthread.arm.lib(mem.o)
                                                  rtthread.arm.lib(device.o)
                                                  rtthread.arm.lib(ipc.o)
                                                  rtthread.arm.lib(timer.o)
                                                  rtthread.arm.lib(idle.o)
arm_rt_object_detach_sethook                      rtthread.arm.lib(object.o)
                                                  rtthread.arm.lib(board.o)
arm_rt_object_find                                rtthread.arm.lib(object.o)
                                                  rtthread.arm.lib(thread.o)
                                                  rtthread.arm.lib(device.o)
arm_rt_object_get_information                     rtthread.arm.lib(object.o)
                                                  rtthread.arm.lib(devfs.o)
                                                  rtthread.arm.lib(cmd.o)
arm_rt_object_get_length                          rtthread.arm.lib(object.o)
arm_rt_object_get_pointers                        rtthread.arm.lib(object.o)
arm_rt_object_get_type                            rtthread.arm.lib(object.o)
                                                  rtthread.arm.lib(mem.o)
                                                  rtthread.arm.lib(thread.o)
                                                  rtthread.arm.lib(device.o)
                                                  rtthread.arm.lib(ipc.o)
                                                  rtthread.arm.lib(timer.o)
arm_rt_object_init                                rtthread.arm.lib(object.o)
                                                  rtthread.arm.lib(mem.o)
                                                  rtthread.arm.lib(thread.o)
                                                  rtthread.arm.lib(device.o)
                                                  rtthread.arm.lib(ipc.o)
                                                  rtthread.arm.lib(timer.o)
arm_rt_object_is_systemobject                     rtthread.arm.lib(object.o)
                                                  rtthread.arm.lib(mem.o)
                                                  rtthread.arm.lib(thread.o)
                                                  rtthread.arm.lib(device.o)
                                                  rtthread.arm.lib(ipc.o)
                                                  rtthread.arm.lib(timer.o)
                                                  rtthread.arm.lib(idle.o)
arm_rt_object_put_hook                            rtthread.arm.lib(object.o)
                                                  rtthread.arm.lib(ipc.o)
                                                  rtthread.arm.lib(timer.o)
arm_rt_object_put_sethook                         rtthread.arm.lib(object.o)
                                                  rtthread.arm.lib(board.o)
arm_rt_object_take_hook                           rtthread.arm.lib(object.o)
                                                  rtthread.arm.lib(ipc.o)
                                                  rtthread.arm.lib(timer.o)
arm_rt_object_take_sethook                        rtthread.arm.lib(object.o)
                                                  rtthread.arm.lib(board.o)
arm_rt_object_trytake_hook                        rtthread.arm.lib(object.o)
                                                  rtthread.arm.lib(ipc.o)
arm_rt_object_trytake_sethook                     rtthread.arm.lib(object.o)
                                                  rtthread.arm.lib(board.o)
arm_rt_realloc                                    rtthread.arm.lib(kservice.o)
                                                  rtthread.arm.lib(syscalls.o)
                                                  rtthread.arm.lib(dfs.o)
arm_rt_schedule                                   rtthread.arm.lib(scheduler.o)
                                                  rtthread.arm.lib(pthread.o)
                                                  rtthread.arm.lib(waitqueue.o)
                                                  rtthread.arm.lib(completion.o)
                                                  rtthread.arm.lib(thread.o)
                                                  rtthread.arm.lib(ipc.o)
                                                  rtthread.arm.lib(clock.o)
                                                  rtthread.arm.lib(timer.o)
                                                  rtthread.arm.lib(cpu.o)
arm_rt_schedule_insert_thread                     rtthread.arm.lib(scheduler.o)
                                                  rtthread.arm.lib(thread.o)
arm_rt_schedule_remove_thread                     rtthread.arm.lib(scheduler.o)
                                                  rtthread.arm.lib(thread.o)
arm_rt_scheduler_do_irq_switch                    rtthread.arm.lib(scheduler.o)
arm_rt_scheduler_ipi_handler                      rtthread.arm.lib(scheduler.o)
                                                  rtthread.arm.lib(board.o)
arm_rt_scheduler_sethook                          rtthread.arm.lib(scheduler.o)
arm_rt_scheduler_switch_sethook                   rtthread.arm.lib(scheduler.o)
arm_rt_sem_control                                rtthread.arm.lib(ipc.o)
arm_rt_sem_create                                 rtthread.arm.lib(ipc.o)
                                                  rtthread.arm.lib(pthread.o)
                                                  rtthread.arm.lib(semaphore.o)
arm_rt_sem_delete                                 rtthread.arm.lib(ipc.o)
                                                  rtthread.arm.lib(pthread.o)
                                                  rtthread.arm.lib(semaphore.o)
arm_rt_sem_detach                                 rtthread.arm.lib(ipc.o)
arm_rt_sem_init                                   rtthread.arm.lib(ipc.o)
                                                  rtthread.arm.lib(semaphore.o)
                                                  rtthread.arm.lib(shell.o)
                                                  rtthread.arm.lib(idle.o)
arm_rt_sem_release                                rtthread.arm.lib(ipc.o)
                                                  rtthread.arm.lib(pthread.o)
                                                  rtthread.arm.lib(semaphore.o)
                                                  rtthread.arm.lib(idle.o)
arm_rt_sem_take                                   rtthread.arm.lib(ipc.o)
                                                  rtthread.arm.lib(pthread.o)
                                                  rtthread.arm.lib(semaphore.o)
                                                  rtthread.arm.lib(idle.o)
arm_rt_sem_trytake                                rtthread.arm.lib(ipc.o)
                                                  rtthread.arm.lib(semaphore.o)
arm_rt_set_errno                                  rtthread.arm.lib(kservice.o)
                                                  rtthread.arm.lib(time.o)
                                                  rtthread.arm.lib(semaphore.o)
                                                  rtthread.arm.lib(libc.o)
                                                  rtthread.arm.lib(dfs_fs.o)
                                                  rtthread.arm.lib(dfs_posix.o)
                                                  rtthread.arm.lib(device.o)
arm_rt_show_version                               rtthread.arm.lib(kservice.o)
                                                  rtthread.arm.lib(cmd.o)
                                                  rtthread.arm.lib(startup.o)
arm_rt_smem_alloc                                 rtthread.arm.lib(mem.o)
                                                  rtthread.arm.lib(kservice.o)
arm_rt_smem_detach                                rtthread.arm.lib(mem.o)
arm_rt_smem_free                                  rtthread.arm.lib(mem.o)
                                                  rtthread.arm.lib(kservice.o)
arm_rt_smem_init                                  rtthread.arm.lib(mem.o)
                                                  rtthread.arm.lib(kservice.o)
arm_rt_smem_realloc                               rtthread.arm.lib(mem.o)
                                                  rtthread.arm.lib(kservice.o)
arm_rt_snprintf                                   rtthread.arm.lib(kservice.o)
                                                  rtthread.arm.lib(pthread.o)
                                                  rtthread.arm.lib(semaphore.o)
                                                  rtthread.arm.lib(msh_file.o)
                                                  rtthread.arm.lib(dfs.o)
                                                  rtthread.arm.lib(ulog.o)
arm_rt_spin_lock                                  rtthread.arm.lib(cpu.o)
arm_rt_spin_lock_init                             rtthread.arm.lib(cpu.o)
arm_rt_spin_lock_irqsave                          rtthread.arm.lib(cpu.o)
arm_rt_spin_unlock                                rtthread.arm.lib(cpu.o)
arm_rt_spin_unlock_irqrestore                     rtthread.arm.lib(cpu.o)
arm_rt_sprintf                                    rtthread.arm.lib(kservice.o)
                                                  rtthread.arm.lib(msh_file.o)
                                                  rtthread.arm.lib(idle.o)
arm_rt_strcasecmp                                 rtthread.arm.lib(kservice.o)
arm_rt_strcmp                                     rtthread.arm.lib(kservice.o)
                                                  rtthread.arm.lib(msh_file.o)
arm_rt_strcpy                                     rtthread.arm.lib(kservice.o)
arm_rt_strdup                                     rtthread.arm.lib(kservice.o)
                                                  rtthread.arm.lib(dfs_file.o)
                                                  rtthread.arm.lib(dfs.o)
arm_rt_strlen                                     rtthread.arm.lib(kservice.o)
                                                  rtthread.arm.lib(time.o)
                                                  rtthread.arm.lib(msh_file.o)
                                                  rtthread.arm.lib(dfs.o)
                                                  rtthread.arm.lib(ulog.o)
                                                  rtthread.arm.lib(msh.o)
                                                  rtthread.arm.lib(shell.o)
                                                  rtthread.arm.lib(serial.o)
arm_rt_strncmp                                    rtthread.arm.lib(kservice.o)
                                                  rtthread.arm.lib(ulog.o)
                                                  rtthread.arm.lib(object.o)
arm_rt_strncpy                                    rtthread.arm.lib(kservice.o)
                                                  rtthread.arm.lib(devfs.o)
                                                  rtthread.arm.lib(ulog.o)
                                                  rtthread.arm.lib(msh.o)
                                                  rtthread.arm.lib(object.o)
arm_rt_strnlen                                    rtthread.arm.lib(kservice.o)
arm_rt_strstr                                     rtthread.arm.lib(kservice.o)
arm_rt_system_heap_init                           rtthread.arm.lib(kservice.o)
                                                  rtthread.arm.lib(board.o)
arm_rt_system_scheduler_init                      rtthread.arm.lib(scheduler.o)
                                                  rtthread.arm.lib(board.o)
                                                  rtthread.arm.lib(startup.o)
arm_rt_system_scheduler_start                     rtthread.arm.lib(scheduler.o)
                                                  rtthread.arm.lib(startup.o)
arm_rt_system_timer_init                          rtthread.arm.lib(timer.o)
                                                  rtthread.arm.lib(startup.o)
arm_rt_system_timer_thread_init                   rtthread.arm.lib(timer.o)
                                                  rtthread.arm.lib(startup.o)
arm_rt_thread_control                             rtthread.arm.lib(thread.o)
                                                  rtthread.arm.lib(pthread.o)
                                                  rtthread.arm.lib(shell.o)
                                                  rtthread.arm.lib(ipc.o)
                                                  rtthread.arm.lib(idle.o)
                                                  rtthread.arm.lib(startup.o)
arm_rt_thread_create                              rtthread.arm.lib(thread.o)
                                                  rtthread.arm.lib(shell.o)
                                                  rtthread.arm.lib(startup.o)
arm_rt_thread_defunct_dequeue                     rtthread.arm.lib(idle.o)
arm_rt_thread_defunct_enqueue                     rtthread.arm.lib(idle.o)
                                                  rtthread.arm.lib(thread.o)
arm_rt_thread_delay                               rtthread.arm.lib(thread.o)
arm_rt_thread_delay_until                         rtthread.arm.lib(thread.o)
arm_rt_thread_delete                              rtthread.arm.lib(thread.o)
arm_rt_thread_detach                              rtthread.arm.lib(thread.o)
                                                  rtthread.arm.lib(pthread.o)
arm_rt_thread_find                                rtthread.arm.lib(thread.o)
                                                  rtthread.arm.lib(serial.o)
arm_rt_thread_idle_delhook                        rtthread.arm.lib(idle.o)
arm_rt_thread_idle_gethandler                     rtthread.arm.lib(idle.o)
arm_rt_thread_idle_init                           rtthread.arm.lib(idle.o)
                                                  rtthread.arm.lib(startup.o)
arm_rt_thread_idle_sethook                        rtthread.arm.lib(idle.o)
arm_rt_thread_init                                rtthread.arm.lib(thread.o)
                                                  rtthread.arm.lib(pthread.o)
                                                  rtthread.arm.lib(idle.o)
arm_rt_thread_inited_sethook                      rtthread.arm.lib(thread.o)
arm_rt_thread_mdelay                              rtthread.arm.lib(thread.o)
                                                  rtthread.arm.lib(delay.o)
arm_rt_thread_resume                              rtthread.arm.lib(thread.o)
                                                  rtthread.arm.lib(waitqueue.o)
                                                  rtthread.arm.lib(completion.o)
                                                  rtthread.arm.lib(ipc.o)
arm_rt_thread_resume_sethook                      rtthread.arm.lib(thread.o)
arm_rt_thread_self                                rtthread.arm.lib(thread.o)
                                                  rtthread.arm.lib(stdlib.o)
                                                  rtthread.arm.lib(pthread_tls.o)
                                                  rtthread.arm.lib(pthread.o)
                                                  rtthread.arm.lib(delay.o)
                                                  rtthread.arm.lib(waitqueue.o)
                                                  rtthread.arm.lib(completion.o)
                                                  rtthread.arm.lib(ulog.o)
                                                  rtthread.arm.lib(serial.o)
                                                  rtthread.arm.lib(ipc.o)
                                                  rtthread.arm.lib(kservice.o)
                                                  rtthread.arm.lib(clock.o)
                                                  rtthread.arm.lib(cpu.o)
arm_rt_thread_sleep                               rtthread.arm.lib(thread.o)
arm_rt_thread_startup                             rtthread.arm.lib(thread.o)
                                                  rtthread.arm.lib(pthread.o)
                                                  rtthread.arm.lib(shell.o)
                                                  rtthread.arm.lib(idle.o)
                                                  rtthread.arm.lib(startup.o)
arm_rt_thread_suspend                             rtthread.arm.lib(thread.o)
                                                  rtthread.arm.lib(waitqueue.o)
                                                  rtthread.arm.lib(completion.o)
                                                  rtthread.arm.lib(ipc.o)
arm_rt_thread_suspend_sethook                     rtthread.arm.lib(thread.o)
arm_rt_thread_switch_interrupt_flag               rtthread.arm.lib(cpuport.o)
                                                  rtthread.arm.lib(context_gcc.o)
arm_rt_thread_yield                               rtthread.arm.lib(thread.o)
arm_rt_tick_from_millisecond                      rtthread.arm.lib(clock.o)
                                                  rtthread.arm.lib(waitqueue.o)
                                                  rtthread.arm.lib(thread.o)
arm_rt_tick_get                                   rtthread.arm.lib(clock.o)
                                                  rtthread.arm.lib(time.o)
                                                  rtthread.arm.lib(pthread.o)
                                                  rtthread.arm.lib(ulog.o)
                                                  rtthread.arm.lib(cmd.o)
                                                  rtthread.arm.lib(thread.o)
                                                  rtthread.arm.lib(ipc.o)
                                                  rtthread.arm.lib(timer.o)
                                                  rtthread.arm.lib(board.o)
arm_rt_tick_get_millisecond                       rtthread.arm.lib(clock.o)
arm_rt_tick_increase                              rtthread.arm.lib(clock.o)
                                                  rtthread.arm.lib(board.o)
arm_rt_tick_set                                   rtthread.arm.lib(clock.o)
arm_rt_tick_sethook                               rtthread.arm.lib(clock.o)
arm_rt_timer_check                                rtthread.arm.lib(timer.o)
                                                  rtthread.arm.lib(clock.o)
arm_rt_timer_control                              rtthread.arm.lib(timer.o)
                                                  rtthread.arm.lib(waitqueue.o)
                                                  rtthread.arm.lib(completion.o)
                                                  rtthread.arm.lib(thread.o)
                                                  rtthread.arm.lib(ipc.o)
arm_rt_timer_create                               rtthread.arm.lib(timer.o)
arm_rt_timer_delete                               rtthread.arm.lib(timer.o)
arm_rt_timer_detach                               rtthread.arm.lib(timer.o)
                                                  rtthread.arm.lib(thread.o)
arm_rt_timer_enter_sethook                        rtthread.arm.lib(timer.o)
arm_rt_timer_exit_sethook                         rtthread.arm.lib(timer.o)
arm_rt_timer_init                                 rtthread.arm.lib(timer.o)
                                                  rtthread.arm.lib(thread.o)
arm_rt_timer_next_timeout_tick                    rtthread.arm.lib(timer.o)
arm_rt_timer_start                                rtthread.arm.lib(timer.o)
                                                  rtthread.arm.lib(waitqueue.o)
                                                  rtthread.arm.lib(completion.o)
                                                  rtthread.arm.lib(thread.o)
                                                  rtthread.arm.lib(ipc.o)
arm_rt_timer_stop                                 rtthread.arm.lib(timer.o)
                                                  rtthread.arm.lib(thread.o)
arm_rt_timespec_to_tick                           rtthread.arm.lib(time.o)
                                                  rtthread.arm.lib(semaphore.o)
arm_rt_vsnprintf                                  rtthread.arm.lib(kservice.o)
                                                  rtthread.arm.lib(ulog.o)
arm_rt_vsprintf                                   rtthread.arm.lib(kservice.o)
arm_rt_wqueue_add                                 rtthread.arm.lib(waitqueue.o)
arm_rt_wqueue_remove                              rtthread.arm.lib(waitqueue.o)
arm_rt_wqueue_wait                                rtthread.arm.lib(waitqueue.o)
                                                  rtthread.arm.lib(serial.o)
arm_rt_wqueue_wakeup                              rtthread.arm.lib(waitqueue.o)
                                                  rtthread.arm.lib(serial.o)
arm_rtthread_startup                              rtthread.arm.lib(startup.o)
arm_seekdir                                       rtthread.arm.lib(dfs_posix.o)
arm_sem_close                                     rtthread.arm.lib(semaphore.o)
arm_sem_destroy                                   rtthread.arm.lib(semaphore.o)
arm_sem_getvalue                                  rtthread.arm.lib(semaphore.o)
arm_sem_init                                      rtthread.arm.lib(semaphore.o)
                                                  rtthread.arm.lib(main.o)
arm_sem_open                                      rtthread.arm.lib(semaphore.o)
arm_sem_post                                      rtthread.arm.lib(semaphore.o)
                                                  rtthread.arm.lib(main.o)
arm_sem_timedwait                                 rtthread.arm.lib(semaphore.o)
arm_sem_trywait                                   rtthread.arm.lib(semaphore.o)
arm_sem_unlink                                    rtthread.arm.lib(semaphore.o)
arm_sem_wait                                      rtthread.arm.lib(semaphore.o)
                                                  rtthread.arm.lib(main.o)
arm_serial0                                       rtthread.arm.lib(drv_uart.o)
arm_setlocale                                     build/arm/libc.a(lib_a-locale.o)
arm_settimeofday                                  rtthread.arm.lib(time.o)
arm_setvbuf                                       build/arm/libc.a(lib_a-setvbuf.o)
                                                  rtthread.arm.lib(libc.o)
arm_shell                                         rtthread.arm.lib(shell.o)
arm_signal                                        build/arm/libc.a(lib_a-signal.o)
arm_sleep                                         rtthread.arm.lib(delay.o)
                                                  rtthread.arm.lib(time.o)
arm_snprintf                                      build/arm/libc.a(lib_a-snprintf.o)
                                                  rtthread.arm.lib(libc.o)
arm_ssleep                                        rtthread.arm.lib(delay.o)
arm_stat                                          rtthread.arm.lib(dfs_posix.o)
                                                  rtthread.arm.lib(syscalls.o)
                                                  rtthread.arm.lib(msh_file.o)
arm_statfs                                        rtthread.arm.lib(dfs_posix.o)
arm_stime                                         rtthread.arm.lib(time.o)
arm_strchr                                        build/arm/libc.a(lib_a-strchr.o)
                                                  build/arm/libc.a(lib_a-strstr.o)
                                                  build/arm/libc.a(lib_a-strrchr.o)
arm_strcmp                                        build/arm/libc.a(lib_a-strcmp.o)
                                                  build/arm/libc.a(lib_a-locale.o)
                                                  rtthread.arm.lib(msh_file.o)
                                                  rtthread.arm.lib(dfs_file.o)
                                                  rtthread.arm.lib(dfs.o)
                                                  rtthread.arm.lib(dfs_fs.o)
arm_strcpy                                        build/arm/libc.a(lib_a-strcpy.o)
                                                  rtthread.arm.lib(msh.o)
                                                  rtthread.arm.lib(shell.o)
arm_strlen                                        build/arm/libc.a(lib_a-strlen-stub.o)
                                                  build/arm/libc.a(lib_a-vfiprintf.o)
                                                  build/arm/libc.a(lib_a-svfiprintf.o)
                                                  build/arm/libc.a(lib_a-svfprintf.o)
                                                  build/arm/libc.a(lib_a-strstr.o)
                                                  rtthread.arm.lib(msh_file.o)
                                                  rtthread.arm.lib(dfs.o)
                                                  rtthread.arm.lib(dfs_fs.o)
                                                  rtthread.arm.lib(dfs_posix.o)
                                                  rtthread.arm.lib(msh.o)
                                                  rtthread.arm.lib(shell.o)
arm_strncmp                                       build/arm/libc.a(lib_a-strncmp.o)
                                                  rtthread.arm.lib(semaphore.o)
                                                  rtthread.arm.lib(dfs_fs.o)
                                                  rtthread.arm.lib(msh.o)
arm_strncpy                                       build/arm/libc.a(lib_a-strncpy.o)
                                                  build/arm/libc.a(lib_a-vfiprintf.o)
                                                  build/arm/libc.a(lib_a-svfiprintf.o)
                                                  build/arm/libc.a(lib_a-svfprintf.o)
                                                  rtthread.arm.lib(dfs_posix.o)
                                                  rtthread.arm.lib(shell.o)
arm_strnlen                                       build/arm/libc.a(lib_a-strnlen.o)
                                                  build/arm/libc.a(lib_a-strstr.o)
arm_strrchr                                       build/arm/libc.a(lib_a-strrchr.o)
                                                  rtthread.arm.lib(dfs_file.o)
arm_strstr                                        build/arm/libc.a(lib_a-strstr.o)
                                                  rtthread.arm.lib(msh_file.o)
arm_strtol                                        build/arm/libc.a(lib_a-strtol.o)
                                                  build/arm/libc.a(lib_a-atoi.o)
arm_strtol_l                                      build/arm/libc.a(lib_a-strtol.o)
arm_telldir                                       rtthread.arm.lib(dfs_posix.o)
arm_time                                          rtthread.arm.lib(time.o)
arm_timegm                                        rtthread.arm.lib(time.o)
arm_tz_get                                        rtthread.arm.lib(time.o)
arm_tz_is_dst                                     rtthread.arm.lib(time.o)
arm_tz_set                                        rtthread.arm.lib(time.o)
arm_udelay                                        rtthread.arm.lib(delay.o)
arm_ulog_backend_find                             rtthread.arm.lib(ulog.o)
arm_ulog_backend_register                         rtthread.arm.lib(ulog.o)
                                                  rtthread.arm.lib(console_be.o)
arm_ulog_backend_set_filter                       rtthread.arm.lib(ulog.o)
arm_ulog_backend_unregister                       rtthread.arm.lib(ulog.o)
arm_ulog_console_backend_init                     rtthread.arm.lib(console_be.o)
arm_ulog_console_backend_output                   rtthread.arm.lib(console_be.o)
                                                  rtthread.arm.lib(ulog.o)
arm_ulog_deinit                                   rtthread.arm.lib(ulog.o)
arm_ulog_flush                                    rtthread.arm.lib(ulog.o)
arm_ulog_formater                                 rtthread.arm.lib(ulog.o)
arm_ulog_hexdump                                  rtthread.arm.lib(ulog.o)
arm_ulog_init                                     rtthread.arm.lib(ulog.o)
                                                  rtthread.arm.lib(console_be.o)
arm_ulog_output                                   rtthread.arm.lib(ulog.o)
                                                  rtthread.arm.lib(syscalls.o)
                                                  rtthread.arm.lib(time.o)
                                                  rtthread.arm.lib(dfs_file.o)
                                                  rtthread.arm.lib(dfs.o)
                                                  rtthread.arm.lib(dfs_fs.o)
                                                  rtthread.arm.lib(serial.o)
arm_ulog_output_lock_enabled                      rtthread.arm.lib(ulog.o)
arm_ulog_raw                                      rtthread.arm.lib(ulog.o)
arm_ulog_strcpy                                   rtthread.arm.lib(ulog.o)
arm_ulog_ultoa                                    rtthread.arm.lib(ulog.o)
arm_ulog_voutput                                  rtthread.arm.lib(ulog.o)
arm_umask                                         rtthread.arm.lib(syscalls.o)
arm_unlink                                        rtthread.arm.lib(dfs_posix.o)
                                                  rtthread.arm.lib(syscalls.o)
                                                  rtthread.arm.lib(msh_file.o)
arm_usleep                                        rtthread.arm.lib(delay.o)
arm_version                                       rtthread.arm.lib(cmd.o)
arm_vfiprintf                                     build/arm/libc.a(lib_a-vfiprintf.o)
arm_wcrtomb                                       build/arm/libc.a(lib_a-wcrtomb.o)
arm_working_directory                             rtthread.arm.lib(dfs.o)
                                                  rtthread.arm.lib(msh_file.o)
                                                  rtthread.arm.lib(dfs_file.o)
                                                  rtthread.arm.lib(dfs_posix.o)
arm_write                                         rtthread.arm.lib(dfs_posix.o)
                                                  rtthread.arm.lib(syscalls.o)
                                                  rtthread.arm.lib(msh_file.o)
elm_init                                          rtthread.risc-v.lib(dfs_elm.o)
filesystem_operation_table                        rtthread.risc-v.lib(dfs.o)
                                                  rtthread.arm.lib(dfs.o)
                                                  rtthread.risc-v.lib(dfs_fs.o)
                                                  rtthread.arm.lib(dfs_fs.o)
filesystem_table                                  rtthread.risc-v.lib(dfs.o)
                                                  rtthread.arm.lib(dfs.o)
                                                  rtthread.risc-v.lib(msh_file.o)
                                                  rtthread.risc-v.lib(dfs_fs.o)
                                                  rtthread.arm.lib(msh_file.o)
                                                  rtthread.arm.lib(dfs_fs.o)
fslock                                            rtthread.risc-v.lib(dfs.o)
                                                  rtthread.arm.lib(dfs.o)
global_bsize                                      rtthread.risc-v.lib(main.o)
                                                  rtthread.arm.lib(main.o)
global_cipher_sem                                 rtthread.risc-v.lib(main.o)
                                                  rtthread.arm.lib(main.o)
global_nblocks                                    rtthread.risc-v.lib(main.o)
                                                  rtthread.arm.lib(main.o)
global_preemptive                                 rtthread.risc-v.lib(board.o)
                                                  rtthread.risc-v.lib(main.o)
                                                  rtthread.arm.lib(board.o)
global_queue                                      rtthread.risc-v.lib(main.o)
                                                  rtthread.arm.lib(main.o)
global_read_sem                                   rtthread.risc-v.lib(main.o)
global_write_sem                                  rtthread.risc-v.lib(main.o)
                                                  rtthread.arm.lib(main.o)
heap_end                                          rtthread.risc-v.lib(mem.o)
                                                  rtthread.arm.lib(mem.o)
heap_ptr                                          rtthread.risc-v.lib(mem.o)
                                                  rtthread.arm.lib(mem.o)
heap_sem                                          rtthread.risc-v.lib(mem.o)
                                                  rtthread.arm.lib(mem.o)
lfree                                             rtthread.risc-v.lib(mem.o)
                                                  rtthread.arm.lib(mem.o)
posix_sem_list                                    rtthread.arm.lib(semaphore.o)
posix_sem_lock                                    rtthread.risc-v.lib(semaphore.o)
                                                  rtthread.arm.lib(semaphore.o)
pth_lock                                          rtthread.arm.lib(pthread.o)
pth_table                                         rtthread.arm.lib(pthread.o)
pthread_number                                    rtthread.arm.lib(pthread.o)
riscv_ADC0_IRQHandler                             rtthread.risc-v.lib(system_RV32M1_ri5cy.o)
riscv_APP_DeinitDomain                            rtthread.risc-v.lib(board.o)
riscv_APP_InitDomain                              rtthread.risc-v.lib(board.o)
riscv_BOARD_BootClockHSRUN                        rtthread.risc-v.lib(clock_config.o)
riscv_BOARD_BootClockRUN                          rtthread.risc-v.lib(clock_config.o)
                                                  rtthread.risc-v.lib(board.o)
riscv_BOARD_BootClockVLPR                         rtthread.risc-v.lib(clock_config.o)
riscv_BOARD_InitBootClocks                        rtthread.risc-v.lib(clock_config.o)
riscv_BOARD_InitBootPins                          rtthread.risc-v.lib(pin_mux.o)
riscv_BOARD_InitPins                              rtthread.risc-v.lib(pin_mux.o)
                                                  rtthread.risc-v.lib(board.o)
riscv_CAU3_Security_Violation_IRQHandler          rtthread.risc-v.lib(system_RV32M1_ri5cy.o)
riscv_CAU3_Task_Complete_IRQHandler               rtthread.risc-v.lib(system_RV32M1_ri5cy.o)
riscv_CLOCK_DeinitFirc                            rtthread.risc-v.lib(fsl_clock.o)
riscv_CLOCK_DeinitLpFll                           rtthread.risc-v.lib(fsl_clock.o)
riscv_CLOCK_DeinitSirc                            rtthread.risc-v.lib(fsl_clock.o)
riscv_CLOCK_DeinitSysOsc                          rtthread.risc-v.lib(fsl_clock.o)
riscv_CLOCK_EnableUsbfs0Clock                     rtthread.risc-v.lib(fsl_clock.o)
riscv_CLOCK_GetBusClkFreq                         rtthread.risc-v.lib(fsl_clock.o)
riscv_CLOCK_GetCoreSysClkFreq                     rtthread.risc-v.lib(fsl_clock.o)
riscv_CLOCK_GetExtClkFreq                         rtthread.risc-v.lib(fsl_clock.o)
riscv_CLOCK_GetFircAsyncFreq                      rtthread.risc-v.lib(fsl_clock.o)
riscv_CLOCK_GetFircFreq                           rtthread.risc-v.lib(fsl_clock.o)
riscv_CLOCK_GetFlashClkFreq                       rtthread.risc-v.lib(fsl_clock.o)
riscv_CLOCK_GetFreq                               rtthread.risc-v.lib(fsl_clock.o)
riscv_CLOCK_GetIpFreq                             rtthread.risc-v.lib(fsl_clock.o)
                                                  rtthread.risc-v.lib(system_RV32M1_ri5cy.o)
                                                  rtthread.risc-v.lib(drv_sdcard.o)
                                                  rtthread.risc-v.lib(drv_uart.o)
                                                  rtthread.risc-v.lib(board.o)
riscv_CLOCK_GetLpFllAsyncFreq                     rtthread.risc-v.lib(fsl_clock.o)
riscv_CLOCK_GetLpFllFreq                          rtthread.risc-v.lib(fsl_clock.o)
riscv_CLOCK_GetOsc32kClkFreq                      rtthread.risc-v.lib(fsl_clock.o)
riscv_CLOCK_GetPlatClkFreq                        rtthread.risc-v.lib(fsl_clock.o)
riscv_CLOCK_GetRtcOscFreq                         rtthread.risc-v.lib(fsl_clock.o)
riscv_CLOCK_GetSircAsyncFreq                      rtthread.risc-v.lib(fsl_clock.o)
riscv_CLOCK_GetSircFreq                           rtthread.risc-v.lib(fsl_clock.o)
riscv_CLOCK_GetSysClkFreq                         rtthread.risc-v.lib(fsl_clock.o)
riscv_CLOCK_GetSysOscAsyncFreq                    rtthread.risc-v.lib(fsl_clock.o)
riscv_CLOCK_GetSysOscFreq                         rtthread.risc-v.lib(fsl_clock.o)
riscv_CLOCK_InitFirc                              rtthread.risc-v.lib(fsl_clock.o)
                                                  rtthread.risc-v.lib(clock_config.o)
riscv_CLOCK_InitLpFll                             rtthread.risc-v.lib(fsl_clock.o)
                                                  rtthread.risc-v.lib(clock_config.o)
                                                  rtthread.risc-v.lib(board.o)
riscv_CLOCK_InitSirc                              rtthread.risc-v.lib(fsl_clock.o)
                                                  rtthread.risc-v.lib(clock_config.o)
riscv_CLOCK_InitSysOsc                            rtthread.risc-v.lib(fsl_clock.o)
riscv_CMC0_IRQHandler                             rtthread.risc-v.lib(system_RV32M1_ri5cy.o)
riscv_CardInsertDetect                            rtthread.risc-v.lib(fsl_host.o)
                                                  rtthread.risc-v.lib(fsl_sd.o)
riscv_DMA0_0_4_8_12_DriverIRQHandler              rtthread.risc-v.lib(system_RV32M1_ri5cy.o)
riscv_DMA0_0_4_8_12_IRQHandler                    rtthread.risc-v.lib(system_RV32M1_ri5cy.o)
riscv_DMA0_1_5_9_13_DriverIRQHandler              rtthread.risc-v.lib(system_RV32M1_ri5cy.o)
riscv_DMA0_1_5_9_13_IRQHandler                    rtthread.risc-v.lib(system_RV32M1_ri5cy.o)
riscv_DMA0_2_6_10_14_DriverIRQHandler             rtthread.risc-v.lib(system_RV32M1_ri5cy.o)
riscv_DMA0_2_6_10_14_IRQHandler                   rtthread.risc-v.lib(system_RV32M1_ri5cy.o)
riscv_DMA0_3_7_11_15_DriverIRQHandler             rtthread.risc-v.lib(system_RV32M1_ri5cy.o)
riscv_DMA0_3_7_11_15_IRQHandler                   rtthread.risc-v.lib(system_RV32M1_ri5cy.o)
riscv_DMA0_Error_IRQHandler                       rtthread.risc-v.lib(system_RV32M1_ri5cy.o)
riscv_EMVSIM0_IRQHandler                          rtthread.risc-v.lib(system_RV32M1_ri5cy.o)
riscv_EVENT_GetIRQPriority                        rtthread.risc-v.lib(system_RV32M1_ri5cy.o)
riscv_EVENT_SetIRQPriority                        rtthread.risc-v.lib(system_RV32M1_ri5cy.o)
                                                  rtthread.risc-v.lib(board.o)
riscv_EVENT_SystemReset                           rtthread.risc-v.lib(system_RV32M1_ri5cy.o)
riscv_EWM_IRQHandler                              rtthread.risc-v.lib(system_RV32M1_ri5cy.o)
riscv_Ecall_Handler                               startup_RV32M1_ri5cy.o
riscv_Ecall_HandlerFunc                           startup_RV32M1_ri5cy.o
riscv_FLEXIO0_DriverIRQHandler                    rtthread.risc-v.lib(system_RV32M1_ri5cy.o)
riscv_FLEXIO0_IRQHandler                          rtthread.risc-v.lib(system_RV32M1_ri5cy.o)
riscv_FTFE_Command_Complete_IRQHandler            rtthread.risc-v.lib(system_RV32M1_ri5cy.o)
riscv_FTFE_Read_Collision_IRQHandler              rtthread.risc-v.lib(system_RV32M1_ri5cy.o)
riscv_GPIO_ClearPinsInterruptFlags                rtthread.risc-v.lib(fsl_gpio.o)
riscv_GPIO_GetPinsInterruptFlags                  rtthread.risc-v.lib(fsl_gpio.o)
riscv_GPIO_PinInit                                rtthread.risc-v.lib(fsl_gpio.o)
                                                  rtthread.risc-v.lib(board.o)
riscv_HOST_Deinit                                 rtthread.risc-v.lib(fsl_host.o)
                                                  rtthread.risc-v.lib(fsl_sd.o)
riscv_HOST_Init                                   rtthread.risc-v.lib(fsl_host.o)
                                                  rtthread.risc-v.lib(fsl_sd.o)
riscv_HOST_Reset                                  rtthread.risc-v.lib(fsl_host.o)
                                                  rtthread.risc-v.lib(fsl_sd.o)
riscv_I2S0_DriverIRQHandler                       rtthread.risc-v.lib(system_RV32M1_ri5cy.o)
riscv_I2S0_IRQHandler                             rtthread.risc-v.lib(system_RV32M1_ri5cy.o)
riscv_INTMUX0_0_DriverIRQHandler                  rtthread.risc-v.lib(system_RV32M1_ri5cy.o)
riscv_INTMUX0_0_IRQHandler                        rtthread.risc-v.lib(system_RV32M1_ri5cy.o)
riscv_INTMUX0_1_DriverIRQHandler                  rtthread.risc-v.lib(system_RV32M1_ri5cy.o)
riscv_INTMUX0_1_IRQHandler                        rtthread.risc-v.lib(system_RV32M1_ri5cy.o)
riscv_INTMUX0_2_DriverIRQHandler                  rtthread.risc-v.lib(system_RV32M1_ri5cy.o)
riscv_INTMUX0_2_IRQHandler                        rtthread.risc-v.lib(system_RV32M1_ri5cy.o)
riscv_INTMUX0_3_DriverIRQHandler                  rtthread.risc-v.lib(system_RV32M1_ri5cy.o)
riscv_INTMUX0_3_IRQHandler                        rtthread.risc-v.lib(system_RV32M1_ri5cy.o)
riscv_INTMUX0_4_DriverIRQHandler                  rtthread.risc-v.lib(system_RV32M1_ri5cy.o)
riscv_INTMUX0_4_IRQHandler                        rtthread.risc-v.lib(system_RV32M1_ri5cy.o)
riscv_INTMUX0_5_DriverIRQHandler                  rtthread.risc-v.lib(system_RV32M1_ri5cy.o)
riscv_INTMUX0_5_IRQHandler                        rtthread.risc-v.lib(system_RV32M1_ri5cy.o)
riscv_INTMUX0_6_DriverIRQHandler                  rtthread.risc-v.lib(system_RV32M1_ri5cy.o)
riscv_INTMUX0_6_IRQHandler                        rtthread.risc-v.lib(system_RV32M1_ri5cy.o)
riscv_INTMUX0_7_DriverIRQHandler                  rtthread.risc-v.lib(system_RV32M1_ri5cy.o)
riscv_INTMUX0_7_IRQHandler                        rtthread.risc-v.lib(system_RV32M1_ri5cy.o)
riscv_INTMUX0_8_DriverIRQHandler                  rtthread.risc-v.lib(system_RV32M1_ri5cy.o)
riscv_IRQ_Handler                                 startup_RV32M1_ri5cy.o
riscv_IllegalInstruction_Handler                  startup_RV32M1_ri5cy.o
riscv_IllegalInstruction_HandlerFunc              startup_RV32M1_ri5cy.o
riscv_LLWU0_IRQHandler                            rtthread.risc-v.lib(system_RV32M1_ri5cy.o)
riscv_LPCMP0_IRQHandler                           rtthread.risc-v.lib(system_RV32M1_ri5cy.o)
riscv_LPCMP1_IRQHandler                           rtthread.risc-v.lib(system_RV32M1_ri5cy.o)
riscv_LPDAC0_IRQHandler                           rtthread.risc-v.lib(system_RV32M1_ri5cy.o)
riscv_LPI2C0_DriverIRQHandler                     rtthread.risc-v.lib(system_RV32M1_ri5cy.o)
riscv_LPI2C0_IRQHandler                           rtthread.risc-v.lib(system_RV32M1_ri5cy.o)
riscv_LPI2C1_DriverIRQHandler                     rtthread.risc-v.lib(system_RV32M1_ri5cy.o)
riscv_LPI2C1_IRQHandler                           rtthread.risc-v.lib(system_RV32M1_ri5cy.o)
riscv_LPI2C2_DriverIRQHandler                     rtthread.risc-v.lib(system_RV32M1_ri5cy.o)
riscv_LPI2C2_IRQHandler                           rtthread.risc-v.lib(system_RV32M1_ri5cy.o)
riscv_LPI2C3_DriverIRQHandler                     rtthread.risc-v.lib(system_RV32M1_ri5cy.o)
riscv_LPI2C3_IRQHandler                           rtthread.risc-v.lib(system_RV32M1_ri5cy.o)
riscv_LPIT0_IRQHandler                            rtthread.risc-v.lib(board.o)
riscv_LPIT1_IRQHandler                            rtthread.risc-v.lib(system_RV32M1_ri5cy.o)
riscv_LPSPI0_DriverIRQHandler                     rtthread.risc-v.lib(system_RV32M1_ri5cy.o)
riscv_LPSPI0_IRQHandler                           rtthread.risc-v.lib(system_RV32M1_ri5cy.o)
riscv_LPSPI1_DriverIRQHandler                     rtthread.risc-v.lib(system_RV32M1_ri5cy.o)
riscv_LPSPI1_IRQHandler                           rtthread.risc-v.lib(system_RV32M1_ri5cy.o)
riscv_LPSPI2_DriverIRQHandler                     rtthread.risc-v.lib(system_RV32M1_ri5cy.o)
riscv_LPSPI2_IRQHandler                           rtthread.risc-v.lib(system_RV32M1_ri5cy.o)
riscv_LPSPI3_DriverIRQHandler                     rtthread.risc-v.lib(system_RV32M1_ri5cy.o)
riscv_LPSPI3_IRQHandler                           rtthread.risc-v.lib(system_RV32M1_ri5cy.o)
riscv_LPTMR0_IRQHandler                           rtthread.risc-v.lib(system_RV32M1_ri5cy.o)
riscv_LPTMR1_IRQHandler                           rtthread.risc-v.lib(system_RV32M1_ri5cy.o)
riscv_LPTMR2_IRQHandler                           rtthread.risc-v.lib(system_RV32M1_ri5cy.o)
riscv_LPUART0_DriverIRQHandler                    rtthread.risc-v.lib(fsl_lpuart.o)
                                                  rtthread.risc-v.lib(system_RV32M1_ri5cy.o)
riscv_LPUART0_IRQHandler                          rtthread.risc-v.lib(drv_uart.o)
riscv_LPUART1_DriverIRQHandler                    rtthread.risc-v.lib(fsl_lpuart.o)
                                                  rtthread.risc-v.lib(system_RV32M1_ri5cy.o)
riscv_LPUART1_IRQHandler                          rtthread.risc-v.lib(system_RV32M1_ri5cy.o)
riscv_LPUART2_DriverIRQHandler                    rtthread.risc-v.lib(fsl_lpuart.o)
                                                  rtthread.risc-v.lib(system_RV32M1_ri5cy.o)
riscv_LPUART2_IRQHandler                          rtthread.risc-v.lib(system_RV32M1_ri5cy.o)
riscv_LPUART3_DriverIRQHandler                    rtthread.risc-v.lib(fsl_lpuart.o)
                                                  rtthread.risc-v.lib(system_RV32M1_ri5cy.o)
riscv_LPUART3_IRQHandler                          rtthread.risc-v.lib(system_RV32M1_ri5cy.o)
riscv_LPUART_ClearStatusFlags                     rtthread.risc-v.lib(fsl_lpuart.o)
riscv_LPUART_Deinit                               rtthread.risc-v.lib(fsl_lpuart.o)
riscv_LPUART_DisableInterrupts                    rtthread.risc-v.lib(fsl_lpuart.o)
riscv_LPUART_EnableInterrupts                     rtthread.risc-v.lib(fsl_lpuart.o)
                                                  rtthread.risc-v.lib(drv_uart.o)
riscv_LPUART_GetDefaultConfig                     rtthread.risc-v.lib(fsl_lpuart.o)
                                                  rtthread.risc-v.lib(drv_uart.o)
riscv_LPUART_GetEnabledInterrupts                 rtthread.risc-v.lib(fsl_lpuart.o)
riscv_LPUART_GetInstance                          rtthread.risc-v.lib(fsl_lpuart.o)
riscv_LPUART_GetStatusFlags                       rtthread.risc-v.lib(fsl_lpuart.o)
                                                  rtthread.risc-v.lib(drv_uart.o)
riscv_LPUART_Init                                 rtthread.risc-v.lib(fsl_lpuart.o)
                                                  rtthread.risc-v.lib(drv_uart.o)
riscv_LPUART_ReadBlocking                         rtthread.risc-v.lib(fsl_lpuart.o)
riscv_LPUART_SetBaudRate                          rtthread.risc-v.lib(fsl_lpuart.o)
riscv_LPUART_TransferAbortReceive                 rtthread.risc-v.lib(fsl_lpuart.o)
riscv_LPUART_TransferAbortSend                    rtthread.risc-v.lib(fsl_lpuart.o)
riscv_LPUART_TransferCreateHandle                 rtthread.risc-v.lib(fsl_lpuart.o)
riscv_LPUART_TransferGetReceiveCount              rtthread.risc-v.lib(fsl_lpuart.o)
riscv_LPUART_TransferGetSendCount                 rtthread.risc-v.lib(fsl_lpuart.o)
riscv_LPUART_TransferHandleErrorIRQ               rtthread.risc-v.lib(fsl_lpuart.o)
riscv_LPUART_TransferHandleIRQ                    rtthread.risc-v.lib(fsl_lpuart.o)
riscv_LPUART_TransferReceiveNonBlocking           rtthread.risc-v.lib(fsl_lpuart.o)
riscv_LPUART_TransferSendNonBlocking              rtthread.risc-v.lib(fsl_lpuart.o)
riscv_LPUART_TransferStartRingBuffer              rtthread.risc-v.lib(fsl_lpuart.o)
riscv_LPUART_TransferStopRingBuffer               rtthread.risc-v.lib(fsl_lpuart.o)
riscv_LPUART_WriteBlocking                        rtthread.risc-v.lib(fsl_lpuart.o)
riscv_LSU_Handler                                 startup_RV32M1_ri5cy.o
riscv_LSU_HandlerFunc                             startup_RV32M1_ri5cy.o
riscv_MUA_IRQHandler                              rtthread.risc-v.lib(board.o)
riscv_MU_BootCoreB                                rtthread.risc-v.lib(fsl_mu.o)
riscv_MU_BootOtherCore                            rtthread.risc-v.lib(fsl_mu.o)
                                                  rtthread.risc-v.lib(board.o)
riscv_MU_Deinit                                   rtthread.risc-v.lib(fsl_mu.o)
riscv_MU_HardwareResetOtherCore                   rtthread.risc-v.lib(fsl_mu.o)
riscv_MU_Init                                     rtthread.risc-v.lib(fsl_mu.o)
                                                  rtthread.risc-v.lib(board.o)
riscv_MU_ReceiveMsg                               rtthread.risc-v.lib(fsl_mu.o)
riscv_MU_SendMsg                                  rtthread.risc-v.lib(fsl_mu.o)
riscv_MU_SetFlags                                 rtthread.risc-v.lib(fsl_mu.o)
riscv_MU_TriggerInterrupts                        rtthread.risc-v.lib(fsl_mu.o)
                                                  rtthread.risc-v.lib(board.o)
riscv_PORTA_IRQHandler                            rtthread.risc-v.lib(system_RV32M1_ri5cy.o)
riscv_PORTB_IRQHandler                            rtthread.risc-v.lib(system_RV32M1_ri5cy.o)
riscv_PORTC_IRQHandler                            rtthread.risc-v.lib(system_RV32M1_ri5cy.o)
riscv_PORTD_IRQHandler                            rtthread.risc-v.lib(system_RV32M1_ri5cy.o)
riscv_PORTE_IRQHandler                            rtthread.risc-v.lib(system_RV32M1_ri5cy.o)
riscv_RF0_0_IRQHandler                            rtthread.risc-v.lib(system_RV32M1_ri5cy.o)
riscv_RF0_1_IRQHandler                            rtthread.risc-v.lib(system_RV32M1_ri5cy.o)
riscv_RTC_IRQHandler                              rtthread.risc-v.lib(system_RV32M1_ri5cy.o)
riscv_SCG_IRQHandler                              rtthread.risc-v.lib(system_RV32M1_ri5cy.o)
riscv_SDMMC_Delay                                 rtthread.risc-v.lib(fsl_sdmmc.o)
riscv_SDMMC_ExecuteTuning                         rtthread.risc-v.lib(fsl_sdmmc.o)
                                                  rtthread.risc-v.lib(fsl_sd.o)
riscv_SDMMC_GoIdle                                rtthread.risc-v.lib(fsl_sdmmc.o)
                                                  rtthread.risc-v.lib(fsl_sd.o)
riscv_SDMMC_SelectCard                            rtthread.risc-v.lib(fsl_sdmmc.o)
                                                  rtthread.risc-v.lib(fsl_sd.o)
riscv_SDMMC_SendApplicationCommand                rtthread.risc-v.lib(fsl_sdmmc.o)
                                                  rtthread.risc-v.lib(fsl_sd.o)
riscv_SDMMC_SetBlockCount                         rtthread.risc-v.lib(fsl_sdmmc.o)
riscv_SDMMC_SetBlockSize                          rtthread.risc-v.lib(fsl_sdmmc.o)
                                                  rtthread.risc-v.lib(fsl_sd.o)
riscv_SDMMC_SetCardInactive                       rtthread.risc-v.lib(fsl_sdmmc.o)
riscv_SDMMC_SwitchVoltage                         rtthread.risc-v.lib(fsl_sdmmc.o)
                                                  rtthread.risc-v.lib(fsl_sd.o)
riscv_SD_CheckReadOnly                            rtthread.risc-v.lib(fsl_sd.o)
riscv_SD_Deinit                                   rtthread.risc-v.lib(fsl_sd.o)
riscv_SD_EraseBlocks                              rtthread.risc-v.lib(fsl_sd.o)
riscv_SD_Init                                     rtthread.risc-v.lib(fsl_sd.o)
                                                  rtthread.risc-v.lib(drv_sdcard.o)
riscv_SD_ReadBlocks                               rtthread.risc-v.lib(fsl_sd.o)
                                                  rtthread.risc-v.lib(drv_sdcard.o)
riscv_SD_WriteBlocks                              rtthread.risc-v.lib(fsl_sd.o)
                                                  rtthread.risc-v.lib(drv_sdcard.o)
riscv_SEMA42_Deinit                               rtthread.risc-v.lib(fsl_sema42.o)
riscv_SEMA42_GetInstance                          rtthread.risc-v.lib(fsl_sema42.o)
riscv_SEMA42_Init                                 rtthread.risc-v.lib(fsl_sema42.o)
                                                  rtthread.risc-v.lib(board.o)
riscv_SEMA42_Lock                                 rtthread.risc-v.lib(fsl_sema42.o)
                                                  rtthread.risc-v.lib(board.o)
riscv_SEMA42_ResetGate                            rtthread.risc-v.lib(fsl_sema42.o)
                                                  rtthread.risc-v.lib(board.o)
riscv_SEMA42_TryLock                              rtthread.risc-v.lib(fsl_sema42.o)
riscv_SMC_ConfigureResetPinFilter                 rtthread.risc-v.lib(fsl_msmc.o)
riscv_SMC_SetPowerModeHsrun                       rtthread.risc-v.lib(fsl_msmc.o)
                                                  rtthread.risc-v.lib(clock_config.o)
riscv_SMC_SetPowerModeLls                         rtthread.risc-v.lib(fsl_msmc.o)
riscv_SMC_SetPowerModeRun                         rtthread.risc-v.lib(fsl_msmc.o)
riscv_SMC_SetPowerModeStop                        rtthread.risc-v.lib(fsl_msmc.o)
riscv_SMC_SetPowerModeVlls0                       rtthread.risc-v.lib(fsl_msmc.o)
riscv_SMC_SetPowerModeVlls2                       rtthread.risc-v.lib(fsl_msmc.o)
riscv_SMC_SetPowerModeVlpr                        rtthread.risc-v.lib(fsl_msmc.o)
                                                  rtthread.risc-v.lib(clock_config.o)
riscv_SMC_SetPowerModeVlps                        rtthread.risc-v.lib(fsl_msmc.o)
riscv_SMC_SetPowerModeVlpw                        rtthread.risc-v.lib(fsl_msmc.o)
riscv_SMC_SetPowerModeWait                        rtthread.risc-v.lib(fsl_msmc.o)
riscv_SPM_IRQHandler                              rtthread.risc-v.lib(system_RV32M1_ri5cy.o)
riscv_SystemClearSystickFlag                      rtthread.risc-v.lib(system_RV32M1_ri5cy.o)
                                                  rtthread.risc-v.lib(board.o)
riscv_SystemCoreClock                             rtthread.risc-v.lib(system_RV32M1_ri5cy.o)
                                                  rtthread.risc-v.lib(clock_config.o)
riscv_SystemCoreClockUpdate                       rtthread.risc-v.lib(system_RV32M1_ri5cy.o)
riscv_SystemGetIRQNestingLevel                    rtthread.risc-v.lib(system_RV32M1_ri5cy.o)
riscv_SystemInISR                                 rtthread.risc-v.lib(system_RV32M1_ri5cy.o)
riscv_SystemInit                                  rtthread.risc-v.lib(system_RV32M1_ri5cy.o)
                                                  startup_RV32M1_ri5cy.o
riscv_SystemInitHook                              rtthread.risc-v.lib(system_RV32M1_ri5cy.o)
riscv_SystemIrqHandler                            rtthread.risc-v.lib(system_RV32M1_ri5cy.o)
                                                  startup_RV32M1_ri5cy.o
riscv_SystemSetupSystick                          rtthread.risc-v.lib(system_RV32M1_ri5cy.o)
                                                  rtthread.risc-v.lib(board.o)
riscv_TPM0_IRQHandler                             rtthread.risc-v.lib(system_RV32M1_ri5cy.o)
riscv_TPM1_IRQHandler                             rtthread.risc-v.lib(system_RV32M1_ri5cy.o)
riscv_TPM2_IRQHandler                             rtthread.risc-v.lib(system_RV32M1_ri5cy.o)
riscv_TPM3_IRQHandler                             rtthread.risc-v.lib(system_RV32M1_ri5cy.o)
riscv_TRNG_IRQHandler                             rtthread.risc-v.lib(system_RV32M1_ri5cy.o)
riscv_USB0_IRQHandler                             rtthread.risc-v.lib(system_RV32M1_ri5cy.o)
riscv_USDHC0_DriverIRQHandler                     rtthread.risc-v.lib(fsl_usdhc.o)
                                                  rtthread.risc-v.lib(system_RV32M1_ri5cy.o)
riscv_USDHC0_IRQHandler                           rtthread.risc-v.lib(system_RV32M1_ri5cy.o)
riscv_USDHC_Deinit                                rtthread.risc-v.lib(fsl_usdhc.o)
                                                  rtthread.risc-v.lib(fsl_host.o)
riscv_USDHC_GetCapability                         rtthread.risc-v.lib(fsl_usdhc.o)
                                                  rtthread.risc-v.lib(fsl_sd.o)
riscv_USDHC_Init                                  rtthread.risc-v.lib(fsl_usdhc.o)
                                                  rtthread.risc-v.lib(fsl_host.o)
riscv_USDHC_Reset                                 rtthread.risc-v.lib(fsl_usdhc.o)
                                                  rtthread.risc-v.lib(fsl_host.o)
                                                  rtthread.risc-v.lib(fsl_sd.o)
riscv_USDHC_SendCommand                           rtthread.risc-v.lib(fsl_usdhc.o)
riscv_USDHC_SetAdmaTableConfig                    rtthread.risc-v.lib(fsl_usdhc.o)
riscv_USDHC_SetCardActive                         rtthread.risc-v.lib(fsl_usdhc.o)
                                                  rtthread.risc-v.lib(fsl_sd.o)
riscv_USDHC_SetMmcBootConfig                      rtthread.risc-v.lib(fsl_usdhc.o)
riscv_USDHC_SetSdClock                            rtthread.risc-v.lib(fsl_usdhc.o)
                                                  rtthread.risc-v.lib(fsl_sd.o)
riscv_USDHC_TransferBlocking                      rtthread.risc-v.lib(fsl_usdhc.o)
                                                  rtthread.risc-v.lib(fsl_host.o)
riscv_USDHC_TransferCreateHandle                  rtthread.risc-v.lib(fsl_usdhc.o)
riscv_USDHC_TransferHandleIRQ                     rtthread.risc-v.lib(fsl_usdhc.o)
riscv_USDHC_TransferNonBlocking                   rtthread.risc-v.lib(fsl_usdhc.o)
riscv_WDOG0_IRQHandler                            rtthread.risc-v.lib(system_RV32M1_ri5cy.o)
riscv_XRDC_Deinit                                 rtthread.risc-v.lib(fsl_xrdc.o)
riscv_XRDC_ForceMemExclAccessLockRelease          rtthread.risc-v.lib(fsl_xrdc.o)
riscv_XRDC_ForcePeriphExclAccessLockRelease       rtthread.risc-v.lib(fsl_xrdc.o)
riscv_XRDC_GetAndClearFirstDomainError            rtthread.risc-v.lib(fsl_xrdc.o)
riscv_XRDC_GetAndClearFirstSpecificDomainError    rtthread.risc-v.lib(fsl_xrdc.o)
riscv_XRDC_GetHardwareConfig                      rtthread.risc-v.lib(fsl_xrdc.o)
riscv_XRDC_GetMemAccessDefaultConfig              rtthread.risc-v.lib(fsl_xrdc.o)
                                                  rtthread.risc-v.lib(board.o)
riscv_XRDC_GetPeriphAccessDefaultConfig           rtthread.risc-v.lib(fsl_xrdc.o)
                                                  rtthread.risc-v.lib(board.o)
riscv_XRDC_Init                                   rtthread.risc-v.lib(fsl_xrdc.o)
                                                  rtthread.risc-v.lib(board.o)
riscv_XRDC_SetMemAccessConfig                     rtthread.risc-v.lib(fsl_xrdc.o)
                                                  rtthread.risc-v.lib(board.o)
riscv_XRDC_SetMemAccsetLock                       rtthread.risc-v.lib(fsl_xrdc.o)
riscv_XRDC_SetMemExclAccessLockMode               rtthread.risc-v.lib(fsl_xrdc.o)
riscv_XRDC_SetPeriphAccessConfig                  rtthread.risc-v.lib(fsl_xrdc.o)
                                                  rtthread.risc-v.lib(board.o)
riscv__PathLocale                                 build/risc-v/libc.a(lib_a-locale.o)
riscv___StackTop                                  startup_RV32M1_ri5cy.o
riscv___VECTOR_TABLE                              rtthread.risc-v.lib(system_RV32M1_ri5cy.o)
riscv___ascii_mbtowc                              build/risc-v/libc.a(lib_a-mbtowc_r.o)
                                                  build/risc-v/libc.a(lib_a-locale.o)
riscv___ascii_wctomb                              build/risc-v/libc.a(lib_a-wctomb_r.o)
                                                  build/risc-v/libc.a(lib_a-locale.o)
riscv___assert_func                               rtthread.risc-v.lib(fsl_common.o)
                                                  rtthread.risc-v.lib(fsl_usdhc.o)
                                                  rtthread.risc-v.lib(fsl_sdmmc.o)
                                                  rtthread.risc-v.lib(fsl_sd.o)
                                                  rtthread.risc-v.lib(fsl_mu.o)
                                                  rtthread.risc-v.lib(fsl_sema42.o)
                                                  rtthread.risc-v.lib(fsl_gpio.o)
                                                  rtthread.risc-v.lib(fsl_clock.o)
                                                  rtthread.risc-v.lib(fsl_xrdc.o)
                                                  rtthread.risc-v.lib(fsl_msmc.o)
                                                  rtthread.risc-v.lib(fsl_lpuart.o)
                                                  rtthread.risc-v.lib(system_RV32M1_ri5cy.o)
                                                  rtthread.risc-v.lib(drv_sdcard.o)
                                                  rtthread.risc-v.lib(drv_uart.o)
                                                  rtthread.risc-v.lib(pin_mux.o)
                                                  rtthread.risc-v.lib(clock_config.o)
                                                  rtthread.risc-v.lib(board.o)
riscv___bswapsi2                                  build/risc-v/libgcc.a(_bswapsi2.o)
                                                  rtthread.risc-v.lib(fsl_sd.o)
riscv___clz_tab                                   build/risc-v/libgcc.a(_clz.o)
                                                  build/risc-v/libgcc.a(_clzsi2.o)
riscv___clzsi2                                    build/risc-v/libgcc.a(_clzsi2.o)
                                                  build/risc-v/libgcc.a(floatsidf.o)
riscv___errno                                     rtthread.risc-v.lib(syscalls.o)
riscv___floatsidf                                 build/risc-v/libgcc.a(floatsidf.o)
                                                  rtthread.risc-v.lib(time.o)
riscv___fp_lock_all                               build/risc-v/libc.a(lib_a-findfp.o)
riscv___fp_unlock_all                             build/risc-v/libc.a(lib_a-findfp.o)
riscv___fputwc                                    build/risc-v/libc.a(lib_a-fputwc.o)
riscv___fsym_cat                                  rtthread.risc-v.lib(msh_file.o)
riscv___fsym_cat_desc                             rtthread.risc-v.lib(msh_file.o)
riscv___fsym_cat_name                             rtthread.risc-v.lib(msh_file.o)
riscv___fsym_cd                                   rtthread.risc-v.lib(msh_file.o)
riscv___fsym_cd_desc                              rtthread.risc-v.lib(msh_file.o)
riscv___fsym_cd_name                              rtthread.risc-v.lib(msh_file.o)
riscv___fsym_clear                                rtthread.risc-v.lib(cmd.o)
riscv___fsym_clear_desc                           rtthread.risc-v.lib(cmd.o)
riscv___fsym_clear_name                           rtthread.risc-v.lib(cmd.o)
riscv___fsym_cp                                   rtthread.risc-v.lib(msh_file.o)
riscv___fsym_cp_desc                              rtthread.risc-v.lib(msh_file.o)
riscv___fsym_cp_name                              rtthread.risc-v.lib(msh_file.o)
riscv___fsym_df                                   rtthread.risc-v.lib(msh_file.o)
riscv___fsym_df_desc                              rtthread.risc-v.lib(msh_file.o)
riscv___fsym_df_name                              rtthread.risc-v.lib(msh_file.o)
riscv___fsym_echo                                 rtthread.risc-v.lib(msh_file.o)
riscv___fsym_echo_desc                            rtthread.risc-v.lib(msh_file.o)
riscv___fsym_echo_name                            rtthread.risc-v.lib(msh_file.o)
riscv___fsym_free                                 rtthread.risc-v.lib(msh.o)
riscv___fsym_free_desc                            rtthread.risc-v.lib(msh.o)
riscv___fsym_free_name                            rtthread.risc-v.lib(msh.o)
riscv___fsym_help                                 rtthread.risc-v.lib(msh.o)
riscv___fsym_help_desc                            rtthread.risc-v.lib(msh.o)
riscv___fsym_help_name                            rtthread.risc-v.lib(msh.o)
riscv___fsym_list_device                          rtthread.risc-v.lib(cmd.o)
riscv___fsym_list_device_desc                     rtthread.risc-v.lib(cmd.o)
riscv___fsym_list_device_name                     rtthread.risc-v.lib(cmd.o)
riscv___fsym_list_event                           rtthread.risc-v.lib(cmd.o)
riscv___fsym_list_event_desc                      rtthread.risc-v.lib(cmd.o)
riscv___fsym_list_event_name                      rtthread.risc-v.lib(cmd.o)
riscv___fsym_list_fd                              rtthread.risc-v.lib(dfs.o)
riscv___fsym_list_fd_desc                         rtthread.risc-v.lib(dfs.o)
riscv___fsym_list_fd_name                         rtthread.risc-v.lib(dfs.o)
riscv___fsym_list_mailbox                         rtthread.risc-v.lib(cmd.o)
riscv___fsym_list_mailbox_desc                    rtthread.risc-v.lib(cmd.o)
riscv___fsym_list_mailbox_name                    rtthread.risc-v.lib(cmd.o)
riscv___fsym_list_mempool                         rtthread.risc-v.lib(cmd.o)
riscv___fsym_list_mempool_desc                    rtthread.risc-v.lib(cmd.o)
riscv___fsym_list_mempool_name                    rtthread.risc-v.lib(cmd.o)
riscv___fsym_list_msgqueue                        rtthread.risc-v.lib(cmd.o)
riscv___fsym_list_msgqueue_desc                   rtthread.risc-v.lib(cmd.o)
riscv___fsym_list_msgqueue_name                   rtthread.risc-v.lib(cmd.o)
riscv___fsym_list_mutex                           rtthread.risc-v.lib(cmd.o)
riscv___fsym_list_mutex_desc                      rtthread.risc-v.lib(cmd.o)
riscv___fsym_list_mutex_name                      rtthread.risc-v.lib(cmd.o)
riscv___fsym_list_sem                             rtthread.risc-v.lib(cmd.o)
riscv___fsym_list_sem_desc                        rtthread.risc-v.lib(cmd.o)
riscv___fsym_list_sem_name                        rtthread.risc-v.lib(cmd.o)
riscv___fsym_list_thread                          rtthread.risc-v.lib(cmd.o)
riscv___fsym_list_thread_desc                     rtthread.risc-v.lib(cmd.o)
riscv___fsym_list_thread_name                     rtthread.risc-v.lib(cmd.o)
riscv___fsym_list_timer                           rtthread.risc-v.lib(cmd.o)
riscv___fsym_list_timer_desc                      rtthread.risc-v.lib(cmd.o)
riscv___fsym_list_timer_name                      rtthread.risc-v.lib(cmd.o)
riscv___fsym_ls                                   rtthread.risc-v.lib(msh_file.o)
riscv___fsym_ls_desc                              rtthread.risc-v.lib(msh_file.o)
riscv___fsym_ls_name                              rtthread.risc-v.lib(msh_file.o)
riscv___fsym_mkdir                                rtthread.risc-v.lib(msh_file.o)
riscv___fsym_mkdir_desc                           rtthread.risc-v.lib(msh_file.o)
riscv___fsym_mkdir_name                           rtthread.risc-v.lib(msh_file.o)
riscv___fsym_mkfs                                 rtthread.risc-v.lib(msh_file.o)
riscv___fsym_mkfs_desc                            rtthread.risc-v.lib(msh_file.o)
riscv___fsym_mkfs_name                            rtthread.risc-v.lib(msh_file.o)
riscv___fsym_mount                                rtthread.risc-v.lib(msh_file.o)
riscv___fsym_mount_desc                           rtthread.risc-v.lib(msh_file.o)
riscv___fsym_mount_name                           rtthread.risc-v.lib(msh_file.o)
riscv___fsym_mv                                   rtthread.risc-v.lib(msh_file.o)
riscv___fsym_mv_desc                              rtthread.risc-v.lib(msh_file.o)
riscv___fsym_mv_name                              rtthread.risc-v.lib(msh_file.o)
riscv___fsym_ps                                   rtthread.risc-v.lib(msh.o)
riscv___fsym_ps_desc                              rtthread.risc-v.lib(msh.o)
riscv___fsym_ps_name                              rtthread.risc-v.lib(msh.o)
riscv___fsym_pwd                                  rtthread.risc-v.lib(msh_file.o)
riscv___fsym_pwd_desc                             rtthread.risc-v.lib(msh_file.o)
riscv___fsym_pwd_name                             rtthread.risc-v.lib(msh_file.o)
riscv___fsym_rm                                   rtthread.risc-v.lib(msh_file.o)
riscv___fsym_rm_desc                              rtthread.risc-v.lib(msh_file.o)
riscv___fsym_rm_name                              rtthread.risc-v.lib(msh_file.o)
riscv___fsym_tail                                 rtthread.risc-v.lib(msh_file.o)
riscv___fsym_tail_desc                            rtthread.risc-v.lib(msh_file.o)
riscv___fsym_tail_name                            rtthread.risc-v.lib(msh_file.o)
riscv___fsym_umount                               rtthread.risc-v.lib(msh_file.o)
riscv___fsym_umount_desc                          rtthread.risc-v.lib(msh_file.o)
riscv___fsym_umount_name                          rtthread.risc-v.lib(msh_file.o)
riscv___fsym_version                              rtthread.risc-v.lib(cmd.o)
riscv___fsym_version_desc                         rtthread.risc-v.lib(cmd.o)
riscv___fsym_version_name                         rtthread.risc-v.lib(cmd.o)
riscv___fsymtab_end                               rtthread.risc-v.lib(shell.o)
riscv___fsymtab_start                             rtthread.risc-v.lib(shell.o)
riscv___global_locale                             build/risc-v/libc.a(lib_a-locale.o)
                                                  build/risc-v/libc.a(lib_a-wcrtomb.o)
                                                  build/risc-v/libc.a(lib_a-wctomb_r.o)
                                                  build/risc-v/libc.a(lib_a-mbtowc_r.o)
                                                  build/risc-v/libc.a(lib_a-strtol.o)
riscv___global_pointer                            startup_RV32M1_ri5cy.o
riscv___libc_init_array                           rtthread.risc-v.lib(syscalls.o)
riscv___locale_ctype_ptr                          build/risc-v/libc.a(lib_a-locale.o)
riscv___locale_ctype_ptr_l                        build/risc-v/libc.a(lib_a-locale.o)
                                                  build/risc-v/libc.a(lib_a-strtol.o)
riscv___locale_mb_cur_max                         build/risc-v/libc.a(lib_a-locale.o)
                                                  build/risc-v/libc.a(lib_a-fputwc.o)
riscv___lowest_bit_bitmap                         rtthread.risc-v.lib(kservice.o)
riscv___rt_ffs                                    rtthread.risc-v.lib(kservice.o)
                                                  rtthread.risc-v.lib(scheduler.o)
riscv___rt_init_dfs_init                          rtthread.risc-v.lib(dfs.o)
riscv___rt_init_elm_init                          rtthread.risc-v.lib(dfs_elm.o)
riscv___rt_init_finsh_system_init                 rtthread.risc-v.lib(shell.o)
riscv___rt_init_libc_system_init                  rtthread.risc-v.lib(libc.o)
riscv___rt_init_posix_sem_system_init             rtthread.risc-v.lib(semaphore.o)
riscv___rt_init_pthread_key_system_init           rtthread.risc-v.lib(pthread_tls.o)
riscv___rt_init_rt_hw_sdcard_init                 rtthread.risc-v.lib(drv_sdcard.o)
riscv___rt_init_rti_board_end                     rtthread.risc-v.lib(components.o)
riscv___rt_init_rti_board_start                   rtthread.risc-v.lib(components.o)
riscv___rt_init_rti_end                           rtthread.risc-v.lib(components.o)
riscv___rt_init_rti_start                         rtthread.risc-v.lib(components.o)
riscv___rt_init_ulog_console_backend_init         rtthread.risc-v.lib(console_be.o)
riscv___rt_init_ulog_init                         rtthread.risc-v.lib(ulog.o)
riscv___rt_libc_exit                              rtthread.risc-v.lib(stdlib.o)
                                                  rtthread.risc-v.lib(syscalls.o)
riscv___sclose                                    build/risc-v/libc.a(lib_a-stdio.o)
                                                  build/risc-v/libc.a(lib_a-fopen.o)
                                                  build/risc-v/libc.a(lib_a-findfp.o)
riscv___seofread                                  build/risc-v/libc.a(lib_a-stdio.o)
riscv___sflags                                    build/risc-v/libc.a(lib_a-flags.o)
                                                  build/risc-v/libc.a(lib_a-fopen.o)
riscv___sflush_r                                  build/risc-v/libc.a(lib_a-fflush.o)
                                                  build/risc-v/libc.a(lib_a-refill.o)
                                                  build/risc-v/libc.a(lib_a-fclose.o)
riscv___sfmoreglue                                build/risc-v/libc.a(lib_a-findfp.o)
riscv___sfp                                       build/risc-v/libc.a(lib_a-findfp.o)
                                                  build/risc-v/libc.a(lib_a-fopen.o)
riscv___sfp_lock_acquire                          build/risc-v/libc.a(lib_a-findfp.o)
                                                  build/risc-v/libc.a(lib_a-fopen.o)
                                                  build/risc-v/libc.a(lib_a-fclose.o)
riscv___sfp_lock_release                          build/risc-v/libc.a(lib_a-findfp.o)
                                                  build/risc-v/libc.a(lib_a-fopen.o)
                                                  build/risc-v/libc.a(lib_a-fclose.o)
riscv___sfputs_r                                  build/risc-v/libc.a(lib_a-nano-vfprintf.o)
riscv___sfvwrite_r                                build/risc-v/libc.a(lib_a-fvwrite.o)
                                                  build/risc-v/libc.a(lib_a-nano-vfprintf.o)
                                                  build/risc-v/libc.a(lib_a-fwrite.o)
riscv___sinit                                     build/risc-v/libc.a(lib_a-findfp.o)
                                                  build/risc-v/libc.a(lib_a-fputwc.o)
                                                  build/risc-v/libc.a(lib_a-wsetup.o)
                                                  build/risc-v/libc.a(lib_a-wbuf.o)
                                                  build/risc-v/libc.a(lib_a-nano-vfprintf.o)
                                                  build/risc-v/libc.a(lib_a-setvbuf.o)
                                                  build/risc-v/libc.a(lib_a-refill.o)
                                                  build/risc-v/libc.a(lib_a-fwrite.o)
                                                  build/risc-v/libc.a(lib_a-fseeko.o)
                                                  build/risc-v/libc.a(lib_a-fread.o)
                                                  build/risc-v/libc.a(lib_a-fileno.o)
                                                  build/risc-v/libc.a(lib_a-fflush.o)
                                                  build/risc-v/libc.a(lib_a-fclose.o)
riscv___sinit_lock_acquire                        build/risc-v/libc.a(lib_a-findfp.o)
riscv___sinit_lock_release                        build/risc-v/libc.a(lib_a-findfp.o)
riscv___smakebuf_r                                build/risc-v/libc.a(lib_a-makebuf.o)
                                                  build/risc-v/libc.a(lib_a-wsetup.o)
                                                  build/risc-v/libc.a(lib_a-refill.o)
                                                  build/risc-v/libc.a(lib_a-fseeko.o)
riscv___sprint_r                                  build/risc-v/libc.a(lib_a-nano-vfprintf.o)
riscv___sread                                     build/risc-v/libc.a(lib_a-stdio.o)
                                                  build/risc-v/libc.a(lib_a-fopen.o)
                                                  build/risc-v/libc.a(lib_a-findfp.o)
riscv___srefill_r                                 build/risc-v/libc.a(lib_a-refill.o)
                                                  build/risc-v/libc.a(lib_a-fseeko.o)
                                                  build/risc-v/libc.a(lib_a-fread.o)
riscv___sseek                                     build/risc-v/libc.a(lib_a-stdio.o)
                                                  build/risc-v/libc.a(lib_a-fseeko.o)
                                                  build/risc-v/libc.a(lib_a-fopen.o)
                                                  build/risc-v/libc.a(lib_a-findfp.o)
riscv___ssprint_r                                 build/risc-v/libc.a(lib_a-nano-svfprintf.o)
riscv___ssputs_r                                  build/risc-v/libc.a(lib_a-nano-svfprintf.o)
riscv___swbuf                                     build/risc-v/libc.a(lib_a-wbuf.o)
riscv___swbuf_r                                   build/risc-v/libc.a(lib_a-wbuf.o)
                                                  build/risc-v/libc.a(lib_a-fputwc.o)
                                                  build/risc-v/libc.a(lib_a-nano-vfprintf.o)
riscv___swhatbuf_r                                build/risc-v/libc.a(lib_a-makebuf.o)
                                                  build/risc-v/libc.a(lib_a-setvbuf.o)
riscv___swrite                                    build/risc-v/libc.a(lib_a-stdio.o)
                                                  build/risc-v/libc.a(lib_a-fopen.o)
                                                  build/risc-v/libc.a(lib_a-findfp.o)
riscv___swsetup_r                                 build/risc-v/libc.a(lib_a-wsetup.o)
                                                  build/risc-v/libc.a(lib_a-wbuf.o)
                                                  build/risc-v/libc.a(lib_a-nano-vfprintf.o)
                                                  build/risc-v/libc.a(lib_a-fvwrite.o)
riscv___wqueue_default_wake                       rtthread.risc-v.lib(waitqueue.o)
riscv__atoi_r                                     build/risc-v/libc.a(lib_a-atoi.o)
riscv__calloc_r                                   rtthread.risc-v.lib(syscalls.o)
riscv__cleanup                                    build/risc-v/libc.a(lib_a-findfp.o)
riscv__cleanup_r                                  build/risc-v/libc.a(lib_a-findfp.o)
                                                  build/risc-v/libc.a(lib_a-makebuf.o)
riscv__close_r                                    build/risc-v/libc.a(lib_a-closer.o)
                                                  build/risc-v/libc.a(lib_a-stdio.o)
riscv__ctype_                                     build/risc-v/libc.a(lib_a-ctype_.o)
                                                  build/risc-v/libc.a(lib_a-locale.o)
riscv__execve_r                                   rtthread.risc-v.lib(syscalls.o)
riscv__exit                                       rtthread.risc-v.lib(syscalls.o)
riscv__fclose_r                                   build/risc-v/libc.a(lib_a-fclose.o)
                                                  build/risc-v/libc.a(lib_a-findfp.o)
riscv__fcntl_r                                    rtthread.risc-v.lib(syscalls.o)
riscv__fflush_r                                   build/risc-v/libc.a(lib_a-fflush.o)
                                                  build/risc-v/libc.a(lib_a-wbuf.o)
                                                  build/risc-v/libc.a(lib_a-fvwrite.o)
                                                  build/risc-v/libc.a(lib_a-setvbuf.o)
                                                  build/risc-v/libc.a(lib_a-refill.o)
                                                  build/risc-v/libc.a(lib_a-fseeko.o)
riscv__fini                                       startup_RV32M1_ri5cy.o
riscv__fopen_r                                    build/risc-v/libc.a(lib_a-fopen.o)
riscv__fork_r                                     rtthread.risc-v.lib(syscalls.o)
riscv__fputwc_r                                   build/risc-v/libc.a(lib_a-fputwc.o)
                                                  build/risc-v/libc.a(lib_a-nano-vfprintf.o)
riscv__fread_r                                    build/risc-v/libc.a(lib_a-fread.o)
riscv__free_r                                     rtthread.risc-v.lib(syscalls.o)
                                                  build/risc-v/libc.a(lib_a-wsetup.o)
                                                  build/risc-v/libc.a(lib_a-nano-svfprintf.o)
                                                  build/risc-v/libc.a(lib_a-fvwrite.o)
                                                  build/risc-v/libc.a(lib_a-setvbuf.o)
                                                  build/risc-v/libc.a(lib_a-refill.o)
                                                  build/risc-v/libc.a(lib_a-reent.o)
                                                  build/risc-v/libc.a(lib_a-malloc.o)
                                                  build/risc-v/libc.a(lib_a-fseeko.o)
                                                  build/risc-v/libc.a(lib_a-fflush.o)
                                                  build/risc-v/libc.a(lib_a-fclose.o)
riscv__fseek_r                                    build/risc-v/libc.a(lib_a-fseek.o)
                                                  build/risc-v/libc.a(lib_a-fopen.o)
riscv__fseeko_r                                   build/risc-v/libc.a(lib_a-fseeko.o)
                                                  build/risc-v/libc.a(lib_a-fseek.o)
riscv__fstat_r                                    build/risc-v/libc.a(lib_a-fstatr.o)
                                                  build/risc-v/libc.a(lib_a-makebuf.o)
                                                  build/risc-v/libc.a(lib_a-fseeko.o)
riscv__fwalk                                      build/risc-v/libc.a(lib_a-fwalk.o)
                                                  build/risc-v/libc.a(lib_a-refill.o)
                                                  build/risc-v/libc.a(lib_a-findfp.o)
riscv__fwalk_reent                                build/risc-v/libc.a(lib_a-fwalk.o)
                                                  build/risc-v/libc.a(lib_a-findfp.o)
                                                  build/risc-v/libc.a(lib_a-fflush.o)
riscv__fwrite_r                                   build/risc-v/libc.a(lib_a-fwrite.o)
riscv__getpid_r                                   rtthread.risc-v.lib(syscalls.o)
riscv__global_impure_ptr                          build/risc-v/libc.a(lib_a-impure.o)
                                                  build/risc-v/libc.a(lib_a-refill.o)
                                                  build/risc-v/libc.a(lib_a-findfp.o)
                                                  build/risc-v/libc.a(lib_a-fflush.o)
                                                  rtthread.risc-v.lib(libc.o)
riscv__impure_ptr                                 build/risc-v/libc.a(lib_a-impure.o)
                                                  build/risc-v/libc.a(lib_a-wcrtomb.o)
                                                  build/risc-v/libc.a(lib_a-fputwc.o)
                                                  build/risc-v/libc.a(lib_a-wsetup.o)
                                                  build/risc-v/libc.a(lib_a-wctomb_r.o)
                                                  build/risc-v/libc.a(lib_a-wbuf.o)
                                                  build/risc-v/libc.a(lib_a-nano-vfprintf.o)
                                                  build/risc-v/libc.a(lib_a-mbtowc_r.o)
                                                  build/risc-v/libc.a(lib_a-locale.o)
                                                  build/risc-v/libc.a(lib_a-strtol.o)
                                                  build/risc-v/libc.a(lib_a-snprintf.o)
                                                  build/risc-v/libc.a(lib_a-setvbuf.o)
                                                  build/risc-v/libc.a(lib_a-reent.o)
                                                  build/risc-v/libc.a(lib_a-printf.o)
                                                  build/risc-v/libc.a(lib_a-malloc.o)
                                                  build/risc-v/libc.a(lib_a-fwrite.o)
                                                  build/risc-v/libc.a(lib_a-fseeko.o)
                                                  build/risc-v/libc.a(lib_a-fseek.o)
                                                  build/risc-v/libc.a(lib_a-fread.o)
                                                  build/risc-v/libc.a(lib_a-fopen.o)
                                                  build/risc-v/libc.a(lib_a-findfp.o)
                                                  build/risc-v/libc.a(lib_a-fileno.o)
                                                  build/risc-v/libc.a(lib_a-fflush.o)
                                                  build/risc-v/libc.a(lib_a-fclose.o)
riscv__init                                       startup_RV32M1_ri5cy.o
riscv__iprintf_r                                  build/risc-v/libc.a(lib_a-printf.o)
riscv__isatty_r                                   build/risc-v/libc.a(lib_a-isattyr.o)
                                                  build/risc-v/libc.a(lib_a-makebuf.o)
riscv__kill_r                                     rtthread.risc-v.lib(syscalls.o)
riscv__link_r                                     rtthread.risc-v.lib(syscalls.o)
riscv__lseek_r                                    rtthread.risc-v.lib(syscalls.o)
                                                  build/risc-v/libc.a(lib_a-stdio.o)
riscv__malloc_r                                   rtthread.risc-v.lib(syscalls.o)
                                                  build/risc-v/libc.a(lib_a-nano-svfprintf.o)
                                                  build/risc-v/libc.a(lib_a-fvwrite.o)
                                                  build/risc-v/libc.a(lib_a-malloc.o)
                                                  build/risc-v/libc.a(lib_a-makebuf.o)
                                                  build/risc-v/libc.a(lib_a-findfp.o)
riscv__mbtowc_r                                   build/risc-v/libc.a(lib_a-mbtowc_r.o)
riscv__mkdir_r                                    rtthread.risc-v.lib(syscalls.o)
riscv__open_r                                     rtthread.risc-v.lib(syscalls.o)
                                                  build/risc-v/libc.a(lib_a-fopen.o)
riscv__printf_common                              build/risc-v/libc.a(lib_a-nano-vfprintf_i.o)
riscv__printf_float                               build/risc-v/libc.a(lib_a-nano-vfprintf.o)
                                                  build/risc-v/libc.a(lib_a-nano-svfprintf.o)
riscv__printf_i                                   build/risc-v/libc.a(lib_a-nano-vfprintf_i.o)
                                                  build/risc-v/libc.a(lib_a-nano-vfprintf.o)
                                                  build/risc-v/libc.a(lib_a-nano-svfprintf.o)
riscv__printf_r                                   build/risc-v/libc.a(lib_a-printf.o)
riscv__pthread_data_create                        rtthread.risc-v.lib(pthread.o)
riscv__pthread_data_destroy                       rtthread.risc-v.lib(pthread.o)
riscv__pthread_data_get_pth                       rtthread.risc-v.lib(pthread.o)
riscv__pthread_get_data                           rtthread.risc-v.lib(pthread.o)
riscv__read_r                                     rtthread.risc-v.lib(syscalls.o)
                                                  build/risc-v/libc.a(lib_a-stdio.o)
riscv__realloc_r                                  rtthread.risc-v.lib(syscalls.o)
                                                  build/risc-v/libc.a(lib_a-nano-svfprintf.o)
                                                  build/risc-v/libc.a(lib_a-fvwrite.o)
riscv__reclaim_reent                              build/risc-v/libc.a(lib_a-reent.o)
riscv__rename_r                                   rtthread.risc-v.lib(syscalls.o)
riscv__rt_errno                                   rtthread.risc-v.lib(kservice.o)
                                                  rtthread.risc-v.lib(syscalls.o)
riscv__setlocale_r                                build/risc-v/libc.a(lib_a-locale.o)
riscv__sniprintf_r                                build/risc-v/libc.a(lib_a-snprintf.o)
riscv__snprintf_r                                 build/risc-v/libc.a(lib_a-snprintf.o)
riscv__stat_r                                     rtthread.risc-v.lib(syscalls.o)
riscv__strtol_r                                   build/risc-v/libc.a(lib_a-strtol.o)
                                                  build/risc-v/libc.a(lib_a-atoi.o)
riscv__svfiprintf_r                               build/risc-v/libc.a(lib_a-nano-svfprintf.o)
riscv__svfprintf_r                                build/risc-v/libc.a(lib_a-nano-svfprintf.o)
                                                  build/risc-v/libc.a(lib_a-snprintf.o)
riscv__syscall_table_begin                        rtthread.risc-v.lib(shell.o)
                                                  rtthread.risc-v.lib(msh.o)
riscv__syscall_table_end                          rtthread.risc-v.lib(shell.o)
                                                  rtthread.risc-v.lib(msh.o)
riscv__thread_keys                                rtthread.risc-v.lib(pthread_tls.o)
                                                  rtthread.risc-v.lib(pthread.o)
riscv__uart_ops                                   rtthread.risc-v.lib(drv_uart.o)
riscv__unlink_r                                   rtthread.risc-v.lib(syscalls.o)
riscv__vfiprintf_r                                build/risc-v/libc.a(lib_a-nano-vfprintf.o)
riscv__vfprintf_r                                 build/risc-v/libc.a(lib_a-nano-vfprintf.o)
                                                  build/risc-v/libc.a(lib_a-printf.o)
riscv__wait_r                                     rtthread.risc-v.lib(syscalls.o)
riscv__wcrtomb_r                                  build/risc-v/libc.a(lib_a-wcrtomb.o)
                                                  build/risc-v/libc.a(lib_a-fputwc.o)
riscv__wctomb_r                                   build/risc-v/libc.a(lib_a-wctomb_r.o)
riscv__write_r                                    rtthread.risc-v.lib(syscalls.o)
                                                  build/risc-v/libc.a(lib_a-stdio.o)
riscv_a0                                          rtthread.risc-v.lib(context_gcc.o)
riscv_a1                                          rtthread.risc-v.lib(context_gcc.o)
riscv_access                                      rtthread.risc-v.lib(dfs_posix.o)
riscv_asctime                                     rtthread.risc-v.lib(time.o)
riscv_asctime_r                                   rtthread.risc-v.lib(time.o)
riscv_atoi                                        build/risc-v/libc.a(lib_a-atoi.o)
                                                  rtthread.risc-v.lib(msh_file.o)
                                                  rtthread.risc-v.lib(serial.o)
riscv_cat                                         rtthread.risc-v.lib(dfs_file.o)
                                                  rtthread.risc-v.lib(msh_file.o)
riscv_chdir                                       rtthread.risc-v.lib(dfs_posix.o)
                                                  rtthread.risc-v.lib(msh_file.o)
riscv_cleanup_glue                                build/risc-v/libc.a(lib_a-reent.o)
riscv_clock                                       rtthread.risc-v.lib(time.o)
riscv_clock_getres                                rtthread.risc-v.lib(time.o)
riscv_clock_gettime                               rtthread.risc-v.lib(time.o)
riscv_clock_nanosleep                             rtthread.risc-v.lib(time.o)
riscv_clock_settime                               rtthread.risc-v.lib(time.o)
riscv_close                                       rtthread.risc-v.lib(dfs_posix.o)
                                                  rtthread.risc-v.lib(syscalls.o)
                                                  build/risc-v/libc.a(lib_a-closer.o)
                                                  rtthread.risc-v.lib(msh_file.o)
riscv_closedir                                    rtthread.risc-v.lib(dfs_posix.o)
                                                  rtthread.risc-v.lib(msh_file.o)
                                                  rtthread.risc-v.lib(msh.o)
riscv_cmd_free                                    rtthread.risc-v.lib(msh.o)
riscv_cmd_ps                                      rtthread.risc-v.lib(msh.o)
riscv_copy                                        rtthread.risc-v.lib(dfs_file.o)
                                                  rtthread.risc-v.lib(msh_file.o)
riscv_creat                                       rtthread.risc-v.lib(dfs_posix.o)
riscv_ctime                                       rtthread.risc-v.lib(time.o)
riscv_ctime_r                                     rtthread.risc-v.lib(time.o)
riscv_devfs_init                                  rtthread.risc-v.lib(devfs.o)
                                                  rtthread.risc-v.lib(dfs.o)
riscv_df                                          rtthread.risc-v.lib(dfs_fs.o)
                                                  rtthread.risc-v.lib(msh_file.o)
riscv_dfs_device_fs_close                         rtthread.risc-v.lib(devfs.o)
riscv_dfs_device_fs_getdents                      rtthread.risc-v.lib(devfs.o)
riscv_dfs_device_fs_ioctl                         rtthread.risc-v.lib(devfs.o)
riscv_dfs_device_fs_mount                         rtthread.risc-v.lib(devfs.o)
riscv_dfs_device_fs_open                          rtthread.risc-v.lib(devfs.o)
riscv_dfs_device_fs_read                          rtthread.risc-v.lib(devfs.o)
riscv_dfs_device_fs_stat                          rtthread.risc-v.lib(devfs.o)
riscv_dfs_device_fs_write                         rtthread.risc-v.lib(devfs.o)
riscv_dfs_elm_close                               rtthread.risc-v.lib(dfs_elm.o)
riscv_dfs_elm_flush                               rtthread.risc-v.lib(dfs_elm.o)
riscv_dfs_elm_getdents                            rtthread.risc-v.lib(dfs_elm.o)
riscv_dfs_elm_ioctl                               rtthread.risc-v.lib(dfs_elm.o)
riscv_dfs_elm_lseek                               rtthread.risc-v.lib(dfs_elm.o)
riscv_dfs_elm_mkfs                                rtthread.risc-v.lib(dfs_elm.o)
riscv_dfs_elm_mount                               rtthread.risc-v.lib(dfs_elm.o)
riscv_dfs_elm_open                                rtthread.risc-v.lib(dfs_elm.o)
riscv_dfs_elm_read                                rtthread.risc-v.lib(dfs_elm.o)
riscv_dfs_elm_rename                              rtthread.risc-v.lib(dfs_elm.o)
riscv_dfs_elm_stat                                rtthread.risc-v.lib(dfs_elm.o)
riscv_dfs_elm_statfs                              rtthread.risc-v.lib(dfs_elm.o)
riscv_dfs_elm_unlink                              rtthread.risc-v.lib(dfs_elm.o)
riscv_dfs_elm_unmount                             rtthread.risc-v.lib(dfs_elm.o)
riscv_dfs_elm_write                               rtthread.risc-v.lib(dfs_elm.o)
riscv_dfs_fdtable_get                             rtthread.risc-v.lib(dfs.o)
riscv_dfs_file_close                              rtthread.risc-v.lib(dfs_file.o)
                                                  rtthread.risc-v.lib(dfs_posix.o)
                                                  rtthread.risc-v.lib(dfs_fs.o)
riscv_dfs_file_flush                              rtthread.risc-v.lib(dfs_file.o)
                                                  rtthread.risc-v.lib(dfs_posix.o)
riscv_dfs_file_ftruncate                          rtthread.risc-v.lib(dfs_file.o)
                                                  rtthread.risc-v.lib(dfs_posix.o)
riscv_dfs_file_getdents                           rtthread.risc-v.lib(dfs_file.o)
                                                  rtthread.risc-v.lib(dfs_posix.o)
riscv_dfs_file_ioctl                              rtthread.risc-v.lib(dfs_file.o)
                                                  rtthread.risc-v.lib(dfs_posix.o)
riscv_dfs_file_lseek                              rtthread.risc-v.lib(dfs_file.o)
                                                  rtthread.risc-v.lib(dfs_posix.o)
riscv_dfs_file_open                               rtthread.risc-v.lib(dfs_file.o)
                                                  rtthread.risc-v.lib(dfs_posix.o)
                                                  rtthread.risc-v.lib(dfs_fs.o)
riscv_dfs_file_read                               rtthread.risc-v.lib(dfs_file.o)
                                                  rtthread.risc-v.lib(dfs_posix.o)
riscv_dfs_file_rename                             rtthread.risc-v.lib(dfs_file.o)
                                                  rtthread.risc-v.lib(dfs_posix.o)
riscv_dfs_file_stat                               rtthread.risc-v.lib(dfs_file.o)
                                                  rtthread.risc-v.lib(dfs_posix.o)
riscv_dfs_file_unlink                             rtthread.risc-v.lib(dfs_file.o)
                                                  rtthread.risc-v.lib(dfs_posix.o)
riscv_dfs_file_write                              rtthread.risc-v.lib(dfs_file.o)
                                                  rtthread.risc-v.lib(dfs_posix.o)
riscv_dfs_filesystem_get_mounted_path             rtthread.risc-v.lib(dfs_fs.o)
riscv_dfs_filesystem_get_partition                rtthread.risc-v.lib(dfs_fs.o)
                                                  rtthread.risc-v.lib(drv_sdcard.o)
riscv_dfs_filesystem_lookup                       rtthread.risc-v.lib(dfs_fs.o)
                                                  rtthread.risc-v.lib(dfs_file.o)
                                                  rtthread.risc-v.lib(dfs.o)
riscv_dfs_init                                    rtthread.risc-v.lib(dfs.o)
riscv_dfs_lock                                    rtthread.risc-v.lib(dfs.o)
                                                  rtthread.risc-v.lib(dfs_posix.o)
                                                  rtthread.risc-v.lib(dfs_fs.o)
riscv_dfs_mkfs                                    rtthread.risc-v.lib(dfs_fs.o)
                                                  rtthread.risc-v.lib(msh_file.o)
riscv_dfs_mount                                   rtthread.risc-v.lib(dfs_fs.o)
                                                  rtthread.risc-v.lib(msh_file.o)
                                                  rtthread.risc-v.lib(dfs.o)
                                                  rtthread.risc-v.lib(mnt.o)
riscv_dfs_normalize_path                          rtthread.risc-v.lib(dfs.o)
                                                  rtthread.risc-v.lib(dfs_posix.o)
                                                  rtthread.risc-v.lib(dfs_file.o)
                                                  rtthread.risc-v.lib(dfs_fs.o)
riscv_dfs_register                                rtthread.risc-v.lib(dfs_fs.o)
                                                  rtthread.risc-v.lib(dfs_elm.o)
                                                  rtthread.risc-v.lib(devfs.o)
riscv_dfs_statfs                                  rtthread.risc-v.lib(dfs_fs.o)
                                                  rtthread.risc-v.lib(dfs_posix.o)
riscv_dfs_subdir                                  rtthread.risc-v.lib(dfs.o)
                                                  rtthread.risc-v.lib(dfs_file.o)
riscv_dfs_unlock                                  rtthread.risc-v.lib(dfs.o)
                                                  rtthread.risc-v.lib(dfs_posix.o)
                                                  rtthread.risc-v.lib(dfs_fs.o)
riscv_dfs_unmount                                 rtthread.risc-v.lib(dfs_fs.o)
                                                  rtthread.risc-v.lib(msh_file.o)
riscv_difftime                                    rtthread.risc-v.lib(time.o)
riscv_disk_initialize                             rtthread.risc-v.lib(dfs_elm.o)
                                                  rtthread.risc-v.lib(ff.o)
                                                  rtthread.risc-v.lib(mnt.o)
riscv_disk_ioctl                                  rtthread.risc-v.lib(dfs_elm.o)
                                                  rtthread.risc-v.lib(ff.o)
riscv_disk_read                                   rtthread.risc-v.lib(dfs_elm.o)
                                                  rtthread.risc-v.lib(ff.o)
riscv_disk_status                                 rtthread.risc-v.lib(dfs_elm.o)
                                                  rtthread.risc-v.lib(ff.o)
riscv_disk_write                                  rtthread.risc-v.lib(dfs_elm.o)
                                                  rtthread.risc-v.lib(ff.o)
riscv_elm_get_vol                                 rtthread.risc-v.lib(ff.o)
                                                  rtthread.risc-v.lib(dfs_elm.o)
riscv_entry                                       rtthread.risc-v.lib(startup.o)
                                                  startup_RV32M1_ri5cy.o
riscv_errno                                       build/risc-v/libc.a(lib_a-reent.o)
                                                  build/risc-v/libc.a(lib_a-isattyr.o)
                                                  build/risc-v/libc.a(lib_a-closer.o)
                                                  build/risc-v/libc.a(lib_a-fstatr.o)
riscv_f_close                                     rtthread.risc-v.lib(ff.o)
                                                  rtthread.risc-v.lib(dfs_elm.o)
riscv_f_closedir                                  rtthread.risc-v.lib(ff.o)
riscv_f_getfree                                   rtthread.risc-v.lib(ff.o)
                                                  rtthread.risc-v.lib(dfs_elm.o)
riscv_f_lseek                                     rtthread.risc-v.lib(ff.o)
                                                  rtthread.risc-v.lib(dfs_elm.o)
riscv_f_mkdir                                     rtthread.risc-v.lib(ff.o)
                                                  rtthread.risc-v.lib(dfs_elm.o)
riscv_f_mkfs                                      rtthread.risc-v.lib(ff.o)
                                                  rtthread.risc-v.lib(dfs_elm.o)
riscv_f_mount                                     rtthread.risc-v.lib(ff.o)
                                                  rtthread.risc-v.lib(dfs_elm.o)
riscv_f_open                                      rtthread.risc-v.lib(ff.o)
                                                  rtthread.risc-v.lib(dfs_elm.o)
riscv_f_opendir                                   rtthread.risc-v.lib(ff.o)
                                                  rtthread.risc-v.lib(dfs_elm.o)
riscv_f_read                                      rtthread.risc-v.lib(ff.o)
                                                  rtthread.risc-v.lib(dfs_elm.o)
riscv_f_readdir                                   rtthread.risc-v.lib(ff.o)
                                                  rtthread.risc-v.lib(dfs_elm.o)
riscv_f_rename                                    rtthread.risc-v.lib(ff.o)
                                                  rtthread.risc-v.lib(dfs_elm.o)
riscv_f_seekdir                                   rtthread.risc-v.lib(ff.o)
                                                  rtthread.risc-v.lib(dfs_elm.o)
riscv_f_stat                                      rtthread.risc-v.lib(ff.o)
                                                  rtthread.risc-v.lib(dfs_elm.o)
riscv_f_sync                                      rtthread.risc-v.lib(ff.o)
                                                  rtthread.risc-v.lib(dfs_elm.o)
riscv_f_truncate                                  rtthread.risc-v.lib(ff.o)
                                                  rtthread.risc-v.lib(dfs_elm.o)
riscv_f_unlink                                    rtthread.risc-v.lib(ff.o)
                                                  rtthread.risc-v.lib(dfs_elm.o)
riscv_f_write                                     rtthread.risc-v.lib(ff.o)
                                                  rtthread.risc-v.lib(dfs_elm.o)
riscv_fclose                                      build/risc-v/libc.a(lib_a-fclose.o)
                                                  rtthread.risc-v.lib(libc.o)
                                                  rtthread.risc-v.lib(main.o)
riscv_fcntl                                       rtthread.risc-v.lib(dfs_posix.o)
riscv_fd_get                                      rtthread.risc-v.lib(dfs.o)
                                                  rtthread.risc-v.lib(dfs_posix.o)
riscv_fd_is_open                                  rtthread.risc-v.lib(dfs.o)
                                                  rtthread.risc-v.lib(dfs_file.o)
riscv_fd_new                                      rtthread.risc-v.lib(dfs.o)
                                                  rtthread.risc-v.lib(dfs_posix.o)
riscv_fd_put                                      rtthread.risc-v.lib(dfs.o)
                                                  rtthread.risc-v.lib(dfs_posix.o)
riscv_ff_cre_syncobj                              rtthread.risc-v.lib(dfs_elm.o)
                                                  rtthread.risc-v.lib(ff.o)
riscv_ff_del_syncobj                              rtthread.risc-v.lib(dfs_elm.o)
                                                  rtthread.risc-v.lib(ff.o)
riscv_ff_memalloc                                 rtthread.risc-v.lib(dfs_elm.o)
                                                  rtthread.risc-v.lib(ff.o)
riscv_ff_memfree                                  rtthread.risc-v.lib(dfs_elm.o)
                                                  rtthread.risc-v.lib(ff.o)
riscv_ff_oem2uni                                  rtthread.risc-v.lib(ffunicode.o)
                                                  rtthread.risc-v.lib(ff.o)
riscv_ff_rel_grant                                rtthread.risc-v.lib(dfs_elm.o)
                                                  rtthread.risc-v.lib(ff.o)
riscv_ff_req_grant                                rtthread.risc-v.lib(dfs_elm.o)
                                                  rtthread.risc-v.lib(ff.o)
riscv_ff_uni2oem                                  rtthread.risc-v.lib(ffunicode.o)
                                                  rtthread.risc-v.lib(ff.o)
riscv_ff_wtoupper                                 rtthread.risc-v.lib(ffunicode.o)
                                                  rtthread.risc-v.lib(ff.o)
riscv_fflush                                      build/risc-v/libc.a(lib_a-fflush.o)
                                                  build/risc-v/libc.a(lib_a-refill.o)
                                                  rtthread.risc-v.lib(main.o)
riscv_fileno                                      build/risc-v/libc.a(lib_a-fileno.o)
                                                  rtthread.risc-v.lib(libc.o)
riscv_finsh_get_echo                              rtthread.risc-v.lib(shell.o)
riscv_finsh_get_prompt                            rtthread.risc-v.lib(shell.o)
riscv_finsh_get_prompt_mode                       rtthread.risc-v.lib(shell.o)
riscv_finsh_getchar                               rtthread.risc-v.lib(shell.o)
                                                  rtthread.risc-v.lib(serial.o)
riscv_finsh_set_echo                              rtthread.risc-v.lib(shell.o)
riscv_finsh_set_prompt                            rtthread.risc-v.lib(shell.o)
riscv_finsh_set_prompt_mode                       rtthread.risc-v.lib(shell.o)
riscv_finsh_system_function_init                  rtthread.risc-v.lib(shell.o)
riscv_finsh_system_init                           rtthread.risc-v.lib(shell.o)
riscv_finsh_thread_entry                          rtthread.risc-v.lib(shell.o)
riscv_flock                                       rtthread.risc-v.lib(syscalls.o)
riscv_fopen                                       build/risc-v/libc.a(lib_a-fopen.o)
                                                  rtthread.risc-v.lib(libc.o)
                                                  rtthread.risc-v.lib(main.o)
riscv_fputwc                                      build/risc-v/libc.a(lib_a-fputwc.o)
riscv_fread                                       build/risc-v/libc.a(lib_a-fread.o)
                                                  rtthread.risc-v.lib(main.o)
riscv_free                                        build/risc-v/libc.a(lib_a-malloc.o)
                                                  rtthread.risc-v.lib(main.o)
riscv_fseek                                       build/risc-v/libc.a(lib_a-fseek.o)
riscv_fseeko                                      build/risc-v/libc.a(lib_a-fseeko.o)
riscv_fstat                                       rtthread.risc-v.lib(dfs_posix.o)
                                                  build/risc-v/libc.a(lib_a-fstatr.o)
riscv_fsync                                       rtthread.risc-v.lib(dfs_posix.o)
riscv_ftruncate                                   rtthread.risc-v.lib(dfs_posix.o)
riscv_fwrite                                      build/risc-v/libc.a(lib_a-fwrite.o)
                                                  rtthread.risc-v.lib(main.o)
riscv_g_appScgLpFllConfig_BOARD_BootClockRUN      rtthread.risc-v.lib(board.o)
riscv_g_scgFircConfig_BOARD_BootClockHSRUN        rtthread.risc-v.lib(clock_config.o)
riscv_g_scgFircConfig_BOARD_BootClockRUN          rtthread.risc-v.lib(clock_config.o)
riscv_g_scgFircConfig_BOARD_BootClockVLPR         rtthread.risc-v.lib(clock_config.o)
riscv_g_scgLpFllConfig_BOARD_BootClockHSRUN       rtthread.risc-v.lib(clock_config.o)
riscv_g_scgLpFllConfig_BOARD_BootClockRUN         rtthread.risc-v.lib(clock_config.o)
riscv_g_scgLpFllConfig_BOARD_BootClockVLPR        rtthread.risc-v.lib(clock_config.o)
riscv_g_scgSircConfig_BOARD_BootClockHSRUN        rtthread.risc-v.lib(clock_config.o)
riscv_g_scgSircConfig_BOARD_BootClockRUN          rtthread.risc-v.lib(clock_config.o)
riscv_g_scgSircConfig_BOARD_BootClockVLPR         rtthread.risc-v.lib(clock_config.o)
riscv_g_scgSysOscConfig_BOARD_BootClockHSRUN      rtthread.risc-v.lib(clock_config.o)
riscv_g_scgSysOscConfig_BOARD_BootClockRUN        rtthread.risc-v.lib(clock_config.o)
riscv_g_scgSysOscConfig_BOARD_BootClockVLPR       rtthread.risc-v.lib(clock_config.o)
riscv_g_sdmmc                                     rtthread.risc-v.lib(fsl_sdmmc.o)
                                                  rtthread.risc-v.lib(fsl_sd.o)
riscv_g_sysClkConfig_BOARD_BootClockHSRUN         rtthread.risc-v.lib(clock_config.o)
riscv_g_sysClkConfig_BOARD_BootClockRUN           rtthread.risc-v.lib(clock_config.o)
riscv_g_sysClkConfig_BOARD_BootClockVLPR          rtthread.risc-v.lib(clock_config.o)
riscv_g_usdhcAdma2Table                           rtthread.risc-v.lib(fsl_host.o)
riscv_g_xtal0Freq                                 rtthread.risc-v.lib(fsl_clock.o)
riscv_g_xtal32Freq                                rtthread.risc-v.lib(fsl_clock.o)
riscv_get_fattime                                 rtthread.risc-v.lib(dfs_elm.o)
                                                  rtthread.risc-v.lib(ff.o)
riscv_getcwd                                      rtthread.risc-v.lib(dfs_posix.o)
                                                  rtthread.risc-v.lib(msh.o)
                                                  rtthread.risc-v.lib(shell.o)
riscv_gettimeofday                                rtthread.risc-v.lib(time.o)
riscv_gmtime                                      rtthread.risc-v.lib(time.o)
                                                  rtthread.risc-v.lib(dfs_elm.o)
riscv_gmtime_r                                    rtthread.risc-v.lib(time.o)
riscv_ioctl                                       rtthread.risc-v.lib(dfs_posix.o)
riscv_iprintf                                     build/risc-v/libc.a(lib_a-printf.o)
riscv_isatty                                      rtthread.risc-v.lib(libc.o)
                                                  build/risc-v/libc.a(lib_a-isattyr.o)
riscv_isrTable                                    rtthread.risc-v.lib(system_RV32M1_ri5cy.o)
riscv_libc_stdio_get_console                      rtthread.risc-v.lib(libc.o)
                                                  rtthread.risc-v.lib(syscalls.o)
                                                  rtthread.risc-v.lib(dfs.o)
riscv_libc_stdio_set_console                      rtthread.risc-v.lib(libc.o)
riscv_libc_system_init                            rtthread.risc-v.lib(libc.o)
riscv_list_device                                 rtthread.risc-v.lib(cmd.o)
riscv_list_event                                  rtthread.risc-v.lib(cmd.o)
riscv_list_fd                                     rtthread.risc-v.lib(dfs.o)
riscv_list_mailbox                                rtthread.risc-v.lib(cmd.o)
riscv_list_mempool                                rtthread.risc-v.lib(cmd.o)
riscv_list_msgqueue                               rtthread.risc-v.lib(cmd.o)
riscv_list_mutex                                  rtthread.risc-v.lib(cmd.o)
riscv_list_sem                                    rtthread.risc-v.lib(cmd.o)
riscv_list_thread                                 rtthread.risc-v.lib(cmd.o)
                                                  rtthread.risc-v.lib(msh.o)
riscv_list_timer                                  rtthread.risc-v.lib(cmd.o)
riscv_localtime                                   rtthread.risc-v.lib(time.o)
riscv_localtime_r                                 rtthread.risc-v.lib(time.o)
riscv_ls                                          rtthread.risc-v.lib(dfs_file.o)
                                                  rtthread.risc-v.lib(msh_file.o)
riscv_lseek                                       rtthread.risc-v.lib(dfs_posix.o)
                                                  rtthread.risc-v.lib(syscalls.o)
                                                  rtthread.risc-v.lib(msh_file.o)
riscv_main                                        rtthread.risc-v.lib(main.o)
                                                  rtthread.risc-v.lib(startup.o)
riscv_main_thread_entry                           rtthread.risc-v.lib(startup.o)
riscv_malloc                                      build/risc-v/libc.a(lib_a-malloc.o)
                                                  build/risc-v/libc.a(lib_a-setvbuf.o)
                                                  rtthread.risc-v.lib(main.o)
riscv_mdelay                                      rtthread.risc-v.lib(delay.o)
                                                  rtthread.risc-v.lib(main.o)
riscv_memchr                                      build/risc-v/libc.a(lib_a-memchr.o)
                                                  build/risc-v/libc.a(lib_a-nano-vfprintf.o)
                                                  build/risc-v/libc.a(lib_a-nano-vfprintf_i.o)
                                                  build/risc-v/libc.a(lib_a-nano-svfprintf.o)
                                                  build/risc-v/libc.a(lib_a-fvwrite.o)
riscv_memcmp                                      build/risc-v/libc.a(lib_a-memcmp.o)
                                                  rtthread.risc-v.lib(ff.o)
                                                  rtthread.risc-v.lib(shell.o)
riscv_memcpy                                      build/risc-v/libc.a(lib_a-memcpy.o)
                                                  build/risc-v/libc.a(lib_a-nano-svfprintf.o)
                                                  build/risc-v/libc.a(lib_a-fvwrite.o)
                                                  build/risc-v/libc.a(lib_a-fread.o)
                                                  rtthread.risc-v.lib(ff.o)
                                                  rtthread.risc-v.lib(fsl_sd.o)
                                                  rtthread.risc-v.lib(board.o)
riscv_memmove                                     build/risc-v/libc.a(lib_a-memmove.o)
                                                  build/risc-v/libc.a(lib_a-nano-svfprintf.o)
                                                  build/risc-v/libc.a(lib_a-fvwrite.o)
riscv_memset                                      build/risc-v/libc.a(lib_a-memset.o)
                                                  build/risc-v/libc.a(lib_a-fseeko.o)
                                                  build/risc-v/libc.a(lib_a-findfp.o)
                                                  rtthread.risc-v.lib(ff.o)
                                                  rtthread.risc-v.lib(fsl_usdhc.o)
                                                  rtthread.risc-v.lib(fsl_host.o)
                                                  rtthread.risc-v.lib(pthread_attr.o)
                                                  rtthread.risc-v.lib(pthread.o)
                                                  rtthread.risc-v.lib(fsl_sdmmc.o)
                                                  rtthread.risc-v.lib(fsl_sd.o)
                                                  rtthread.risc-v.lib(fsl_lpuart.o)
                                                  rtthread.risc-v.lib(main.o)
riscv_mkdir                                       rtthread.risc-v.lib(dfs_posix.o)
                                                  rtthread.risc-v.lib(syscalls.o)
                                                  rtthread.risc-v.lib(msh_file.o)
                                                  rtthread.risc-v.lib(dfs_file.o)
riscv_mkfs                                        rtthread.risc-v.lib(dfs_fs.o)
riscv_mktime                                      rtthread.risc-v.lib(time.o)
riscv_mnt_init                                    rtthread.risc-v.lib(mnt.o)
                                                  rtthread.risc-v.lib(main.o)
riscv_msh_auto_complete                           rtthread.risc-v.lib(msh.o)
                                                  rtthread.risc-v.lib(shell.o)
riscv_msh_auto_complete_path                      rtthread.risc-v.lib(msh.o)
riscv_msh_exec                                    rtthread.risc-v.lib(msh.o)
                                                  rtthread.risc-v.lib(msh_file.o)
                                                  rtthread.risc-v.lib(shell.o)
riscv_msh_exec_script                             rtthread.risc-v.lib(msh_file.o)
                                                  rtthread.risc-v.lib(msh.o)
riscv_msh_help                                    rtthread.risc-v.lib(msh.o)
riscv_msleep                                      rtthread.risc-v.lib(delay.o)
riscv_nanosleep                                   rtthread.risc-v.lib(time.o)
riscv_ndelay                                      rtthread.risc-v.lib(delay.o)
                                                  rtthread.risc-v.lib(time.o)
riscv_open                                        rtthread.risc-v.lib(dfs_posix.o)
                                                  rtthread.risc-v.lib(syscalls.o)
                                                  rtthread.risc-v.lib(msh_file.o)
riscv_opendir                                     rtthread.risc-v.lib(dfs_posix.o)
                                                  rtthread.risc-v.lib(msh_file.o)
                                                  rtthread.risc-v.lib(msh.o)
riscv_posix_sem_system_init                       rtthread.risc-v.lib(semaphore.o)
riscv_printf                                      build/risc-v/libc.a(lib_a-printf.o)
                                                  rtthread.risc-v.lib(main.o)
riscv_pthread_atfork                              rtthread.risc-v.lib(pthread.o)
riscv_pthread_attr_destroy                        rtthread.risc-v.lib(pthread_attr.o)
riscv_pthread_attr_getdetachstate                 rtthread.risc-v.lib(pthread_attr.o)
riscv_pthread_attr_getguardsize                   rtthread.risc-v.lib(pthread_attr.o)
riscv_pthread_attr_getinheritsched                rtthread.risc-v.lib(pthread_attr.o)
riscv_pthread_attr_getschedparam                  rtthread.risc-v.lib(pthread_attr.o)
                                                  rtthread.risc-v.lib(pthread.o)
riscv_pthread_attr_getschedpolicy                 rtthread.risc-v.lib(pthread_attr.o)
                                                  rtthread.risc-v.lib(pthread.o)
riscv_pthread_attr_getscope                       rtthread.risc-v.lib(pthread_attr.o)
riscv_pthread_attr_getstack                       rtthread.risc-v.lib(pthread_attr.o)
riscv_pthread_attr_getstackaddr                   rtthread.risc-v.lib(pthread_attr.o)
riscv_pthread_attr_getstacksize                   rtthread.risc-v.lib(pthread_attr.o)
riscv_pthread_attr_init                           rtthread.risc-v.lib(pthread_attr.o)
                                                  rtthread.risc-v.lib(pthread.o)
riscv_pthread_attr_setdetachstate                 rtthread.risc-v.lib(pthread_attr.o)
riscv_pthread_attr_setguardsize                   rtthread.risc-v.lib(pthread_attr.o)
riscv_pthread_attr_setinheritsched                rtthread.risc-v.lib(pthread_attr.o)
riscv_pthread_attr_setschedparam                  rtthread.risc-v.lib(pthread_attr.o)
                                                  rtthread.risc-v.lib(pthread.o)
riscv_pthread_attr_setschedpolicy                 rtthread.risc-v.lib(pthread_attr.o)
                                                  rtthread.risc-v.lib(pthread.o)
riscv_pthread_attr_setscope                       rtthread.risc-v.lib(pthread_attr.o)
riscv_pthread_attr_setstack                       rtthread.risc-v.lib(pthread_attr.o)
riscv_pthread_attr_setstackaddr                   rtthread.risc-v.lib(pthread_attr.o)
riscv_pthread_attr_setstacksize                   rtthread.risc-v.lib(pthread_attr.o)
riscv_pthread_cancel                              rtthread.risc-v.lib(pthread.o)
riscv_pthread_cleanup_pop                         rtthread.risc-v.lib(pthread.o)
riscv_pthread_cleanup_push                        rtthread.risc-v.lib(pthread.o)
riscv_pthread_create                              rtthread.risc-v.lib(pthread.o)
                                                  rtthread.risc-v.lib(main.o)
riscv_pthread_default_attr                        rtthread.risc-v.lib(pthread_attr.o)
riscv_pthread_detach                              rtthread.risc-v.lib(pthread.o)
riscv_pthread_exit                                rtthread.risc-v.lib(pthread.o)
                                                  rtthread.risc-v.lib(stdlib.o)
riscv_pthread_getconcurrency                      rtthread.risc-v.lib(pthread.o)
riscv_pthread_getcpuclockid                       rtthread.risc-v.lib(pthread.o)
riscv_pthread_getschedparam                       rtthread.risc-v.lib(pthread.o)
riscv_pthread_getspecific                         rtthread.risc-v.lib(pthread_tls.o)
riscv_pthread_join                                rtthread.risc-v.lib(pthread.o)
                                                  rtthread.risc-v.lib(main.o)
riscv_pthread_key_create                          rtthread.risc-v.lib(pthread_tls.o)
riscv_pthread_key_delete                          rtthread.risc-v.lib(pthread_tls.o)
riscv_pthread_kill                                rtthread.risc-v.lib(pthread.o)
riscv_pthread_once                                rtthread.risc-v.lib(pthread.o)
riscv_pthread_self                                rtthread.risc-v.lib(pthread.o)
riscv_pthread_setcancelstate                      rtthread.risc-v.lib(pthread.o)
riscv_pthread_setcanceltype                       rtthread.risc-v.lib(pthread.o)
riscv_pthread_setconcurrency                      rtthread.risc-v.lib(pthread.o)
riscv_pthread_setschedparam                       rtthread.risc-v.lib(pthread.o)
riscv_pthread_setschedprio                        rtthread.risc-v.lib(pthread.o)
riscv_pthread_setspecific                         rtthread.risc-v.lib(pthread_tls.o)
riscv_pthread_testcancel                          rtthread.risc-v.lib(pthread.o)
riscv_read                                        rtthread.risc-v.lib(dfs_posix.o)
                                                  rtthread.risc-v.lib(syscalls.o)
                                                  rtthread.risc-v.lib(msh_file.o)
                                                  rtthread.risc-v.lib(shell.o)
riscv_readdir                                     rtthread.risc-v.lib(dfs_posix.o)
                                                  rtthread.risc-v.lib(msh_file.o)
                                                  rtthread.risc-v.lib(msh.o)
riscv_rename                                      rtthread.risc-v.lib(dfs_posix.o)
                                                  rtthread.risc-v.lib(syscalls.o)
                                                  rtthread.risc-v.lib(msh_file.o)
riscv_rewinddir                                   rtthread.risc-v.lib(dfs_posix.o)
                                                  rtthread.risc-v.lib(msh.o)
riscv_rm                                          rtthread.risc-v.lib(dfs_file.o)
riscv_rmdir                                       rtthread.risc-v.lib(dfs_posix.o)
riscv_rt_application_init                         rtthread.risc-v.lib(startup.o)
riscv_rt_assert_handler                           rtthread.risc-v.lib(kservice.o)
                                                  rtthread.risc-v.lib(pthread_tls.o)
                                                  rtthread.risc-v.lib(completion.o)
                                                  rtthread.risc-v.lib(ulog.o)
                                                  rtthread.risc-v.lib(pthread_attr.o)
                                                  rtthread.risc-v.lib(pthread.o)
                                                  rtthread.risc-v.lib(time.o)
                                                  rtthread.risc-v.lib(msh.o)
                                                  rtthread.risc-v.lib(shell.o)
                                                  rtthread.risc-v.lib(serial.o)
                                                  rtthread.risc-v.lib(dfs_elm.o)
                                                  rtthread.risc-v.lib(devfs.o)
                                                  rtthread.risc-v.lib(dfs.o)
                                                  rtthread.risc-v.lib(dfs_fs.o)
                                                  rtthread.risc-v.lib(cpuport.o)
                                                  rtthread.risc-v.lib(object.o)
                                                  rtthread.risc-v.lib(timer.o)
                                                  rtthread.risc-v.lib(device.o)
                                                  rtthread.risc-v.lib(mem.o)
                                                  rtthread.risc-v.lib(thread.o)
                                                  rtthread.risc-v.lib(ipc.o)
                                                  rtthread.risc-v.lib(scheduler.o)
                                                  rtthread.risc-v.lib(drv_uart.o)
                                                  rtthread.risc-v.lib(startup.o)
                                                  rtthread.risc-v.lib(board.o)
riscv_rt_assert_hook                              rtthread.risc-v.lib(kservice.o)
riscv_rt_assert_set_hook                          rtthread.risc-v.lib(kservice.o)
riscv_rt_calloc                                   rtthread.risc-v.lib(kservice.o)
                                                  rtthread.risc-v.lib(syscalls.o)
                                                  rtthread.risc-v.lib(shell.o)
                                                  rtthread.risc-v.lib(dfs.o)
riscv_rt_completion_done                          rtthread.risc-v.lib(completion.o)
                                                  rtthread.risc-v.lib(serial.o)
riscv_rt_completion_init                          rtthread.risc-v.lib(completion.o)
                                                  rtthread.risc-v.lib(serial.o)
riscv_rt_completion_wait                          rtthread.risc-v.lib(completion.o)
                                                  rtthread.risc-v.lib(serial.o)
riscv_rt_components_board_init                    rtthread.risc-v.lib(components.o)
                                                  rtthread.risc-v.lib(board.o)
riscv_rt_components_init                          rtthread.risc-v.lib(components.o)
                                                  rtthread.risc-v.lib(startup.o)
riscv_rt_console_get_device                       rtthread.risc-v.lib(kservice.o)
                                                  rtthread.risc-v.lib(syscalls.o)
                                                  rtthread.risc-v.lib(console_be.o)
                                                  rtthread.risc-v.lib(libc.o)
riscv_rt_console_set_device                       rtthread.risc-v.lib(kservice.o)
                                                  rtthread.risc-v.lib(board.o)
riscv_rt_cpu_index                                rtthread.risc-v.lib(cpu.o)
                                                  rtthread.risc-v.lib(clock.o)
                                                  rtthread.risc-v.lib(scheduler.o)
                                                  rtthread.risc-v.lib(board.o)
riscv_rt_cpu_self                                 rtthread.risc-v.lib(cpu.o)
                                                  rtthread.risc-v.lib(irq.o)
                                                  rtthread.risc-v.lib(thread.o)
                                                  rtthread.risc-v.lib(clock.o)
                                                  rtthread.risc-v.lib(scheduler.o)
riscv_rt_cpus_lock                                rtthread.risc-v.lib(cpu.o)
                                                  rtthread.risc-v.lib(waitqueue.o)
                                                  rtthread.risc-v.lib(completion.o)
                                                  rtthread.risc-v.lib(irq.o)
                                                  rtthread.risc-v.lib(ulog.o)
                                                  rtthread.risc-v.lib(time.o)
                                                  rtthread.risc-v.lib(cmd.o)
                                                  rtthread.risc-v.lib(serial.o)
                                                  rtthread.risc-v.lib(cpuport.o)
                                                  rtthread.risc-v.lib(object.o)
                                                  rtthread.risc-v.lib(timer.o)
                                                  rtthread.risc-v.lib(thread.o)
                                                  rtthread.risc-v.lib(clock.o)
                                                  rtthread.risc-v.lib(ipc.o)
                                                  rtthread.risc-v.lib(scheduler.o)
                                                  rtthread.risc-v.lib(idle.o)
                                                  rtthread.risc-v.lib(startup.o)
                                                  rtthread.risc-v.lib(board.o)
riscv_rt_cpus_lock_status_restore                 rtthread.risc-v.lib(cpu.o)
                                                  rtthread.risc-v.lib(context_gcc.o)
riscv_rt_cpus_unlock                              rtthread.risc-v.lib(cpu.o)
                                                  rtthread.risc-v.lib(waitqueue.o)
                                                  rtthread.risc-v.lib(completion.o)
                                                  rtthread.risc-v.lib(irq.o)
                                                  rtthread.risc-v.lib(ulog.o)
                                                  rtthread.risc-v.lib(time.o)
                                                  rtthread.risc-v.lib(cmd.o)
                                                  rtthread.risc-v.lib(serial.o)
                                                  rtthread.risc-v.lib(object.o)
                                                  rtthread.risc-v.lib(timer.o)
                                                  rtthread.risc-v.lib(thread.o)
                                                  rtthread.risc-v.lib(clock.o)
                                                  rtthread.risc-v.lib(ipc.o)
                                                  rtthread.risc-v.lib(scheduler.o)
                                                  rtthread.risc-v.lib(idle.o)
riscv_rt_critical_level                           rtthread.risc-v.lib(scheduler.o)
riscv_rt_device_close                             rtthread.risc-v.lib(device.o)
                                                  rtthread.risc-v.lib(serial.o)
                                                  rtthread.risc-v.lib(dfs_elm.o)
                                                  rtthread.risc-v.lib(devfs.o)
                                                  rtthread.risc-v.lib(dfs_fs.o)
                                                  rtthread.risc-v.lib(kservice.o)
riscv_rt_device_control                           rtthread.risc-v.lib(device.o)
                                                  rtthread.risc-v.lib(serial.o)
                                                  rtthread.risc-v.lib(dfs_elm.o)
                                                  rtthread.risc-v.lib(devfs.o)
riscv_rt_device_create                            rtthread.risc-v.lib(device.o)
riscv_rt_device_destroy                           rtthread.risc-v.lib(device.o)
riscv_rt_device_find                              rtthread.risc-v.lib(device.o)
                                                  rtthread.risc-v.lib(devfs.o)
                                                  rtthread.risc-v.lib(dfs_fs.o)
                                                  rtthread.risc-v.lib(kservice.o)
riscv_rt_device_init                              rtthread.risc-v.lib(device.o)
riscv_rt_device_open                              rtthread.risc-v.lib(device.o)
                                                  rtthread.risc-v.lib(serial.o)
                                                  rtthread.risc-v.lib(dfs_elm.o)
                                                  rtthread.risc-v.lib(devfs.o)
                                                  rtthread.risc-v.lib(dfs_fs.o)
                                                  rtthread.risc-v.lib(kservice.o)
riscv_rt_device_read                              rtthread.risc-v.lib(device.o)
                                                  rtthread.risc-v.lib(serial.o)
                                                  rtthread.risc-v.lib(dfs_elm.o)
                                                  rtthread.risc-v.lib(devfs.o)
riscv_rt_device_register                          rtthread.risc-v.lib(device.o)
                                                  rtthread.risc-v.lib(serial.o)
                                                  rtthread.risc-v.lib(drv_sdcard.o)
riscv_rt_device_set_rx_indicate                   rtthread.risc-v.lib(device.o)
                                                  rtthread.risc-v.lib(serial.o)
riscv_rt_device_set_tx_complete                   rtthread.risc-v.lib(device.o)
riscv_rt_device_unregister                        rtthread.risc-v.lib(device.o)
riscv_rt_device_write                             rtthread.risc-v.lib(device.o)
                                                  rtthread.risc-v.lib(syscalls.o)
                                                  rtthread.risc-v.lib(console_be.o)
                                                  rtthread.risc-v.lib(serial.o)
                                                  rtthread.risc-v.lib(dfs_elm.o)
                                                  rtthread.risc-v.lib(devfs.o)
                                                  rtthread.risc-v.lib(kservice.o)
riscv_rt_enter_critical                           rtthread.risc-v.lib(scheduler.o)
                                                  rtthread.risc-v.lib(pthread_tls.o)
                                                  rtthread.risc-v.lib(pthread.o)
                                                  rtthread.risc-v.lib(dfs_elm.o)
                                                  rtthread.risc-v.lib(devfs.o)
                                                  rtthread.risc-v.lib(dfs.o)
                                                  rtthread.risc-v.lib(object.o)
riscv_rt_event_control                            rtthread.risc-v.lib(ipc.o)
riscv_rt_event_create                             rtthread.risc-v.lib(ipc.o)
riscv_rt_event_delete                             rtthread.risc-v.lib(ipc.o)
riscv_rt_event_detach                             rtthread.risc-v.lib(ipc.o)
riscv_rt_event_init                               rtthread.risc-v.lib(ipc.o)
riscv_rt_event_recv                               rtthread.risc-v.lib(ipc.o)
riscv_rt_event_send                               rtthread.risc-v.lib(ipc.o)
riscv_rt_exit_critical                            rtthread.risc-v.lib(scheduler.o)
                                                  rtthread.risc-v.lib(pthread_tls.o)
                                                  rtthread.risc-v.lib(pthread.o)
                                                  rtthread.risc-v.lib(dfs_elm.o)
                                                  rtthread.risc-v.lib(devfs.o)
                                                  rtthread.risc-v.lib(dfs.o)
                                                  rtthread.risc-v.lib(object.o)
riscv_rt_free                                     rtthread.risc-v.lib(kservice.o)
                                                  rtthread.risc-v.lib(syscalls.o)
                                                  rtthread.risc-v.lib(msh_file.o)
                                                  rtthread.risc-v.lib(dfs_posix.o)
                                                  rtthread.risc-v.lib(pthread.o)
                                                  rtthread.risc-v.lib(semaphore.o)
                                                  rtthread.risc-v.lib(msh.o)
                                                  rtthread.risc-v.lib(shell.o)
                                                  rtthread.risc-v.lib(serial.o)
                                                  rtthread.risc-v.lib(dfs_elm.o)
                                                  rtthread.risc-v.lib(devfs.o)
                                                  rtthread.risc-v.lib(dfs_file.o)
                                                  rtthread.risc-v.lib(dfs.o)
                                                  rtthread.risc-v.lib(dfs_fs.o)
                                                  rtthread.risc-v.lib(object.o)
                                                  rtthread.risc-v.lib(device.o)
                                                  rtthread.risc-v.lib(ipc.o)
                                                  rtthread.risc-v.lib(idle.o)
                                                  rtthread.risc-v.lib(drv_sdcard.o)
riscv_rt_free_align                               rtthread.risc-v.lib(kservice.o)
riscv_rt_free_sethook                             rtthread.risc-v.lib(kservice.o)
riscv_rt_get_errno                                rtthread.risc-v.lib(kservice.o)
riscv_rt_hw_board_init                            rtthread.risc-v.lib(board.o)
                                                  rtthread.risc-v.lib(startup.o)
riscv_rt_hw_console_output                        rtthread.risc-v.lib(kservice.o)
                                                  rtthread.risc-v.lib(console_be.o)
riscv_rt_hw_context_switch                        rtthread.risc-v.lib(context_gcc.o)
                                                  rtthread.risc-v.lib(scheduler.o)
riscv_rt_hw_context_switch_exit                   rtthread.risc-v.lib(context_gcc.o)
riscv_rt_hw_context_switch_interrupt              rtthread.risc-v.lib(context_gcc.o)
                                                  rtthread.risc-v.lib(scheduler.o)
riscv_rt_hw_context_switch_to                     rtthread.risc-v.lib(context_gcc.o)
                                                  rtthread.risc-v.lib(scheduler.o)
riscv_rt_hw_cpu_id                                rtthread.risc-v.lib(board.o)
                                                  rtthread.risc-v.lib(pthread.o)
                                                  rtthread.risc-v.lib(shell.o)
                                                  rtthread.risc-v.lib(cpu.o)
                                                  rtthread.risc-v.lib(clock.o)
                                                  rtthread.risc-v.lib(scheduler.o)
                                                  rtthread.risc-v.lib(idle.o)
                                                  rtthread.risc-v.lib(startup.o)
riscv_rt_hw_cpu_shutdown                          rtthread.risc-v.lib(board.o)
riscv_rt_hw_ipi_send                              rtthread.risc-v.lib(board.o)
                                                  rtthread.risc-v.lib(scheduler.o)
riscv_rt_hw_local_irq_disable                     rtthread.risc-v.lib(context_gcc.o)
                                                  rtthread.risc-v.lib(thread.o)
                                                  rtthread.risc-v.lib(cpu.o)
                                                  rtthread.risc-v.lib(scheduler.o)
riscv_rt_hw_local_irq_enable                      rtthread.risc-v.lib(context_gcc.o)
                                                  rtthread.risc-v.lib(thread.o)
                                                  rtthread.risc-v.lib(cpu.o)
                                                  rtthread.risc-v.lib(scheduler.o)
riscv_rt_hw_object_delete                         rtthread.risc-v.lib(board.o)
riscv_rt_hw_object_dump                           rtthread.risc-v.lib(board.o)
riscv_rt_hw_object_put                            rtthread.risc-v.lib(board.o)
riscv_rt_hw_object_take                           rtthread.risc-v.lib(board.o)
riscv_rt_hw_object_trytake                        rtthread.risc-v.lib(board.o)
riscv_rt_hw_sdcard_init                           rtthread.risc-v.lib(drv_sdcard.o)
                                                  rtthread.risc-v.lib(board.o)
riscv_rt_hw_secondary_cpu_idle_exec               rtthread.risc-v.lib(board.o)
                                                  rtthread.risc-v.lib(idle.o)
riscv_rt_hw_secondary_cpu_up                      rtthread.risc-v.lib(board.o)
                                                  rtthread.risc-v.lib(startup.o)
riscv_rt_hw_serial_isr                            rtthread.risc-v.lib(serial.o)
                                                  rtthread.risc-v.lib(drv_uart.o)
riscv_rt_hw_serial_register                       rtthread.risc-v.lib(serial.o)
                                                  rtthread.risc-v.lib(drv_uart.o)
riscv_rt_hw_spin_lock                             rtthread.risc-v.lib(board.o)
                                                  rtthread.risc-v.lib(pthread.o)
                                                  rtthread.risc-v.lib(cpu.o)
                                                  rtthread.risc-v.lib(scheduler.o)
                                                  rtthread.risc-v.lib(startup.o)
riscv_rt_hw_spin_lock_init                        rtthread.risc-v.lib(board.o)
                                                  rtthread.risc-v.lib(cpu.o)
riscv_rt_hw_spin_unlock                           rtthread.risc-v.lib(board.o)
                                                  rtthread.risc-v.lib(pthread.o)
                                                  rtthread.risc-v.lib(cpu.o)
                                                  rtthread.risc-v.lib(scheduler.o)
riscv_rt_hw_stack_init                            rtthread.risc-v.lib(cpuport.o)
                                                  rtthread.risc-v.lib(thread.o)
riscv_rt_hw_systick_init                          rtthread.risc-v.lib(board.o)
riscv_rt_hw_uart_init                             rtthread.risc-v.lib(drv_uart.o)
                                                  rtthread.risc-v.lib(board.o)
riscv_rt_hw_us_delay                              rtthread.risc-v.lib(board.o)
                                                  rtthread.risc-v.lib(delay.o)
riscv_rt_hw_usec_get                              rtthread.risc-v.lib(board.o)
                                                  rtthread.risc-v.lib(main.o)
riscv_rt_interrupt_enter                          rtthread.risc-v.lib(irq.o)
riscv_rt_interrupt_enter_sethook                  rtthread.risc-v.lib(irq.o)
riscv_rt_interrupt_get_nest                       rtthread.risc-v.lib(irq.o)
                                                  rtthread.risc-v.lib(ulog.o)
                                                  rtthread.risc-v.lib(kservice.o)
riscv_rt_interrupt_leave                          rtthread.risc-v.lib(irq.o)
riscv_rt_interrupt_leave_sethook                  rtthread.risc-v.lib(irq.o)
riscv_rt_kprintf                                  rtthread.risc-v.lib(kservice.o)
                                                  rtthread.risc-v.lib(msh_file.o)
                                                  rtthread.risc-v.lib(dfs_posix.o)
                                                  rtthread.risc-v.lib(ulog.o)
                                                  rtthread.risc-v.lib(cmd.o)
                                                  rtthread.risc-v.lib(msh.o)
                                                  rtthread.risc-v.lib(shell.o)
                                                  rtthread.risc-v.lib(serial.o)
                                                  rtthread.risc-v.lib(dfs_elm.o)
                                                  rtthread.risc-v.lib(devfs.o)
                                                  rtthread.risc-v.lib(dfs_file.o)
                                                  rtthread.risc-v.lib(dfs.o)
                                                  rtthread.risc-v.lib(dfs_fs.o)
                                                  rtthread.risc-v.lib(cpuport.o)
                                                  rtthread.risc-v.lib(device.o)
                                                  rtthread.risc-v.lib(mem.o)
                                                  rtthread.risc-v.lib(scheduler.o)
                                                  rtthread.risc-v.lib(drv_sdcard.o)
                                                  rtthread.risc-v.lib(board.o)
riscv_rt_kputs                                    rtthread.risc-v.lib(kservice.o)
                                                  rtthread.risc-v.lib(ulog.o)
riscv_rt_malloc                                   rtthread.risc-v.lib(kservice.o)
                                                  rtthread.risc-v.lib(syscalls.o)
                                                  rtthread.risc-v.lib(pthread_tls.o)
                                                  rtthread.risc-v.lib(msh_file.o)
                                                  rtthread.risc-v.lib(dfs_posix.o)
                                                  rtthread.risc-v.lib(pthread.o)
                                                  rtthread.risc-v.lib(semaphore.o)
                                                  rtthread.risc-v.lib(msh.o)
                                                  rtthread.risc-v.lib(shell.o)
                                                  rtthread.risc-v.lib(serial.o)
                                                  rtthread.risc-v.lib(dfs_elm.o)
                                                  rtthread.risc-v.lib(devfs.o)
                                                  rtthread.risc-v.lib(dfs_file.o)
                                                  rtthread.risc-v.lib(dfs.o)
                                                  rtthread.risc-v.lib(object.o)
                                                  rtthread.risc-v.lib(device.o)
                                                  rtthread.risc-v.lib(thread.o)
                                                  rtthread.risc-v.lib(ipc.o)
                                                  rtthread.risc-v.lib(drv_sdcard.o)
riscv_rt_malloc_align                             rtthread.risc-v.lib(kservice.o)
riscv_rt_malloc_sethook                           rtthread.risc-v.lib(kservice.o)
riscv_rt_mb_control                               rtthread.risc-v.lib(ipc.o)
riscv_rt_mb_create                                rtthread.risc-v.lib(ipc.o)
riscv_rt_mb_delete                                rtthread.risc-v.lib(ipc.o)
riscv_rt_mb_detach                                rtthread.risc-v.lib(ipc.o)
riscv_rt_mb_init                                  rtthread.risc-v.lib(ipc.o)
riscv_rt_mb_recv                                  rtthread.risc-v.lib(ipc.o)
riscv_rt_mb_send                                  rtthread.risc-v.lib(ipc.o)
riscv_rt_mb_send_wait                             rtthread.risc-v.lib(ipc.o)
riscv_rt_mb_urgent                                rtthread.risc-v.lib(ipc.o)
riscv_rt_memcmp                                   rtthread.risc-v.lib(kservice.o)
riscv_rt_memcpy                                   rtthread.risc-v.lib(kservice.o)
                                                  rtthread.risc-v.lib(msh_file.o)
                                                  rtthread.risc-v.lib(cmd.o)
                                                  rtthread.risc-v.lib(msh.o)
                                                  rtthread.risc-v.lib(shell.o)
                                                  rtthread.risc-v.lib(dfs_elm.o)
                                                  rtthread.risc-v.lib(mem.o)
                                                  rtthread.risc-v.lib(ipc.o)
riscv_rt_memmove                                  rtthread.risc-v.lib(kservice.o)
                                                  rtthread.risc-v.lib(shell.o)
riscv_rt_memory_info                              rtthread.risc-v.lib(kservice.o)
                                                  rtthread.risc-v.lib(msh.o)
riscv_rt_memset                                   rtthread.risc-v.lib(kservice.o)
                                                  rtthread.risc-v.lib(pthread_tls.o)
                                                  rtthread.risc-v.lib(dfs_posix.o)
                                                  rtthread.risc-v.lib(ulog.o)
                                                  rtthread.risc-v.lib(msh.o)
                                                  rtthread.risc-v.lib(shell.o)
                                                  rtthread.risc-v.lib(serial.o)
                                                  rtthread.risc-v.lib(dfs_elm.o)
                                                  rtthread.risc-v.lib(dfs_file.o)
                                                  rtthread.risc-v.lib(dfs.o)
                                                  rtthread.risc-v.lib(dfs_fs.o)
                                                  rtthread.risc-v.lib(object.o)
                                                  rtthread.risc-v.lib(device.o)
                                                  rtthread.risc-v.lib(mem.o)
                                                  rtthread.risc-v.lib(thread.o)
riscv_rt_mq_control                               rtthread.risc-v.lib(ipc.o)
riscv_rt_mq_create                                rtthread.risc-v.lib(ipc.o)
riscv_rt_mq_delete                                rtthread.risc-v.lib(ipc.o)
riscv_rt_mq_detach                                rtthread.risc-v.lib(ipc.o)
riscv_rt_mq_init                                  rtthread.risc-v.lib(ipc.o)
riscv_rt_mq_recv                                  rtthread.risc-v.lib(ipc.o)
riscv_rt_mq_send                                  rtthread.risc-v.lib(ipc.o)
riscv_rt_mq_send_wait                             rtthread.risc-v.lib(ipc.o)
riscv_rt_mq_urgent                                rtthread.risc-v.lib(ipc.o)
riscv_rt_mutex_control                            rtthread.risc-v.lib(ipc.o)
riscv_rt_mutex_create                             rtthread.risc-v.lib(ipc.o)
                                                  rtthread.risc-v.lib(dfs_elm.o)
riscv_rt_mutex_delete                             rtthread.risc-v.lib(ipc.o)
                                                  rtthread.risc-v.lib(dfs_elm.o)
riscv_rt_mutex_detach                             rtthread.risc-v.lib(ipc.o)
                                                  rtthread.risc-v.lib(ulog.o)
riscv_rt_mutex_init                               rtthread.risc-v.lib(ipc.o)
                                                  rtthread.risc-v.lib(ulog.o)
                                                  rtthread.risc-v.lib(dfs.o)
                                                  rtthread.risc-v.lib(kservice.o)
riscv_rt_mutex_release                            rtthread.risc-v.lib(ipc.o)
                                                  rtthread.risc-v.lib(ulog.o)
                                                  rtthread.risc-v.lib(dfs_elm.o)
                                                  rtthread.risc-v.lib(dfs.o)
                                                  rtthread.risc-v.lib(kservice.o)
riscv_rt_mutex_take                               rtthread.risc-v.lib(ipc.o)
                                                  rtthread.risc-v.lib(ulog.o)
                                                  rtthread.risc-v.lib(dfs_elm.o)
                                                  rtthread.risc-v.lib(dfs.o)
                                                  rtthread.risc-v.lib(kservice.o)
riscv_rt_mutex_trytake                            rtthread.risc-v.lib(ipc.o)
riscv_rt_object_allocate                          rtthread.risc-v.lib(object.o)
                                                  rtthread.risc-v.lib(timer.o)
                                                  rtthread.risc-v.lib(thread.o)
                                                  rtthread.risc-v.lib(ipc.o)
riscv_rt_object_attach_sethook                    rtthread.risc-v.lib(object.o)
riscv_rt_object_delete                            rtthread.risc-v.lib(object.o)
                                                  rtthread.risc-v.lib(timer.o)
                                                  rtthread.risc-v.lib(thread.o)
                                                  rtthread.risc-v.lib(ipc.o)
                                                  rtthread.risc-v.lib(idle.o)
riscv_rt_object_detach                            rtthread.risc-v.lib(object.o)
                                                  rtthread.risc-v.lib(timer.o)
                                                  rtthread.risc-v.lib(device.o)
                                                  rtthread.risc-v.lib(mem.o)
                                                  rtthread.risc-v.lib(ipc.o)
                                                  rtthread.risc-v.lib(idle.o)
riscv_rt_object_detach_sethook                    rtthread.risc-v.lib(object.o)
                                                  rtthread.risc-v.lib(board.o)
riscv_rt_object_find                              rtthread.risc-v.lib(object.o)
                                                  rtthread.risc-v.lib(device.o)
                                                  rtthread.risc-v.lib(thread.o)
riscv_rt_object_get_information                   rtthread.risc-v.lib(object.o)
                                                  rtthread.risc-v.lib(cmd.o)
                                                  rtthread.risc-v.lib(devfs.o)
riscv_rt_object_get_length                        rtthread.risc-v.lib(object.o)
riscv_rt_object_get_pointers                      rtthread.risc-v.lib(object.o)
riscv_rt_object_get_type                          rtthread.risc-v.lib(object.o)
                                                  rtthread.risc-v.lib(timer.o)
                                                  rtthread.risc-v.lib(device.o)
                                                  rtthread.risc-v.lib(mem.o)
                                                  rtthread.risc-v.lib(thread.o)
                                                  rtthread.risc-v.lib(ipc.o)
riscv_rt_object_init                              rtthread.risc-v.lib(object.o)
                                                  rtthread.risc-v.lib(timer.o)
                                                  rtthread.risc-v.lib(device.o)
                                                  rtthread.risc-v.lib(mem.o)
                                                  rtthread.risc-v.lib(thread.o)
                                                  rtthread.risc-v.lib(ipc.o)
riscv_rt_object_is_systemobject                   rtthread.risc-v.lib(object.o)
                                                  rtthread.risc-v.lib(timer.o)
                                                  rtthread.risc-v.lib(device.o)
                                                  rtthread.risc-v.lib(mem.o)
                                                  rtthread.risc-v.lib(thread.o)
                                                  rtthread.risc-v.lib(ipc.o)
                                                  rtthread.risc-v.lib(idle.o)
riscv_rt_object_put_hook                          rtthread.risc-v.lib(object.o)
                                                  rtthread.risc-v.lib(timer.o)
                                                  rtthread.risc-v.lib(ipc.o)
riscv_rt_object_put_sethook                       rtthread.risc-v.lib(object.o)
                                                  rtthread.risc-v.lib(board.o)
riscv_rt_object_take_hook                         rtthread.risc-v.lib(object.o)
                                                  rtthread.risc-v.lib(timer.o)
                                                  rtthread.risc-v.lib(ipc.o)
riscv_rt_object_take_sethook                      rtthread.risc-v.lib(object.o)
                                                  rtthread.risc-v.lib(board.o)
riscv_rt_object_trytake_hook                      rtthread.risc-v.lib(object.o)
                                                  rtthread.risc-v.lib(ipc.o)
riscv_rt_object_trytake_sethook                   rtthread.risc-v.lib(object.o)
                                                  rtthread.risc-v.lib(board.o)
riscv_rt_realloc                                  rtthread.risc-v.lib(kservice.o)
                                                  rtthread.risc-v.lib(syscalls.o)
                                                  rtthread.risc-v.lib(dfs.o)
riscv_rt_schedule                                 rtthread.risc-v.lib(scheduler.o)
                                                  rtthread.risc-v.lib(waitqueue.o)
                                                  rtthread.risc-v.lib(completion.o)
                                                  rtthread.risc-v.lib(pthread.o)
                                                  rtthread.risc-v.lib(timer.o)
                                                  rtthread.risc-v.lib(thread.o)
                                                  rtthread.risc-v.lib(cpu.o)
                                                  rtthread.risc-v.lib(clock.o)
                                                  rtthread.risc-v.lib(ipc.o)
riscv_rt_schedule_insert_thread                   rtthread.risc-v.lib(scheduler.o)
                                                  rtthread.risc-v.lib(thread.o)
riscv_rt_schedule_remove_thread                   rtthread.risc-v.lib(scheduler.o)
                                                  rtthread.risc-v.lib(thread.o)
riscv_rt_scheduler_do_irq_switch                  rtthread.risc-v.lib(scheduler.o)
riscv_rt_scheduler_ipi_handler                    rtthread.risc-v.lib(scheduler.o)
                                                  rtthread.risc-v.lib(board.o)
riscv_rt_scheduler_sethook                        rtthread.risc-v.lib(scheduler.o)
riscv_rt_scheduler_switch_sethook                 rtthread.risc-v.lib(scheduler.o)
riscv_rt_sem_control                              rtthread.risc-v.lib(ipc.o)
riscv_rt_sem_create                               rtthread.risc-v.lib(ipc.o)
                                                  rtthread.risc-v.lib(pthread.o)
                                                  rtthread.risc-v.lib(semaphore.o)
riscv_rt_sem_delete                               rtthread.risc-v.lib(ipc.o)
                                                  rtthread.risc-v.lib(pthread.o)
                                                  rtthread.risc-v.lib(semaphore.o)
riscv_rt_sem_detach                               rtthread.risc-v.lib(ipc.o)
riscv_rt_sem_init                                 rtthread.risc-v.lib(ipc.o)
                                                  rtthread.risc-v.lib(semaphore.o)
                                                  rtthread.risc-v.lib(shell.o)
                                                  rtthread.risc-v.lib(idle.o)
riscv_rt_sem_release                              rtthread.risc-v.lib(ipc.o)
                                                  rtthread.risc-v.lib(pthread.o)
                                                  rtthread.risc-v.lib(semaphore.o)
                                                  rtthread.risc-v.lib(idle.o)
riscv_rt_sem_take                                 rtthread.risc-v.lib(ipc.o)
                                                  rtthread.risc-v.lib(pthread.o)
                                                  rtthread.risc-v.lib(semaphore.o)
                                                  rtthread.risc-v.lib(idle.o)
riscv_rt_sem_trytake                              rtthread.risc-v.lib(ipc.o)
                                                  rtthread.risc-v.lib(semaphore.o)
riscv_rt_set_errno                                rtthread.risc-v.lib(kservice.o)
                                                  rtthread.risc-v.lib(dfs_posix.o)
                                                  rtthread.risc-v.lib(semaphore.o)
                                                  rtthread.risc-v.lib(libc.o)
                                                  rtthread.risc-v.lib(time.o)
                                                  rtthread.risc-v.lib(dfs_fs.o)
                                                  rtthread.risc-v.lib(device.o)
riscv_rt_show_version                             rtthread.risc-v.lib(kservice.o)
                                                  rtthread.risc-v.lib(cmd.o)
                                                  rtthread.risc-v.lib(startup.o)
riscv_rt_smem_alloc                               rtthread.risc-v.lib(mem.o)
                                                  rtthread.risc-v.lib(kservice.o)
riscv_rt_smem_detach                              rtthread.risc-v.lib(mem.o)
riscv_rt_smem_free                                rtthread.risc-v.lib(mem.o)
                                                  rtthread.risc-v.lib(kservice.o)
riscv_rt_smem_init                                rtthread.risc-v.lib(mem.o)
                                                  rtthread.risc-v.lib(kservice.o)
riscv_rt_smem_realloc                             rtthread.risc-v.lib(mem.o)
                                                  rtthread.risc-v.lib(kservice.o)
riscv_rt_snprintf                                 rtthread.risc-v.lib(kservice.o)
                                                  rtthread.risc-v.lib(msh_file.o)
                                                  rtthread.risc-v.lib(ulog.o)
                                                  rtthread.risc-v.lib(pthread.o)
                                                  rtthread.risc-v.lib(semaphore.o)
                                                  rtthread.risc-v.lib(dfs_elm.o)
                                                  rtthread.risc-v.lib(dfs.o)
riscv_rt_spin_lock                                rtthread.risc-v.lib(cpu.o)
riscv_rt_spin_lock_init                           rtthread.risc-v.lib(cpu.o)
riscv_rt_spin_lock_irqsave                        rtthread.risc-v.lib(cpu.o)
riscv_rt_spin_unlock                              rtthread.risc-v.lib(cpu.o)
riscv_rt_spin_unlock_irqrestore                   rtthread.risc-v.lib(cpu.o)
riscv_rt_sprintf                                  rtthread.risc-v.lib(kservice.o)
                                                  rtthread.risc-v.lib(msh_file.o)
                                                  rtthread.risc-v.lib(idle.o)
riscv_rt_strcasecmp                               rtthread.risc-v.lib(kservice.o)
riscv_rt_strcmp                                   rtthread.risc-v.lib(kservice.o)
                                                  rtthread.risc-v.lib(msh_file.o)
riscv_rt_strcpy                                   rtthread.risc-v.lib(kservice.o)
riscv_rt_strdup                                   rtthread.risc-v.lib(kservice.o)
                                                  rtthread.risc-v.lib(dfs_file.o)
                                                  rtthread.risc-v.lib(dfs.o)
riscv_rt_strlen                                   rtthread.risc-v.lib(kservice.o)
                                                  rtthread.risc-v.lib(msh_file.o)
                                                  rtthread.risc-v.lib(ulog.o)
                                                  rtthread.risc-v.lib(time.o)
                                                  rtthread.risc-v.lib(msh.o)
                                                  rtthread.risc-v.lib(shell.o)
                                                  rtthread.risc-v.lib(serial.o)
                                                  rtthread.risc-v.lib(dfs_elm.o)
                                                  rtthread.risc-v.lib(dfs.o)
riscv_rt_strncmp                                  rtthread.risc-v.lib(kservice.o)
                                                  rtthread.risc-v.lib(ulog.o)
                                                  rtthread.risc-v.lib(object.o)
riscv_rt_strncpy                                  rtthread.risc-v.lib(kservice.o)
                                                  rtthread.risc-v.lib(ulog.o)
                                                  rtthread.risc-v.lib(msh.o)
                                                  rtthread.risc-v.lib(dfs_elm.o)
                                                  rtthread.risc-v.lib(devfs.o)
                                                  rtthread.risc-v.lib(object.o)
riscv_rt_strnlen                                  rtthread.risc-v.lib(kservice.o)
riscv_rt_strstr                                   rtthread.risc-v.lib(kservice.o)
riscv_rt_system_heap_init                         rtthread.risc-v.lib(kservice.o)
                                                  rtthread.risc-v.lib(board.o)
riscv_rt_system_scheduler_init                    rtthread.risc-v.lib(scheduler.o)
                                                  rtthread.risc-v.lib(startup.o)
                                                  rtthread.risc-v.lib(board.o)
riscv_rt_system_scheduler_start                   rtthread.risc-v.lib(scheduler.o)
                                                  rtthread.risc-v.lib(startup.o)
riscv_rt_system_timer_init                        rtthread.risc-v.lib(timer.o)
                                                  rtthread.risc-v.lib(startup.o)
riscv_rt_system_timer_thread_init                 rtthread.risc-v.lib(timer.o)
                                                  rtthread.risc-v.lib(startup.o)
riscv_rt_thread_control                           rtthread.risc-v.lib(thread.o)
                                                  rtthread.risc-v.lib(pthread.o)
                                                  rtthread.risc-v.lib(shell.o)
                                                  rtthread.risc-v.lib(ipc.o)
                                                  rtthread.risc-v.lib(idle.o)
                                                  rtthread.risc-v.lib(startup.o)
riscv_rt_thread_create                            rtthread.risc-v.lib(thread.o)
                                                  rtthread.risc-v.lib(shell.o)
                                                  rtthread.risc-v.lib(startup.o)
riscv_rt_thread_defunct_dequeue                   rtthread.risc-v.lib(idle.o)
riscv_rt_thread_defunct_enqueue                   rtthread.risc-v.lib(idle.o)
                                                  rtthread.risc-v.lib(thread.o)
riscv_rt_thread_delay                             rtthread.risc-v.lib(thread.o)
riscv_rt_thread_delay_until                       rtthread.risc-v.lib(thread.o)
riscv_rt_thread_delete                            rtthread.risc-v.lib(thread.o)
riscv_rt_thread_detach                            rtthread.risc-v.lib(thread.o)
                                                  rtthread.risc-v.lib(pthread.o)
riscv_rt_thread_find                              rtthread.risc-v.lib(thread.o)
                                                  rtthread.risc-v.lib(serial.o)
riscv_rt_thread_idle_delhook                      rtthread.risc-v.lib(idle.o)
riscv_rt_thread_idle_gethandler                   rtthread.risc-v.lib(idle.o)
riscv_rt_thread_idle_init                         rtthread.risc-v.lib(idle.o)
                                                  rtthread.risc-v.lib(startup.o)
riscv_rt_thread_idle_sethook                      rtthread.risc-v.lib(idle.o)
riscv_rt_thread_init                              rtthread.risc-v.lib(thread.o)
                                                  rtthread.risc-v.lib(pthread.o)
                                                  rtthread.risc-v.lib(idle.o)
riscv_rt_thread_inited_sethook                    rtthread.risc-v.lib(thread.o)
riscv_rt_thread_mdelay                            rtthread.risc-v.lib(thread.o)
                                                  rtthread.risc-v.lib(delay.o)
riscv_rt_thread_resume                            rtthread.risc-v.lib(thread.o)
                                                  rtthread.risc-v.lib(waitqueue.o)
                                                  rtthread.risc-v.lib(completion.o)
                                                  rtthread.risc-v.lib(ipc.o)
riscv_rt_thread_resume_sethook                    rtthread.risc-v.lib(thread.o)
riscv_rt_thread_self                              rtthread.risc-v.lib(thread.o)
                                                  rtthread.risc-v.lib(stdlib.o)
                                                  rtthread.risc-v.lib(pthread_tls.o)
                                                  rtthread.risc-v.lib(waitqueue.o)
                                                  rtthread.risc-v.lib(completion.o)
                                                  rtthread.risc-v.lib(ulog.o)
                                                  rtthread.risc-v.lib(pthread.o)
                                                  rtthread.risc-v.lib(delay.o)
                                                  rtthread.risc-v.lib(serial.o)
                                                  rtthread.risc-v.lib(kservice.o)
                                                  rtthread.risc-v.lib(cpu.o)
                                                  rtthread.risc-v.lib(clock.o)
                                                  rtthread.risc-v.lib(ipc.o)
riscv_rt_thread_sleep                             rtthread.risc-v.lib(thread.o)
riscv_rt_thread_startup                           rtthread.risc-v.lib(thread.o)
                                                  rtthread.risc-v.lib(pthread.o)
                                                  rtthread.risc-v.lib(shell.o)
                                                  rtthread.risc-v.lib(idle.o)
                                                  rtthread.risc-v.lib(startup.o)
riscv_rt_thread_suspend                           rtthread.risc-v.lib(thread.o)
                                                  rtthread.risc-v.lib(waitqueue.o)
                                                  rtthread.risc-v.lib(completion.o)
                                                  rtthread.risc-v.lib(ipc.o)
riscv_rt_thread_suspend_sethook                   rtthread.risc-v.lib(thread.o)
riscv_rt_thread_yield                             rtthread.risc-v.lib(thread.o)
riscv_rt_tick_from_millisecond                    rtthread.risc-v.lib(clock.o)
                                                  rtthread.risc-v.lib(waitqueue.o)
                                                  rtthread.risc-v.lib(thread.o)
riscv_rt_tick_get                                 rtthread.risc-v.lib(clock.o)
                                                  rtthread.risc-v.lib(ulog.o)
                                                  rtthread.risc-v.lib(pthread.o)
                                                  rtthread.risc-v.lib(time.o)
                                                  rtthread.risc-v.lib(cmd.o)
                                                  rtthread.risc-v.lib(timer.o)
                                                  rtthread.risc-v.lib(thread.o)
                                                  rtthread.risc-v.lib(ipc.o)
                                                  rtthread.risc-v.lib(board.o)
                                                  rtthread.risc-v.lib(main.o)
riscv_rt_tick_get_millisecond                     rtthread.risc-v.lib(clock.o)
riscv_rt_tick_increase                            rtthread.risc-v.lib(clock.o)
                                                  rtthread.risc-v.lib(board.o)
riscv_rt_tick_set                                 rtthread.risc-v.lib(clock.o)
riscv_rt_tick_sethook                             rtthread.risc-v.lib(clock.o)
riscv_rt_timer_check                              rtthread.risc-v.lib(timer.o)
                                                  rtthread.risc-v.lib(clock.o)
riscv_rt_timer_control                            rtthread.risc-v.lib(timer.o)
                                                  rtthread.risc-v.lib(waitqueue.o)
                                                  rtthread.risc-v.lib(completion.o)
                                                  rtthread.risc-v.lib(thread.o)
                                                  rtthread.risc-v.lib(ipc.o)
riscv_rt_timer_create                             rtthread.risc-v.lib(timer.o)
riscv_rt_timer_delete                             rtthread.risc-v.lib(timer.o)
riscv_rt_timer_detach                             rtthread.risc-v.lib(timer.o)
                                                  rtthread.risc-v.lib(thread.o)
riscv_rt_timer_enter_sethook                      rtthread.risc-v.lib(timer.o)
riscv_rt_timer_exit_sethook                       rtthread.risc-v.lib(timer.o)
riscv_rt_timer_init                               rtthread.risc-v.lib(timer.o)
                                                  rtthread.risc-v.lib(thread.o)
riscv_rt_timer_next_timeout_tick                  rtthread.risc-v.lib(timer.o)
riscv_rt_timer_start                              rtthread.risc-v.lib(timer.o)
                                                  rtthread.risc-v.lib(waitqueue.o)
                                                  rtthread.risc-v.lib(completion.o)
                                                  rtthread.risc-v.lib(thread.o)
                                                  rtthread.risc-v.lib(ipc.o)
riscv_rt_timer_stop                               rtthread.risc-v.lib(timer.o)
                                                  rtthread.risc-v.lib(thread.o)
riscv_rt_timespec_to_tick                         rtthread.risc-v.lib(time.o)
                                                  rtthread.risc-v.lib(semaphore.o)
riscv_rt_vsnprintf                                rtthread.risc-v.lib(kservice.o)
                                                  rtthread.risc-v.lib(ulog.o)
riscv_rt_vsprintf                                 rtthread.risc-v.lib(kservice.o)
riscv_rt_wqueue_add                               rtthread.risc-v.lib(waitqueue.o)
riscv_rt_wqueue_remove                            rtthread.risc-v.lib(waitqueue.o)
riscv_rt_wqueue_wait                              rtthread.risc-v.lib(waitqueue.o)
                                                  rtthread.risc-v.lib(serial.o)
riscv_rt_wqueue_wakeup                            rtthread.risc-v.lib(waitqueue.o)
                                                  rtthread.risc-v.lib(serial.o)
riscv_rtthread_startup                            rtthread.risc-v.lib(startup.o)
riscv_seekdir                                     rtthread.risc-v.lib(dfs_posix.o)
riscv_sem_close                                   rtthread.risc-v.lib(semaphore.o)
riscv_sem_destroy                                 rtthread.risc-v.lib(semaphore.o)
riscv_sem_getvalue                                rtthread.risc-v.lib(semaphore.o)
riscv_sem_init                                    rtthread.risc-v.lib(semaphore.o)
                                                  rtthread.risc-v.lib(main.o)
riscv_sem_open                                    rtthread.risc-v.lib(semaphore.o)
riscv_sem_post                                    rtthread.risc-v.lib(semaphore.o)
                                                  rtthread.risc-v.lib(main.o)
riscv_sem_timedwait                               rtthread.risc-v.lib(semaphore.o)
riscv_sem_trywait                                 rtthread.risc-v.lib(semaphore.o)
                                                  rtthread.risc-v.lib(main.o)
riscv_sem_unlink                                  rtthread.risc-v.lib(semaphore.o)
riscv_sem_wait                                    rtthread.risc-v.lib(semaphore.o)
                                                  rtthread.risc-v.lib(main.o)
riscv_serial0                                     rtthread.risc-v.lib(drv_uart.o)
riscv_setlocale                                   build/risc-v/libc.a(lib_a-locale.o)
riscv_settimeofday                                rtthread.risc-v.lib(time.o)
riscv_setvbuf                                     build/risc-v/libc.a(lib_a-setvbuf.o)
                                                  rtthread.risc-v.lib(libc.o)
riscv_shell                                       rtthread.risc-v.lib(shell.o)
riscv_sleep                                       rtthread.risc-v.lib(delay.o)
                                                  rtthread.risc-v.lib(time.o)
                                                  rtthread.risc-v.lib(main.o)
riscv_sniprintf                                   build/risc-v/libc.a(lib_a-snprintf.o)
riscv_snprintf                                    build/risc-v/libc.a(lib_a-snprintf.o)
                                                  rtthread.risc-v.lib(libc.o)
riscv_ssleep                                      rtthread.risc-v.lib(delay.o)
riscv_stat                                        rtthread.risc-v.lib(dfs_posix.o)
                                                  rtthread.risc-v.lib(syscalls.o)
                                                  rtthread.risc-v.lib(msh_file.o)
riscv_statfs                                      rtthread.risc-v.lib(dfs_posix.o)
riscv_stime                                       rtthread.risc-v.lib(time.o)
riscv_strcat                                      build/risc-v/libc.a(lib_a-strcat.o)
                                                  rtthread.risc-v.lib(msh.o)
                                                  rtthread.risc-v.lib(shell.o)
riscv_strchr                                      build/risc-v/libc.a(lib_a-strchr.o)
                                                  build/risc-v/libc.a(lib_a-strrchr.o)
                                                  rtthread.risc-v.lib(ff.o)
riscv_strcmp                                      build/risc-v/libc.a(lib_a-strcmp.o)
                                                  build/risc-v/libc.a(lib_a-locale.o)
                                                  rtthread.risc-v.lib(msh_file.o)
                                                  rtthread.risc-v.lib(dfs_file.o)
                                                  rtthread.risc-v.lib(dfs.o)
                                                  rtthread.risc-v.lib(dfs_fs.o)
riscv_strcpy                                      build/risc-v/libc.a(lib_a-strcpy.o)
                                                  rtthread.risc-v.lib(msh.o)
                                                  rtthread.risc-v.lib(shell.o)
riscv_strlen                                      build/risc-v/libc.a(lib_a-strlen.o)
                                                  rtthread.risc-v.lib(msh_file.o)
                                                  rtthread.risc-v.lib(dfs_posix.o)
                                                  rtthread.risc-v.lib(msh.o)
                                                  rtthread.risc-v.lib(shell.o)
                                                  rtthread.risc-v.lib(dfs.o)
                                                  rtthread.risc-v.lib(dfs_fs.o)
riscv_strncmp                                     build/risc-v/libc.a(lib_a-strncmp.o)
                                                  rtthread.risc-v.lib(semaphore.o)
                                                  rtthread.risc-v.lib(msh.o)
                                                  rtthread.risc-v.lib(dfs_fs.o)
riscv_strncpy                                     build/risc-v/libc.a(lib_a-strncpy.o)
                                                  rtthread.risc-v.lib(dfs_posix.o)
                                                  rtthread.risc-v.lib(shell.o)
riscv_strrchr                                     build/risc-v/libc.a(lib_a-strrchr.o)
                                                  rtthread.risc-v.lib(dfs_file.o)
riscv_strstr                                      build/risc-v/libc.a(lib_a-strstr.o)
                                                  rtthread.risc-v.lib(msh_file.o)
riscv_strtol                                      build/risc-v/libc.a(lib_a-strtol.o)
                                                  build/risc-v/libc.a(lib_a-atoi.o)
riscv_strtol_l                                    build/risc-v/libc.a(lib_a-strtol.o)
riscv_telldir                                     rtthread.risc-v.lib(dfs_posix.o)
riscv_time                                        rtthread.risc-v.lib(time.o)
                                                  rtthread.risc-v.lib(dfs_elm.o)
riscv_timegm                                      rtthread.risc-v.lib(time.o)
                                                  rtthread.risc-v.lib(dfs_elm.o)
riscv_tz_get                                      rtthread.risc-v.lib(time.o)
riscv_tz_is_dst                                   rtthread.risc-v.lib(time.o)
riscv_tz_set                                      rtthread.risc-v.lib(time.o)
riscv_udelay                                      rtthread.risc-v.lib(delay.o)
riscv_ulog_backend_find                           rtthread.risc-v.lib(ulog.o)
riscv_ulog_backend_register                       rtthread.risc-v.lib(ulog.o)
                                                  rtthread.risc-v.lib(console_be.o)
riscv_ulog_backend_set_filter                     rtthread.risc-v.lib(ulog.o)
riscv_ulog_backend_unregister                     rtthread.risc-v.lib(ulog.o)
riscv_ulog_console_backend_init                   rtthread.risc-v.lib(console_be.o)
riscv_ulog_console_backend_output                 rtthread.risc-v.lib(console_be.o)
                                                  rtthread.risc-v.lib(ulog.o)
riscv_ulog_deinit                                 rtthread.risc-v.lib(ulog.o)
riscv_ulog_flush                                  rtthread.risc-v.lib(ulog.o)
riscv_ulog_formater                               rtthread.risc-v.lib(ulog.o)
riscv_ulog_hexdump                                rtthread.risc-v.lib(ulog.o)
riscv_ulog_init                                   rtthread.risc-v.lib(ulog.o)
                                                  rtthread.risc-v.lib(console_be.o)
riscv_ulog_output                                 rtthread.risc-v.lib(ulog.o)
                                                  rtthread.risc-v.lib(syscalls.o)
                                                  rtthread.risc-v.lib(time.o)
                                                  rtthread.risc-v.lib(serial.o)
                                                  rtthread.risc-v.lib(dfs_file.o)
                                                  rtthread.risc-v.lib(dfs.o)
                                                  rtthread.risc-v.lib(dfs_fs.o)
riscv_ulog_output_lock_enabled                    rtthread.risc-v.lib(ulog.o)
riscv_ulog_raw                                    rtthread.risc-v.lib(ulog.o)
riscv_ulog_strcpy                                 rtthread.risc-v.lib(ulog.o)
riscv_ulog_ultoa                                  rtthread.risc-v.lib(ulog.o)
riscv_ulog_voutput                                rtthread.risc-v.lib(ulog.o)
riscv_umask                                       rtthread.risc-v.lib(syscalls.o)
riscv_unlink                                      rtthread.risc-v.lib(dfs_posix.o)
                                                  rtthread.risc-v.lib(syscalls.o)
                                                  rtthread.risc-v.lib(msh_file.o)
riscv_usleep                                      rtthread.risc-v.lib(delay.o)
riscv_version                                     rtthread.risc-v.lib(cmd.o)
riscv_vfiprintf                                   build/risc-v/libc.a(lib_a-nano-vfprintf.o)
riscv_vfprintf                                    build/risc-v/libc.a(lib_a-nano-vfprintf.o)
riscv_wcrtomb                                     build/risc-v/libc.a(lib_a-wcrtomb.o)
riscv_working_directory                           rtthread.risc-v.lib(dfs.o)
                                                  rtthread.risc-v.lib(msh_file.o)
                                                  rtthread.risc-v.lib(dfs_posix.o)
                                                  rtthread.risc-v.lib(dfs_file.o)
riscv_write                                       rtthread.risc-v.lib(dfs_posix.o)
                                                  rtthread.risc-v.lib(syscalls.o)
                                                  rtthread.risc-v.lib(msh_file.o)
rt_cpus                                           rtthread.risc-v.lib(cpu.o)
                                                  rtthread.arm.lib(cpu.o)
rt_hw_gate                                        rtthread.risc-v.lib(board.o)
                                                  rtthread.arm.lib(board.o)
rt_thread_priority_table                          rtthread.risc-v.lib(scheduler.o)
                                                  rtthread.arm.lib(scheduler.o)
rt_thread_ready_priority_group                    rtthread.risc-v.lib(scheduler.o)
                                                  rtthread.arm.lib(scheduler.o)
